TN:
SF:/mnt/c/users/gabci/desktop/nhf2/src/exceptions/FileExceptions.h
FN:27,_ZN37ImportInvalidHumanProfessionExceptionC2ERKNSt7__cxx1112basic_stringIcSt11char_traitsIcESaIcEEE
FNDA:0,_ZN37ImportInvalidHumanProfessionExceptionC2ERKNSt7__cxx1112basic_stringIcSt11char_traitsIcESaIcEEE
DA:27,0
end_of_record
SF:/usr/include/c++/11/bits/stl_iterator_base_funcs.h
DA:98,0
DA:104,0
DA:138,0
DA:141,0
end_of_record
SF:/usr/include/c++/11/ext/alloc_traits.h
DA:97,0
DA:98,0
end_of_record
SF:/usr/include/c++/11/bits/basic_string.tcc
FN:206,_ZNSt7__cxx1112basic_stringIcSt11char_traitsIcESaIcEE12_M_constructIPKcEEvT_S8_St20forward_iterator_tag
FNDA:0,_ZNSt7__cxx1112basic_stringIcSt11char_traitsIcESaIcEE12_M_constructIPKcEEvT_S8_St20forward_iterator_tag
FN:1169,_ZStplIcSt11char_traitsIcESaIcEENSt7__cxx1112basic_stringIT_T0_T1_EEPKS5_RKS8_
FNDA:0,_ZStplIcSt11char_traitsIcESaIcEENSt7__cxx1112basic_stringIT_T0_T1_EEPKS5_RKS8_
DA:206,0
DA:211,0
DA:212,0
DA:215,0
DA:217,0
DA:219,0
DA:220,0
DA:225,0
DA:232,0
DA:233,0
DA:1169,0
DA:1178,0
DA:1179,0
DA:1181,0
DA:1182,0
DA:1183,0
DA:1184,0
DA:1185,0
end_of_record
SF:/usr/include/c++/11/ext/new_allocator.h
DA:79,1
DA:82,1
DA:89,148
end_of_record
SF:/usr/include/c++/11/bits/alloc_traits.h
DA:562,0
DA:563,0
end_of_record
SF:/mnt/c/users/gabci/desktop/nhf2/src/creatures/EntityUtils.h
end_of_record
SF:/usr/include/c++/11/bits/basic_string.h
FN:533,_ZNSt7__cxx1112basic_stringIcSt11char_traitsIcESaIcEEC2IS3_EEPKcRKS3_
FNDA:1,_ZNSt7__cxx1112basic_stringIcSt11char_traitsIcESaIcEEC2IS3_EEPKcRKS3_
DA:158,148
DA:164,1
DA:165,1
DA:186,0
DA:187,0
DA:190,0
DA:191,0
DA:194,0
DA:195,0
DA:198,1
DA:201,1
DA:218,0
DA:219,0
DA:222,0
DA:224,0
DA:225,0
DA:299,0
DA:404,0
DA:406,0
DA:448,0
DA:449,0
DA:450,0
DA:533,1
DA:534,1
DA:536,1
DA:539,1
DA:540,1
DA:671,0
DA:672,148
DA:679,833
DA:681,833
DA:920,0
DA:921,0
DA:1213,0
DA:1214,0
DA:1356,833
DA:1387,833
DA:2351,0
DA:2352,0
DA:6248,834
DA:6250,94
DA:6327,740
DA:6329,740
end_of_record
SF:/usr/include/c++/11/bits/allocator.h
DA:156,1
DA:159,1
DA:160,1
DA:174,148
end_of_record
SF:/mnt/c/users/gabci/desktop/nhf2/src/creatures/EntityBase.cpp
FN:6,_ZN8creature10EntityBase10set_healthEi
FNDA:148,_ZN8creature10EntityBase10set_healthEi
FN:10,_ZNK8creature10EntityBase10get_genderEv
FNDA:8,_ZNK8creature10EntityBase10get_genderEv
FN:13,_ZNK8creature10EntityBase9get_stateEv
FNDA:8,_ZNK8creature10EntityBase9get_stateEv
FN:16,_ZN8creature10EntityBaseD0Ev
FNDA:0,_ZN8creature10EntityBaseD0Ev
FN:16,_ZN8creature10EntityBaseD2Ev
FNDA:147,_ZN8creature10EntityBaseD2Ev
FN:19,_ZN8creature10EntityBase9apply_ageEv
FNDA:65,_ZN8creature10EntityBase9apply_ageEv
FN:25,_ZN8creature10EntityBase16set_idle_textureENSt7__cxx1112basic_stringIcSt11char_traitsIcESaIcEEE
FNDA:148,_ZN8creature10EntityBase16set_idle_textureENSt7__cxx1112basic_stringIcSt11char_traitsIcESaIcEEE
FN:37,_ZN8creature10EntityBase18set_attack_textureENSt7__cxx1112basic_stringIcSt11char_traitsIcESaIcEEE
FNDA:148,_ZN8creature10EntityBase18set_attack_textureENSt7__cxx1112basic_stringIcSt11char_traitsIcESaIcEEE
FN:48,_ZN8creature10EntityBase16set_walk_textureENSt7__cxx1112basic_stringIcSt11char_traitsIcESaIcEEE
FNDA:148,_ZN8creature10EntityBase16set_walk_textureENSt7__cxx1112basic_stringIcSt11char_traitsIcESaIcEEE
FN:59,_ZN8creature10EntityBase15set_run_textureENSt7__cxx1112basic_stringIcSt11char_traitsIcESaIcEEE
FNDA:148,_ZN8creature10EntityBase15set_run_textureENSt7__cxx1112basic_stringIcSt11char_traitsIcESaIcEEE
FN:70,_ZN8creature10EntityBase17set_death_textureENSt7__cxx1112basic_stringIcSt11char_traitsIcESaIcEEE
FNDA:148,_ZN8creature10EntityBase17set_death_textureENSt7__cxx1112basic_stringIcSt11char_traitsIcESaIcEEE
FN:81,_ZNK8creature10EntityBase15get_death_timerEv
FNDA:65,_ZNK8creature10EntityBase15get_death_timerEv
FN:84,_ZNK8creature10EntityBase13get_save_nameB5cxx11Ev
FNDA:12,_ZNK8creature10EntityBase13get_save_nameB5cxx11Ev
FN:88,_ZN8creature10EntityBase13set_save_nameERKNSt7__cxx1112basic_stringIcSt11char_traitsIcESaIcEEE
FNDA:94,_ZN8creature10EntityBase13set_save_nameERKNSt7__cxx1112basic_stringIcSt11char_traitsIcESaIcEEE
DA:6,148
DA:7,148
DA:8,148
DA:10,8
DA:11,8
DA:13,8
DA:14,8
DA:16,0
DA:18,0
DA:16,147
DA:18,147
DA:19,65
DA:20,65
DA:21,0
DA:23,65
DA:25,148
DA:26,148
DA:27,148
DA:29,0
DA:35,148
DA:37,148
DA:38,148
DA:39,148
DA:41,0
DA:47,148
DA:48,148
DA:49,148
DA:50,148
DA:52,0
DA:58,148
DA:59,148
DA:60,148
DA:61,148
DA:63,0
DA:69,148
DA:70,148
DA:71,148
DA:72,148
DA:74,0
DA:80,148
DA:81,65
DA:82,65
DA:84,12
DA:85,12
DA:88,94
DA:89,94
DA:90,2
DA:92,93
DA:93,93
end_of_record
SF:/usr/include/c++/11/iostream
end_of_record
SF:/usr/include/c++/11/bits/char_traits.h
DA:356,0
DA:357,0
DA:393,1
DA:396,1
DA:399,1
end_of_record
TN:
SF:/mnt/c/users/gabci/desktop/nhf2/src/creatures/EntityUtils.h
end_of_record
SF:/usr/include/c++/11/bits/basic_string.h
FN:533,_ZNSt7__cxx1112basic_stringIcSt11char_traitsIcESaIcEEC2IS3_EEPKcRKS3_
FNDA:228,_ZNSt7__cxx1112basic_stringIcSt11char_traitsIcESaIcEEC2IS3_EEPKcRKS3_
FN:6132,_ZStplIcSt11char_traitsIcESaIcEENSt7__cxx1112basic_stringIT_T0_T1_EERKS8_PKS5_
FNDA:486,_ZStplIcSt11char_traitsIcESaIcEENSt7__cxx1112basic_stringIT_T0_T1_EERKS8_PKS5_
DA:158,567
DA:164,228
DA:165,228
DA:186,0
DA:187,0
DA:190,0
DA:191,0
DA:194,0
DA:195,0
DA:198,228
DA:201,228
DA:218,0
DA:219,0
DA:222,0
DA:224,0
DA:225,0
DA:400,0
DA:401,0
DA:404,0
DA:406,0
DA:533,228
DA:534,228
DA:536,228
DA:539,228
DA:540,228
DA:671,567
DA:672,567
DA:6132,486
DA:6135,486
DA:6136,486
DA:6137,486
DA:6138,0
end_of_record
SF:/mnt/c/users/gabci/desktop/nhf2/src/Textureable.h
end_of_record
SF:/mnt/c/users/gabci/desktop/nhf2/src/Shadowable.h
FN:73,_ZN10ShadowableD0Ev
FNDA:0,_ZN10ShadowableD0Ev
FN:73,_ZN10ShadowableD2Ev
FNDA:0,_ZN10ShadowableD2Ev
DA:73,0
DA:73,0
end_of_record
SF:/mnt/c/users/gabci/desktop/nhf2/src/creatures/Living.h
end_of_record
SF:/usr/include/c++/11/bits/stl_iterator_base_funcs.h
DA:98,0
DA:104,0
DA:138,0
DA:141,0
end_of_record
SF:/usr/include/c++/11/bits/basic_string.tcc
FN:206,_ZNSt7__cxx1112basic_stringIcSt11char_traitsIcESaIcEE12_M_constructIPcEEvT_S7_St20forward_iterator_tag
FNDA:0,_ZNSt7__cxx1112basic_stringIcSt11char_traitsIcESaIcEE12_M_constructIPcEEvT_S7_St20forward_iterator_tag
FN:206,_ZNSt7__cxx1112basic_stringIcSt11char_traitsIcESaIcEE12_M_constructIPKcEEvT_S8_St20forward_iterator_tag
FNDA:0,_ZNSt7__cxx1112basic_stringIcSt11char_traitsIcESaIcEE12_M_constructIPKcEEvT_S8_St20forward_iterator_tag
DA:206,0
DA:211,0
DA:212,0
DA:215,0
DA:217,0
DA:219,0
DA:220,0
DA:225,0
DA:232,0
DA:233,0
DA:206,0
DA:211,0
DA:212,0
DA:215,0
DA:217,0
DA:219,0
DA:220,0
DA:225,0
DA:232,0
DA:233,0
end_of_record
SF:/usr/include/c++/11/ext/new_allocator.h
DA:79,81
DA:82,228
DA:89,648
end_of_record
SF:/mnt/c/users/gabci/desktop/nhf2/src/creatures/Goat.cpp
FN:7,_ZN8creature4GoatC2Eii
FNDA:81,_ZN8creature4GoatC2Eii
FN:41,_ZN8creature4Goat9goat_idleER5World
FNDA:4,_ZN8creature4Goat9goat_idleER5World
FN:61,_ZN8creature4Goat8goat_runEf
FNDA:18,_ZN8creature4Goat8goat_runEf
FN:81,_ZN8creature4Goat9goat_walkEf
FNDA:18,_ZN8creature4Goat9goat_walkEf
FN:101,_ZN8creature4Goat12update_logicER5Worldf
FNDA:40,_ZN8creature4Goat12update_logicER5Worldf
FN:125,_ZN8creature4Goat10draw_logicERN2sf12RenderWindowEfii
FNDA:40,_ZN8creature4Goat10draw_logicERN2sf12RenderWindowEfii
FN:134,_ZN8creature4Goat3dieEv
FNDA:1,_ZN8creature4Goat3dieEv
FN:138,_ZNK8creature4Goat8get_typeEv
FNDA:33,_ZNK8creature4Goat8get_typeEv
FN:142,_ZN8creature4GoatD0Ev
FNDA:81,_ZN8creature4GoatD0Ev
FN:142,_ZN8creature4GoatD2Ev
FNDA:81,_ZN8creature4GoatD2Ev
DA:7,81
DA:8,81
DA:9,81
DA:10,81
DA:11,81
DA:12,81
DA:13,81
DA:14,81
DA:16,81
DA:17,81
DA:18,31
DA:20,50
DA:23,81
DA:25,81
DA:26,81
DA:27,81
DA:28,81
DA:29,81
DA:30,81
DA:31,81
DA:32,81
DA:33,81
DA:35,81
DA:37,81
DA:38,81
DA:39,81
DA:41,4
DA:42,4
DA:43,4
DA:44,2
DA:46,2
DA:49,4
DA:50,4
DA:51,1
DA:53,3
DA:55,4
DA:58,4
DA:61,18
DA:62,18
DA:63,0
DA:64,0
DA:66,18
DA:67,1
DA:69,17
DA:72,18
DA:73,13
DA:75,5
DA:81,18
DA:82,18
DA:83,0
DA:84,0
DA:86,18
DA:87,9
DA:89,9
DA:92,18
DA:93,18
DA:95,0
DA:101,40
DA:102,40
DA:104,40
DA:105,4
DA:106,4
DA:107,4
DA:108,18
DA:109,18
DA:110,18
DA:111,18
DA:112,18
DA:113,18
DA:118,0
DA:119,0
DA:120,0
DA:121,0
DA:123,40
DA:125,40
DA:126,40
DA:127,40
DA:128,40
DA:129,40
DA:131,40
DA:134,1
DA:135,1
DA:136,1
DA:138,33
DA:139,33
DA:142,81
DA:144,81
DA:142,81
DA:143,81
DA:144,81
end_of_record
SF:/mnt/c/users/gabci/desktop/nhf2/src/creatures/Goat.h
end_of_record
SF:/mnt/c/users/gabci/desktop/nhf2/src/creatures/EntityBase.h
end_of_record
SF:/usr/include/c++/11/iostream
end_of_record
SF:/usr/include/c++/11/bits/char_traits.h
DA:356,0
DA:357,0
DA:393,228
DA:396,228
DA:399,228
end_of_record
SF:/usr/include/c++/11/bits/allocator.h
DA:156,81
DA:159,228
DA:160,228
DA:174,648
end_of_record
SF:/usr/include/c++/11/bits/move.h
end_of_record
TN:
SF:/usr/include/c++/11/iostream
end_of_record
SF:/mnt/c/users/gabci/desktop/nhf2/src/creatures/HostileInterface.cpp
FN:7,_ZN8creature16HostileInterface18set_hostile_configEif
FNDA:21,_ZN8creature16HostileInterface18set_hostile_configEif
FN:14,_ZN8creature16HostileInterface10try_attackEv
FNDA:0,_ZN8creature16HostileInterface10try_attackEv
FN:32,_ZN8creature16HostileInterface12hostile_walkEf
FNDA:0,_ZN8creature16HostileInterface12hostile_walkEf
FN:51,_ZN8creature16HostileInterface11hostile_runEf
FNDA:18,_ZN8creature16HostileInterface11hostile_runEf
FN:72,_ZN8creature16HostileInterface8retargetEPNS_6LivingE
FNDA:2,_ZN8creature16HostileInterface8retargetEPNS_6LivingE
FN:78,_ZNK8creature16HostileInterface13check_aggroedEv
FNDA:8,_ZNK8creature16HostileInterface13check_aggroedEv
DA:7,21
DA:8,21
DA:9,21
DA:10,21
DA:11,21
DA:12,21
DA:14,0
DA:15,0
DA:17,0
DA:18,0
DA:20,0
DA:21,0
DA:22,0
DA:23,0
DA:24,0
DA:25,0
DA:26,0
DA:30,0
DA:32,0
DA:33,0
DA:34,0
DA:35,0
DA:37,0
DA:38,0
DA:40,0
DA:43,0
DA:44,0
DA:46,0
DA:49,0
DA:51,18
DA:52,18
DA:53,0
DA:54,0
DA:56,18
DA:57,6
DA:58,6
DA:60,12
DA:61,12
DA:64,18
DA:65,10
DA:67,8
DA:70,18
DA:72,2
DA:73,2
DA:74,0
DA:76,2
DA:77,2
DA:78,8
DA:79,8
end_of_record
TN:
SF:/usr/include/c++/11/bits/allocator.h
DA:156,8
DA:159,8
DA:160,8
DA:174,64
end_of_record
SF:/usr/include/c++/11/bits/move.h
end_of_record
SF:/mnt/c/users/gabci/desktop/nhf2/src/creatures/EntityBase.h
end_of_record
SF:/usr/include/c++/11/iostream
end_of_record
SF:/usr/include/c++/11/bits/char_traits.h
DA:356,0
DA:357,0
DA:393,8
DA:396,8
DA:399,8
end_of_record
SF:/mnt/c/users/gabci/desktop/nhf2/src/creatures/hostiles/Bear.cpp
FN:7,_ZN8creature4BearC2Eii
FNDA:8,_ZN8creature4BearC2Eii
FN:42,_ZN8creature4Bear12update_logicER5Worldf
FNDA:14,_ZN8creature4Bear12update_logicER5Worldf
FN:87,_ZN8creature4Bear10draw_logicERN2sf12RenderWindowEfii
FNDA:10,_ZN8creature4Bear10draw_logicERN2sf12RenderWindowEfii
FN:96,_ZN8creature4Bear3dieEv
FNDA:1,_ZN8creature4Bear3dieEv
FN:100,_ZNK8creature4Bear8get_typeEv
FNDA:2,_ZNK8creature4Bear8get_typeEv
FN:104,_ZN8creature4BearD0Ev
FNDA:8,_ZN8creature4BearD0Ev
FN:104,_ZN8creature4BearD2Ev
FNDA:8,_ZN8creature4BearD2Ev
FN:109,_ZN8creature4Bear13select_targetER5World
FNDA:3,_ZN8creature4Bear13select_targetER5World
DA:7,8
DA:8,8
DA:9,8
DA:10,8
DA:11,8
DA:12,8
DA:13,8
DA:14,8
DA:16,8
DA:17,8
DA:18,2
DA:20,6
DA:23,8
DA:25,8
DA:26,8
DA:27,8
DA:28,8
DA:29,8
DA:30,8
DA:31,8
DA:32,8
DA:33,8
DA:35,8
DA:36,8
DA:37,8
DA:39,8
DA:40,8
DA:42,14
DA:43,14
DA:45,14
DA:46,2
DA:47,2
DA:48,2
DA:50,2
DA:51,2
DA:54,0
DA:55,0
DA:56,0
DA:57,0
DA:58,0
DA:60,0
DA:62,0
DA:67,12
DA:68,12
DA:69,12
DA:70,0
DA:71,0
DA:72,0
DA:75,0
DA:76,0
DA:77,0
DA:78,0
DA:79,0
DA:80,0
DA:81,0
DA:85,14
DA:87,10
DA:88,10
DA:89,10
DA:90,8
DA:91,8
DA:93,10
DA:96,1
DA:97,1
DA:98,1
DA:100,2
DA:101,2
DA:104,8
DA:107,8
DA:104,8
DA:105,8
DA:106,8
DA:107,8
DA:109,3
DA:110,3
DA:111,3
DA:112,0
DA:114,3
end_of_record
SF:/mnt/c/users/gabci/desktop/nhf2/src/Shadowable.h
FN:73,_ZN10ShadowableD0Ev
FNDA:0,_ZN10ShadowableD0Ev
FN:73,_ZN10ShadowableD2Ev
FNDA:0,_ZN10ShadowableD2Ev
DA:73,0
DA:73,0
end_of_record
SF:/mnt/c/users/gabci/desktop/nhf2/src/Textureable.h
end_of_record
SF:/usr/include/c++/11/ext/new_allocator.h
DA:79,8
DA:82,8
DA:89,64
end_of_record
SF:/mnt/c/users/gabci/desktop/nhf2/src/creatures/hostiles/Bear.h
end_of_record
SF:/mnt/c/users/gabci/desktop/nhf2/src/creatures/Living.h
end_of_record
SF:/usr/include/c++/11/bits/basic_string.tcc
FN:206,_ZNSt7__cxx1112basic_stringIcSt11char_traitsIcESaIcEE12_M_constructIPcEEvT_S7_St20forward_iterator_tag
FNDA:0,_ZNSt7__cxx1112basic_stringIcSt11char_traitsIcESaIcEE12_M_constructIPcEEvT_S7_St20forward_iterator_tag
FN:206,_ZNSt7__cxx1112basic_stringIcSt11char_traitsIcESaIcEE12_M_constructIPKcEEvT_S8_St20forward_iterator_tag
FNDA:0,_ZNSt7__cxx1112basic_stringIcSt11char_traitsIcESaIcEE12_M_constructIPKcEEvT_S8_St20forward_iterator_tag
DA:206,0
DA:211,0
DA:212,0
DA:215,0
DA:217,0
DA:219,0
DA:220,0
DA:225,0
DA:232,0
DA:233,0
DA:206,0
DA:211,0
DA:212,0
DA:215,0
DA:217,0
DA:219,0
DA:220,0
DA:225,0
DA:232,0
DA:233,0
end_of_record
SF:/usr/include/c++/11/bits/stl_iterator_base_funcs.h
DA:98,0
DA:104,0
DA:138,0
DA:141,0
end_of_record
SF:/usr/include/c++/11/bits/basic_string.h
FN:533,_ZNSt7__cxx1112basic_stringIcSt11char_traitsIcESaIcEEC2IS3_EEPKcRKS3_
FNDA:8,_ZNSt7__cxx1112basic_stringIcSt11char_traitsIcESaIcEEC2IS3_EEPKcRKS3_
FN:6132,_ZStplIcSt11char_traitsIcESaIcEENSt7__cxx1112basic_stringIT_T0_T1_EERKS8_PKS5_
FNDA:48,_ZStplIcSt11char_traitsIcESaIcEENSt7__cxx1112basic_stringIT_T0_T1_EERKS8_PKS5_
DA:158,56
DA:164,8
DA:165,8
DA:186,0
DA:187,0
DA:190,0
DA:191,0
DA:194,0
DA:195,0
DA:198,8
DA:201,8
DA:218,0
DA:219,0
DA:222,0
DA:224,0
DA:225,0
DA:400,0
DA:401,0
DA:404,0
DA:406,0
DA:533,8
DA:534,8
DA:536,8
DA:539,8
DA:540,8
DA:671,56
DA:672,56
DA:6132,48
DA:6135,48
DA:6136,48
DA:6137,48
DA:6138,0
end_of_record
SF:/mnt/c/users/gabci/desktop/nhf2/src/creatures/EntityUtils.h
end_of_record
SF:/mnt/c/users/gabci/desktop/nhf2/src/creatures/HostileInterface.h
DA:44,8
end_of_record
TN:
SF:/usr/include/c++/11/bits/move.h
end_of_record
SF:/usr/include/c++/11/bits/allocator.h
DA:156,8
DA:159,8
DA:160,8
DA:174,64
end_of_record
SF:/usr/include/c++/11/bits/char_traits.h
DA:356,0
DA:357,0
DA:393,8
DA:396,8
DA:399,8
end_of_record
SF:/usr/include/c++/11/iostream
end_of_record
SF:/mnt/c/users/gabci/desktop/nhf2/src/creatures/EntityBase.h
end_of_record
SF:/usr/include/c++/11/bits/stl_iterator_base_funcs.h
DA:98,0
DA:104,0
DA:138,0
DA:141,0
end_of_record
SF:/mnt/c/users/gabci/desktop/nhf2/src/creatures/Living.h
end_of_record
SF:/usr/include/c++/11/bits/basic_string.tcc
FN:206,_ZNSt7__cxx1112basic_stringIcSt11char_traitsIcESaIcEE12_M_constructIPcEEvT_S7_St20forward_iterator_tag
FNDA:0,_ZNSt7__cxx1112basic_stringIcSt11char_traitsIcESaIcEE12_M_constructIPcEEvT_S7_St20forward_iterator_tag
FN:206,_ZNSt7__cxx1112basic_stringIcSt11char_traitsIcESaIcEE12_M_constructIPKcEEvT_S8_St20forward_iterator_tag
FNDA:0,_ZNSt7__cxx1112basic_stringIcSt11char_traitsIcESaIcEE12_M_constructIPKcEEvT_S8_St20forward_iterator_tag
DA:206,0
DA:211,0
DA:212,0
DA:215,0
DA:217,0
DA:219,0
DA:220,0
DA:225,0
DA:232,0
DA:233,0
DA:206,0
DA:211,0
DA:212,0
DA:215,0
DA:217,0
DA:219,0
DA:220,0
DA:225,0
DA:232,0
DA:233,0
end_of_record
SF:/usr/include/c++/11/ext/new_allocator.h
DA:79,8
DA:82,8
DA:89,64
end_of_record
SF:/mnt/c/users/gabci/desktop/nhf2/src/Textureable.h
end_of_record
SF:/mnt/c/users/gabci/desktop/nhf2/src/creatures/hostiles/Crocodile.cpp
FN:7,_ZN8creature9CrocodileC2Eii
FNDA:8,_ZN8creature9CrocodileC2Eii
FN:42,_ZN8creature9Crocodile12update_logicER5Worldf
FNDA:4,_ZN8creature9Crocodile12update_logicER5Worldf
FN:85,_ZN8creature9Crocodile10draw_logicERN2sf12RenderWindowEfii
FNDA:0,_ZN8creature9Crocodile10draw_logicERN2sf12RenderWindowEfii
FN:94,_ZN8creature9Crocodile3dieEv
FNDA:1,_ZN8creature9Crocodile3dieEv
FN:98,_ZNK8creature9Crocodile8get_typeEv
FNDA:5,_ZNK8creature9Crocodile8get_typeEv
FN:102,_ZN8creature9CrocodileD0Ev
FNDA:8,_ZN8creature9CrocodileD0Ev
FN:102,_ZN8creature9CrocodileD2Ev
FNDA:8,_ZN8creature9CrocodileD2Ev
FN:107,_ZN8creature9Crocodile13select_targetER5World
FNDA:2,_ZN8creature9Crocodile13select_targetER5World
DA:7,8
DA:8,8
DA:9,8
DA:10,8
DA:11,8
DA:12,8
DA:13,8
DA:14,8
DA:16,8
DA:17,8
DA:18,0
DA:20,8
DA:23,8
DA:25,8
DA:26,8
DA:27,8
DA:28,8
DA:29,8
DA:30,8
DA:31,8
DA:32,8
DA:33,8
DA:35,8
DA:36,8
DA:37,8
DA:39,8
DA:40,8
DA:42,4
DA:43,4
DA:45,4
DA:46,1
DA:47,1
DA:48,1
DA:50,1
DA:51,1
DA:54,0
DA:55,0
DA:56,0
DA:57,0
DA:59,0
DA:61,0
DA:65,3
DA:66,3
DA:67,3
DA:68,0
DA:69,0
DA:70,0
DA:73,0
DA:74,0
DA:75,0
DA:76,0
DA:77,0
DA:78,0
DA:79,0
DA:83,4
DA:85,0
DA:86,0
DA:87,0
DA:88,0
DA:89,0
DA:91,0
DA:94,1
DA:95,1
DA:96,1
DA:98,5
DA:99,5
DA:102,8
DA:105,8
DA:102,8
DA:103,8
DA:104,8
DA:105,8
DA:107,2
DA:108,2
DA:110,2
DA:111,0
DA:113,2
end_of_record
SF:/mnt/c/users/gabci/desktop/nhf2/src/Shadowable.h
FN:73,_ZN10ShadowableD0Ev
FNDA:0,_ZN10ShadowableD0Ev
FN:73,_ZN10ShadowableD2Ev
FNDA:0,_ZN10ShadowableD2Ev
DA:73,0
DA:73,0
end_of_record
SF:/mnt/c/users/gabci/desktop/nhf2/src/creatures/hostiles/Crocodile.h
end_of_record
SF:/mnt/c/users/gabci/desktop/nhf2/src/creatures/HostileInterface.h
DA:44,8
end_of_record
SF:/mnt/c/users/gabci/desktop/nhf2/src/creatures/EntityUtils.h
end_of_record
SF:/usr/include/c++/11/bits/basic_string.h
FN:533,_ZNSt7__cxx1112basic_stringIcSt11char_traitsIcESaIcEEC2IS3_EEPKcRKS3_
FNDA:8,_ZNSt7__cxx1112basic_stringIcSt11char_traitsIcESaIcEEC2IS3_EEPKcRKS3_
FN:6132,_ZStplIcSt11char_traitsIcESaIcEENSt7__cxx1112basic_stringIT_T0_T1_EERKS8_PKS5_
FNDA:48,_ZStplIcSt11char_traitsIcESaIcEENSt7__cxx1112basic_stringIT_T0_T1_EERKS8_PKS5_
DA:158,56
DA:164,8
DA:165,8
DA:186,0
DA:187,0
DA:190,0
DA:191,0
DA:194,0
DA:195,0
DA:198,8
DA:201,8
DA:218,0
DA:219,0
DA:222,0
DA:224,0
DA:225,0
DA:400,0
DA:401,0
DA:404,0
DA:406,0
DA:533,8
DA:534,8
DA:536,8
DA:539,8
DA:540,8
DA:671,56
DA:672,56
DA:6132,48
DA:6135,48
DA:6136,48
DA:6137,48
DA:6138,0
end_of_record
TN:
SF:/usr/include/c++/11/bits/allocator.h
DA:156,2
DA:159,2
DA:160,2
DA:174,16
end_of_record
SF:/usr/include/c++/11/bits/move.h
end_of_record
SF:/mnt/c/users/gabci/desktop/nhf2/src/creatures/EntityBase.h
end_of_record
SF:/usr/include/c++/11/bits/char_traits.h
DA:356,0
DA:357,0
DA:393,2
DA:396,2
DA:399,2
end_of_record
SF:/usr/include/c++/11/iostream
end_of_record
SF:/mnt/c/users/gabci/desktop/nhf2/src/Shadowable.h
FN:73,_ZN10ShadowableD0Ev
FNDA:0,_ZN10ShadowableD0Ev
FN:73,_ZN10ShadowableD2Ev
FNDA:0,_ZN10ShadowableD2Ev
DA:73,0
DA:73,0
end_of_record
SF:/mnt/c/users/gabci/desktop/nhf2/src/Textureable.h
end_of_record
SF:/usr/include/c++/11/ext/new_allocator.h
DA:79,2
DA:82,2
DA:89,16
end_of_record
SF:/mnt/c/users/gabci/desktop/nhf2/src/creatures/Living.h
end_of_record
SF:/usr/include/c++/11/bits/basic_string.tcc
FN:206,_ZNSt7__cxx1112basic_stringIcSt11char_traitsIcESaIcEE12_M_constructIPcEEvT_S7_St20forward_iterator_tag
FNDA:0,_ZNSt7__cxx1112basic_stringIcSt11char_traitsIcESaIcEE12_M_constructIPcEEvT_S7_St20forward_iterator_tag
FN:206,_ZNSt7__cxx1112basic_stringIcSt11char_traitsIcESaIcEE12_M_constructIPKcEEvT_S8_St20forward_iterator_tag
FNDA:0,_ZNSt7__cxx1112basic_stringIcSt11char_traitsIcESaIcEE12_M_constructIPKcEEvT_S8_St20forward_iterator_tag
DA:206,0
DA:211,0
DA:212,0
DA:215,0
DA:217,0
DA:219,0
DA:220,0
DA:225,0
DA:232,0
DA:233,0
DA:206,0
DA:211,0
DA:212,0
DA:215,0
DA:217,0
DA:219,0
DA:220,0
DA:225,0
DA:232,0
DA:233,0
end_of_record
SF:/usr/include/c++/11/bits/stl_iterator_base_funcs.h
DA:98,0
DA:104,0
DA:138,0
DA:141,0
end_of_record
SF:/mnt/c/users/gabci/desktop/nhf2/src/creatures/hostiles/KillerRobot.h
end_of_record
SF:/mnt/c/users/gabci/desktop/nhf2/src/creatures/hostiles/KillerRobot.cpp
FN:7,_ZN8creature11KillerRobotC2Eii
FNDA:2,_ZN8creature11KillerRobotC2Eii
FN:37,_ZN8creature11KillerRobot12update_logicER5Worldf
FNDA:4,_ZN8creature11KillerRobot12update_logicER5Worldf
FN:72,_ZN8creature11KillerRobot10draw_logicERN2sf12RenderWindowEfii
FNDA:0,_ZN8creature11KillerRobot10draw_logicERN2sf12RenderWindowEfii
FN:81,_ZN8creature11KillerRobot3dieEv
FNDA:1,_ZN8creature11KillerRobot3dieEv
FN:85,_ZNK8creature11KillerRobot8get_typeEv
FNDA:1,_ZNK8creature11KillerRobot8get_typeEv
FN:89,_ZN8creature11KillerRobotD0Ev
FNDA:2,_ZN8creature11KillerRobotD0Ev
FN:89,_ZN8creature11KillerRobotD2Ev
FNDA:2,_ZN8creature11KillerRobotD2Ev
FN:94,_ZN8creature11KillerRobot13select_targetER5World
FNDA:2,_ZN8creature11KillerRobot13select_targetER5World
DA:7,2
DA:8,2
DA:9,2
DA:10,2
DA:11,2
DA:12,2
DA:13,2
DA:14,2
DA:16,2
DA:18,2
DA:20,2
DA:21,2
DA:22,2
DA:23,2
DA:24,2
DA:25,2
DA:26,2
DA:27,2
DA:28,2
DA:30,2
DA:31,2
DA:32,2
DA:34,2
DA:35,2
DA:37,4
DA:38,4
DA:40,4
DA:41,1
DA:42,1
DA:43,1
DA:45,1
DA:46,1
DA:48,0
DA:52,3
DA:53,3
DA:54,3
DA:55,0
DA:56,0
DA:57,0
DA:60,0
DA:61,0
DA:62,0
DA:63,0
DA:64,0
DA:65,0
DA:66,0
DA:70,4
DA:72,0
DA:73,0
DA:74,0
DA:75,0
DA:76,0
DA:78,0
DA:81,1
DA:82,1
DA:83,1
DA:85,1
DA:86,1
DA:89,2
DA:92,2
DA:89,2
DA:90,2
DA:91,2
DA:92,2
DA:94,2
DA:95,2
DA:96,2
DA:97,0
DA:99,2
end_of_record
SF:/mnt/c/users/gabci/desktop/nhf2/src/creatures/HostileInterface.h
DA:44,2
end_of_record
SF:/usr/include/c++/11/bits/basic_string.h
FN:533,_ZNSt7__cxx1112basic_stringIcSt11char_traitsIcESaIcEEC2IS3_EEPKcRKS3_
FNDA:2,_ZNSt7__cxx1112basic_stringIcSt11char_traitsIcESaIcEEC2IS3_EEPKcRKS3_
FN:6132,_ZStplIcSt11char_traitsIcESaIcEENSt7__cxx1112basic_stringIT_T0_T1_EERKS8_PKS5_
FNDA:12,_ZStplIcSt11char_traitsIcESaIcEENSt7__cxx1112basic_stringIT_T0_T1_EERKS8_PKS5_
DA:158,14
DA:164,2
DA:165,2
DA:186,0
DA:187,0
DA:190,0
DA:191,0
DA:194,0
DA:195,0
DA:198,2
DA:201,2
DA:218,0
DA:219,0
DA:222,0
DA:224,0
DA:225,0
DA:400,0
DA:401,0
DA:404,0
DA:406,0
DA:533,2
DA:534,2
DA:536,2
DA:539,2
DA:540,2
DA:671,14
DA:672,14
DA:6132,12
DA:6135,12
DA:6136,12
DA:6137,12
DA:6138,0
end_of_record
SF:/mnt/c/users/gabci/desktop/nhf2/src/creatures/EntityUtils.h
end_of_record
TN:
SF:/usr/include/c++/11/bits/stl_iterator_base_funcs.h
DA:98,0
DA:104,0
DA:138,0
DA:141,0
end_of_record
SF:/usr/include/c++/11/bits/basic_string.tcc
FN:206,_ZNSt7__cxx1112basic_stringIcSt11char_traitsIcESaIcEE12_M_constructIPKcEEvT_S8_St20forward_iterator_tag
FNDA:0,_ZNSt7__cxx1112basic_stringIcSt11char_traitsIcESaIcEE12_M_constructIPKcEEvT_S8_St20forward_iterator_tag
DA:206,0
DA:211,0
DA:212,0
DA:215,0
DA:217,0
DA:219,0
DA:220,0
DA:225,0
DA:232,0
DA:233,0
end_of_record
SF:/usr/include/c++/11/ext/new_allocator.h
DA:79,1
DA:82,1
DA:89,1
end_of_record
SF:/usr/include/c++/11/bits/basic_string.h
FN:533,_ZNSt7__cxx1112basic_stringIcSt11char_traitsIcESaIcEEC2IS3_EEPKcRKS3_
FNDA:1,_ZNSt7__cxx1112basic_stringIcSt11char_traitsIcESaIcEEC2IS3_EEPKcRKS3_
DA:158,1
DA:164,1
DA:165,1
DA:186,0
DA:187,0
DA:190,0
DA:191,0
DA:194,0
DA:195,0
DA:198,1
DA:201,1
DA:218,0
DA:219,0
DA:222,0
DA:224,0
DA:225,0
DA:404,0
DA:406,0
DA:533,1
DA:534,1
DA:536,1
DA:539,1
DA:540,1
DA:671,1
DA:672,1
end_of_record
SF:/usr/include/c++/11/bits/allocator.h
DA:156,1
DA:159,1
DA:160,1
DA:174,1
end_of_record
SF:/mnt/c/users/gabci/desktop/nhf2/src/creatures/humans/AnglerMiner.cpp
FN:6,_ZN8creature11AnglerMinerC1EiiNS_13ENTITY_GENDERE
FNDA:1,_ZN8creature11AnglerMinerC1EiiNS_13ENTITY_GENDERE
FN:6,_ZN8creature11AnglerMinerC2EiiNS_13ENTITY_GENDERE
FNDA:0,_ZN8creature11AnglerMinerC2EiiNS_13ENTITY_GENDERE
FN:11,_ZN8creature11AnglerMiner12humanoid_runEf
FNDA:3,_ZN8creature11AnglerMiner12humanoid_runEf
FN:29,_ZN8creature11AnglerMiner13humanoid_walkEf
FNDA:3,_ZN8creature11AnglerMiner13humanoid_walkEf
FN:33,_ZN8creature11AnglerMiner12update_logicER5Worldf
FNDA:4,_ZN8creature11AnglerMiner12update_logicER5Worldf
FN:77,_ZN8creature11AnglerMinerD0Ev
FNDA:1,_ZN8creature11AnglerMinerD0Ev
FN:77,_ZN8creature11AnglerMinerD1Ev
FNDA:1,_ZN8creature11AnglerMinerD1Ev
FN:77,_ZN8creature11AnglerMinerD2Ev
FNDA:0,_ZN8creature11AnglerMinerD2Ev
DA:6,1
DA:7,1
DA:8,1
DA:9,1
DA:6,0
DA:7,0
DA:8,0
DA:9,0
DA:11,3
DA:12,3
DA:13,3
DA:14,3
DA:16,3
DA:17,0
DA:18,0
DA:19,0
DA:21,3
DA:22,3
DA:23,3
DA:24,3
DA:26,3
DA:29,3
DA:30,3
DA:33,4
DA:34,4
DA:36,4
DA:37,1
DA:38,1
DA:39,1
DA:40,0
DA:42,1
DA:43,1
DA:47,0
DA:48,0
DA:49,0
DA:50,3
DA:51,3
DA:52,3
DA:57,0
DA:58,0
DA:59,0
DA:60,0
DA:61,0
DA:62,0
DA:64,0
DA:65,0
DA:67,0
DA:69,0
DA:75,4
DA:77,1
DA:80,1
DA:77,1
DA:78,1
DA:79,1
DA:80,1
DA:77,0
DA:78,0
DA:79,0
DA:80,0
end_of_record
SF:/mnt/c/users/gabci/desktop/nhf2/src/creatures/humans/AnglerMiner.h
end_of_record
SF:/usr/include/c++/11/bits/char_traits.h
DA:356,0
DA:357,0
DA:393,1
DA:396,1
DA:399,1
end_of_record
SF:/usr/include/c++/11/iostream
end_of_record
TN:
SF:/mnt/c/users/gabci/desktop/nhf2/src/creatures/humans/Builder.h
end_of_record
SF:/usr/include/c++/11/bits/basic_string.h
FN:533,_ZNSt7__cxx1112basic_stringIcSt11char_traitsIcESaIcEEC2IS3_EEPKcRKS3_
FNDA:3,_ZNSt7__cxx1112basic_stringIcSt11char_traitsIcESaIcEEC2IS3_EEPKcRKS3_
DA:158,3
DA:164,3
DA:165,3
DA:186,0
DA:187,0
DA:190,3
DA:191,3
DA:194,6
DA:195,3
DA:198,3
DA:201,3
DA:218,0
DA:219,0
DA:222,3
DA:224,3
DA:225,3
DA:404,3
DA:406,3
DA:533,3
DA:534,3
DA:536,3
DA:539,3
DA:540,3
DA:671,3
DA:672,3
end_of_record
SF:/usr/include/c++/11/bits/stl_iterator_base_funcs.h
DA:98,3
DA:104,3
DA:138,3
DA:141,3
end_of_record
SF:/usr/include/c++/11/bits/basic_string.tcc
FN:206,_ZNSt7__cxx1112basic_stringIcSt11char_traitsIcESaIcEE12_M_constructIPKcEEvT_S8_St20forward_iterator_tag
FNDA:3,_ZNSt7__cxx1112basic_stringIcSt11char_traitsIcESaIcEE12_M_constructIPKcEEvT_S8_St20forward_iterator_tag
DA:206,3
DA:211,3
DA:212,0
DA:215,3
DA:217,3
DA:219,0
DA:220,3
DA:225,3
DA:232,3
DA:233,3
end_of_record
SF:/usr/include/c++/11/ext/new_allocator.h
DA:79,3
DA:82,3
DA:89,3
end_of_record
SF:/usr/include/c++/11/bits/char_traits.h
DA:356,3
DA:357,3
DA:393,3
DA:396,3
DA:399,3
end_of_record
SF:/usr/include/c++/11/iostream
end_of_record
SF:/mnt/c/users/gabci/desktop/nhf2/src/creatures/humans/Builder.cpp
FN:6,_ZN8creature7BuilderC2EiiNS_13ENTITY_GENDERE
FNDA:3,_ZN8creature7BuilderC2EiiNS_13ENTITY_GENDERE
FN:11,_ZN8creature7Builder12update_logicER5Worldf
FNDA:4,_ZN8creature7Builder12update_logicER5Worldf
FN:55,_ZN8creature7BuilderD0Ev
FNDA:3,_ZN8creature7BuilderD0Ev
FN:55,_ZN8creature7BuilderD2Ev
FNDA:3,_ZN8creature7BuilderD2Ev
DA:6,3
DA:7,3
DA:8,3
DA:9,3
DA:11,4
DA:12,4
DA:14,4
DA:15,4
DA:16,4
DA:17,1
DA:18,0
DA:20,1
DA:23,1
DA:24,0
DA:25,0
DA:27,0
DA:29,0
DA:31,1
DA:35,0
DA:36,0
DA:37,0
DA:38,0
DA:39,0
DA:40,0
DA:45,0
DA:46,0
DA:47,0
DA:48,0
DA:49,0
DA:53,4
DA:55,3
DA:58,3
DA:55,3
DA:56,3
DA:57,3
DA:58,3
end_of_record
SF:/usr/include/c++/11/bits/allocator.h
DA:156,3
DA:159,3
DA:160,3
DA:174,3
end_of_record
TN:
SF:/usr/include/c++/11/ext/new_allocator.h
DA:79,1
DA:82,1
DA:89,1
end_of_record
SF:/usr/include/c++/11/bits/basic_string.tcc
FN:206,_ZNSt7__cxx1112basic_stringIcSt11char_traitsIcESaIcEE12_M_constructIPKcEEvT_S8_St20forward_iterator_tag
FNDA:0,_ZNSt7__cxx1112basic_stringIcSt11char_traitsIcESaIcEE12_M_constructIPKcEEvT_S8_St20forward_iterator_tag
DA:206,0
DA:211,0
DA:212,0
DA:215,0
DA:217,0
DA:219,0
DA:220,0
DA:225,0
DA:232,0
DA:233,0
end_of_record
SF:/usr/include/c++/11/bits/stl_iterator_base_funcs.h
DA:98,0
DA:104,0
DA:138,0
DA:141,0
end_of_record
SF:/usr/include/c++/11/bits/basic_string.h
FN:533,_ZNSt7__cxx1112basic_stringIcSt11char_traitsIcESaIcEEC2IS3_EEPKcRKS3_
FNDA:1,_ZNSt7__cxx1112basic_stringIcSt11char_traitsIcESaIcEEC2IS3_EEPKcRKS3_
DA:158,1
DA:164,1
DA:165,1
DA:186,0
DA:187,0
DA:190,0
DA:191,0
DA:194,0
DA:195,0
DA:198,1
DA:201,1
DA:218,0
DA:219,0
DA:222,0
DA:224,0
DA:225,0
DA:404,0
DA:406,0
DA:533,1
DA:534,1
DA:536,1
DA:539,1
DA:540,1
DA:671,1
DA:672,1
end_of_record
SF:/mnt/c/users/gabci/desktop/nhf2/src/creatures/humans/Farmer.cpp
FN:6,_ZN8creature6FarmerC2EiiNS_13ENTITY_GENDERE
FNDA:1,_ZN8creature6FarmerC2EiiNS_13ENTITY_GENDERE
FN:11,_ZN8creature6Farmer12update_logicER5Worldf
FNDA:4,_ZN8creature6Farmer12update_logicER5Worldf
FN:53,_ZN8creature6FarmerD0Ev
FNDA:1,_ZN8creature6FarmerD0Ev
FN:53,_ZN8creature6FarmerD2Ev
FNDA:1,_ZN8creature6FarmerD2Ev
DA:6,1
DA:7,1
DA:8,1
DA:9,1
DA:11,4
DA:12,4
DA:14,4
DA:15,1
DA:16,1
DA:17,1
DA:18,1
DA:19,1
DA:20,1
DA:21,1
DA:22,1
DA:24,0
DA:26,1
DA:28,0
DA:32,3
DA:33,3
DA:34,3
DA:35,0
DA:36,0
DA:37,0
DA:42,0
DA:43,0
DA:44,0
DA:45,0
DA:46,0
DA:47,0
DA:51,4
DA:53,1
DA:56,1
DA:53,1
DA:54,1
DA:55,1
DA:56,1
end_of_record
SF:/usr/include/c++/11/bits/allocator.h
DA:156,1
DA:159,1
DA:160,1
DA:174,1
end_of_record
SF:/mnt/c/users/gabci/desktop/nhf2/src/creatures/humans/Farmer.h
end_of_record
SF:/usr/include/c++/11/bits/char_traits.h
DA:356,0
DA:357,0
DA:393,1
DA:396,1
DA:399,1
end_of_record
SF:/usr/include/c++/11/iostream
end_of_record
TN:
SF:/usr/include/c++/11/iostream
end_of_record
SF:/usr/include/c++/11/bits/char_traits.h
DA:356,0
DA:357,0
DA:393,2
DA:396,2
DA:399,2
end_of_record
SF:/usr/include/c++/11/bits/allocator.h
DA:156,2
DA:159,2
DA:160,2
DA:174,2
end_of_record
SF:/usr/include/c++/11/bits/basic_string.h
FN:533,_ZNSt7__cxx1112basic_stringIcSt11char_traitsIcESaIcEEC2IS3_EEPKcRKS3_
FNDA:2,_ZNSt7__cxx1112basic_stringIcSt11char_traitsIcESaIcEEC2IS3_EEPKcRKS3_
DA:158,2
DA:164,2
DA:165,2
DA:186,0
DA:187,0
DA:190,0
DA:191,0
DA:194,0
DA:195,0
DA:198,2
DA:201,2
DA:218,0
DA:219,0
DA:222,0
DA:224,0
DA:225,0
DA:404,0
DA:406,0
DA:533,2
DA:534,2
DA:536,2
DA:539,2
DA:540,2
DA:671,2
DA:672,2
end_of_record
SF:/mnt/c/users/gabci/desktop/nhf2/src/creatures/humans/Fisherman.cpp
FN:6,_ZN8creature9FishermanC1EiiNS_13ENTITY_GENDERE
FNDA:1,_ZN8creature9FishermanC1EiiNS_13ENTITY_GENDERE
FN:6,_ZN8creature9FishermanC2EiiNS_13ENTITY_GENDERE
FNDA:1,_ZN8creature9FishermanC2EiiNS_13ENTITY_GENDERE
FN:11,_ZN8creature9Fisherman11try_fishingER5World
FNDA:1,_ZN8creature9Fisherman11try_fishingER5World
FN:22,_ZN8creature9Fisherman12update_logicER5Worldf
FNDA:4,_ZN8creature9Fisherman12update_logicER5Worldf
FN:51,_ZN8creature9FishermanD0Ev
FNDA:1,_ZN8creature9FishermanD0Ev
FN:51,_ZN8creature9FishermanD1Ev
FNDA:1,_ZN8creature9FishermanD1Ev
FN:51,_ZN8creature9FishermanD2Ev
FNDA:1,_ZN8creature9FishermanD2Ev
DA:6,1
DA:7,1
DA:8,1
DA:9,1
DA:10,1
DA:6,1
DA:7,1
DA:8,1
DA:9,1
DA:10,1
DA:11,1
DA:12,1
DA:13,1
DA:14,1
DA:15,1
DA:17,0
DA:19,1
DA:20,1
DA:22,4
DA:23,4
DA:25,4
DA:26,1
DA:27,1
DA:28,1
DA:31,0
DA:32,0
DA:33,0
DA:34,3
DA:35,3
DA:36,3
DA:41,0
DA:42,0
DA:43,0
DA:44,0
DA:45,0
DA:49,4
DA:51,1
DA:54,1
DA:51,1
DA:52,1
DA:53,1
DA:54,1
DA:51,1
DA:52,1
DA:53,1
DA:54,1
end_of_record
SF:/mnt/c/users/gabci/desktop/nhf2/src/creatures/humans/Fisherman.h
end_of_record
SF:/usr/include/c++/11/ext/new_allocator.h
DA:79,2
DA:82,2
DA:89,2
end_of_record
SF:/usr/include/c++/11/bits/basic_string.tcc
FN:206,_ZNSt7__cxx1112basic_stringIcSt11char_traitsIcESaIcEE12_M_constructIPKcEEvT_S8_St20forward_iterator_tag
FNDA:0,_ZNSt7__cxx1112basic_stringIcSt11char_traitsIcESaIcEE12_M_constructIPKcEEvT_S8_St20forward_iterator_tag
DA:206,0
DA:211,0
DA:212,0
DA:215,0
DA:217,0
DA:219,0
DA:220,0
DA:225,0
DA:232,0
DA:233,0
end_of_record
SF:/usr/include/c++/11/bits/stl_iterator_base_funcs.h
DA:98,0
DA:104,0
DA:138,0
DA:141,0
end_of_record
TN:
SF:/usr/include/c++/11/bits/allocator.h
DA:156,144
DA:159,288
DA:160,288
DA:174,480
end_of_record
SF:/usr/include/c++/11/bits/move.h
DA:104,144
end_of_record
SF:/mnt/c/users/gabci/desktop/nhf2/src/creatures/humans/Human.cpp
FN:7,_ZN8creature5HumanC2Eii
FNDA:32,_ZN8creature5HumanC2Eii
FN:24,_ZN8creature5HumanC2EiiNS_13ENTITY_GENDERE
FNDA:16,_ZN8creature5HumanC2EiiNS_13ENTITY_GENDERE
FN:38,_ZN8creature5Human21get_profession_stringB5cxx11Ev
FNDA:4,_ZN8creature5Human21get_profession_stringB5cxx11Ev
FN:45,_ZN8creature5Human10initializeEii
FNDA:48,_ZN8creature5Human10initializeEii
FN:60,_ZN8creature5Human14select_textureEiii
FNDA:48,_ZN8creature5Human14select_textureEiii
FN:77,_ZN8creature5Human12humanoid_runEf
FNDA:13,_ZN8creature5Human12humanoid_runEf
FN:100,_ZN8creature5Human13humanoid_walkEf
FNDA:9,_ZN8creature5Human13humanoid_walkEf
FN:123,_ZN8creature5Human12update_logicER5Worldf
FNDA:15,_ZN8creature5Human12update_logicER5Worldf
FN:165,_ZN8creature5Human10draw_logicERN2sf12RenderWindowEfii
FNDA:20,_ZN8creature5Human10draw_logicERN2sf12RenderWindowEfii
FN:177,_ZN8creature5Human3dieEv
FNDA:1,_ZN8creature5Human3dieEv
FN:181,_ZNK8creature5Human8get_typeEv
FNDA:8,_ZNK8creature5Human8get_typeEv
FN:185,_ZN8creature5HumanD0Ev
FNDA:32,_ZN8creature5HumanD0Ev
FN:185,_ZN8creature5HumanD2Ev
FNDA:48,_ZN8creature5HumanD2Ev
DA:7,32
DA:8,32
DA:10,32
DA:11,32
DA:12,11
DA:14,21
DA:16,32
DA:18,32
DA:19,32
DA:20,32
DA:21,32
DA:22,32
DA:24,16
DA:25,16
DA:27,16
DA:28,16
DA:29,16
DA:30,2
DA:33,16
DA:34,16
DA:35,16
DA:36,16
DA:37,16
DA:38,4
DA:39,4
DA:40,0
DA:42,4
DA:45,48
DA:46,48
DA:47,48
DA:48,48
DA:49,48
DA:50,48
DA:51,48
DA:52,0
DA:54,48
DA:55,48
DA:56,48
DA:57,48
DA:58,48
DA:60,48
DA:61,48
DA:62,131
DA:64,48
DA:65,48
DA:66,48
DA:67,48
DA:68,48
DA:69,48
DA:70,48
DA:71,48
DA:72,48
DA:74,48
DA:75,48
DA:77,13
DA:78,13
DA:80,1
DA:81,1
DA:82,1
DA:85,12
DA:86,10
DA:88,2
DA:91,12
DA:92,12
DA:94,0
DA:100,9
DA:101,9
DA:103,0
DA:104,0
DA:105,0
DA:108,9
DA:109,9
DA:111,0
DA:114,9
DA:115,9
DA:117,0
DA:123,15
DA:124,15
DA:126,15
DA:127,7
DA:128,7
DA:129,7
DA:130,7
DA:131,1
DA:132,1
DA:133,1
DA:134,1
DA:136,0
DA:139,6
DA:143,7
DA:144,7
DA:145,7
DA:146,0
DA:147,0
DA:148,0
DA:153,1
DA:154,1
DA:155,1
DA:156,1
DA:157,1
DA:160,1
DA:161,1
DA:163,15
DA:165,20
DA:166,20
DA:167,20
DA:168,20
DA:169,20
DA:171,20
DA:172,20
DA:174,20
DA:177,1
DA:178,1
DA:179,1
DA:181,8
DA:182,8
DA:185,32
DA:191,32
DA:185,48
DA:186,48
DA:187,36
DA:188,36
DA:190,48
DA:191,48
end_of_record
SF:/mnt/c/users/gabci/desktop/nhf2/src/creatures/EntityBase.h
end_of_record
SF:/usr/include/c++/11/iostream
end_of_record
SF:/usr/include/c++/11/bits/char_traits.h
DA:356,144
DA:357,0
DA:393,96
DA:396,96
DA:399,96
DA:429,0
DA:431,0
DA:437,0
end_of_record
SF:/mnt/c/users/gabci/desktop/nhf2/src/Textureable.h
end_of_record
SF:/mnt/c/users/gabci/desktop/nhf2/src/Shadowable.h
FN:73,_ZN10ShadowableD0Ev
FNDA:0,_ZN10ShadowableD0Ev
FN:73,_ZN10ShadowableD2Ev
FNDA:0,_ZN10ShadowableD2Ev
DA:73,0
DA:73,0
end_of_record
SF:/mnt/c/users/gabci/desktop/nhf2/src/creatures/humans/Human.h
end_of_record
SF:/mnt/c/users/gabci/desktop/nhf2/src/creatures/Living.h
end_of_record
SF:/usr/include/c++/11/bits/stl_iterator_base_funcs.h
DA:98,0
DA:104,0
DA:138,0
DA:141,0
end_of_record
SF:/usr/include/c++/11/bits/basic_string.tcc
FN:206,_ZNSt7__cxx1112basic_stringIcSt11char_traitsIcESaIcEE12_M_constructIPcEEvT_S7_St20forward_iterator_tag
FNDA:0,_ZNSt7__cxx1112basic_stringIcSt11char_traitsIcESaIcEE12_M_constructIPcEEvT_S7_St20forward_iterator_tag
FN:206,_ZNSt7__cxx1112basic_stringIcSt11char_traitsIcESaIcEE12_M_constructIPKcEEvT_S8_St20forward_iterator_tag
FNDA:0,_ZNSt7__cxx1112basic_stringIcSt11char_traitsIcESaIcEE12_M_constructIPKcEEvT_S8_St20forward_iterator_tag
DA:206,0
DA:211,0
DA:212,0
DA:215,0
DA:217,0
DA:219,0
DA:220,0
DA:225,0
DA:232,0
DA:233,0
DA:206,0
DA:211,0
DA:212,0
DA:215,0
DA:217,0
DA:219,0
DA:220,0
DA:225,0
DA:232,0
DA:233,0
end_of_record
SF:/usr/include/c++/11/ext/new_allocator.h
DA:79,144
DA:82,288
DA:89,480
end_of_record
SF:/usr/include/c++/11/bits/charconv.h
FN:47,_ZNSt8__detail14__to_chars_lenIjEEjT_i
FNDA:48,_ZNSt8__detail14__to_chars_lenIjEEjT_i
FN:72,_ZNSt8__detail18__to_chars_10_implIjEEvPcjT_
FNDA:48,_ZNSt8__detail18__to_chars_10_implIjEEvPcjT_
DA:47,48
DA:52,48
DA:53,48
DA:54,48
DA:55,48
DA:56,0
DA:58,48
DA:59,0
DA:60,0
DA:61,0
DA:62,0
DA:63,0
DA:72,48
DA:83,48
DA:84,48
DA:86,0
DA:87,0
DA:88,0
DA:89,0
DA:90,0
DA:92,48
DA:94,0
DA:95,0
DA:96,0
DA:99,48
DA:100,48
end_of_record
SF:/mnt/c/users/gabci/desktop/nhf2/src/creatures/EntityUtils.h
end_of_record
SF:/usr/include/c++/11/bits/basic_string.h
FN:533,_ZNSt7__cxx1112basic_stringIcSt11char_traitsIcESaIcEEC2IS3_EEPKcRKS3_
FNDA:96,_ZNSt7__cxx1112basic_stringIcSt11char_traitsIcESaIcEEC2IS3_EEPKcRKS3_
FN:6132,_ZStplIcSt11char_traitsIcESaIcEENSt7__cxx1112basic_stringIT_T0_T1_EERKS8_PKS5_
FNDA:288,_ZStplIcSt11char_traitsIcESaIcEENSt7__cxx1112basic_stringIT_T0_T1_EERKS8_PKS5_
FN:6172,_ZStplIcSt11char_traitsIcESaIcEENSt7__cxx1112basic_stringIT_T0_T1_EEOS8_S9_
FNDA:0,_ZStplIcSt11char_traitsIcESaIcEENSt7__cxx1112basic_stringIT_T0_T1_EEOS8_S9_
FN:6206,_ZStplIcSt11char_traitsIcESaIcEENSt7__cxx1112basic_stringIT_T0_T1_EEOS8_PKS5_
FNDA:48,_ZStplIcSt11char_traitsIcESaIcEENSt7__cxx1112basic_stringIT_T0_T1_EEOS8_PKS5_
FN:6212,_ZStplIcSt11char_traitsIcESaIcEENSt7__cxx1112basic_stringIT_T0_T1_EEOS8_S5_
FNDA:96,_ZStplIcSt11char_traitsIcESaIcEENSt7__cxx1112basic_stringIT_T0_T1_EEOS8_S5_
FN:6660,_ZNSt7__cxx119to_stringEi
FNDA:48,_ZNSt7__cxx119to_stringEi
DA:158,624
DA:164,144
DA:165,144
DA:167,144
DA:168,144
DA:186,288
DA:187,0
DA:190,144
DA:191,144
DA:194,336
DA:195,0
DA:198,432
DA:201,144
DA:208,144
DA:211,144
DA:218,144
DA:219,0
DA:222,144
DA:224,144
DA:225,144
DA:229,144
DA:230,144
DA:294,144
DA:295,144
DA:400,0
DA:401,0
DA:404,0
DA:406,0
DA:533,96
DA:534,96
DA:536,96
DA:539,96
DA:540,96
DA:553,48
DA:554,48
DA:555,48
DA:565,144
DA:566,144
DA:568,144
DA:570,0
DA:575,144
DA:576,144
DA:582,144
DA:583,144
DA:584,144
DA:585,0
DA:671,48
DA:672,432
DA:689,48
DA:690,48
DA:920,96
DA:921,96
DA:926,144
DA:927,0
DA:976,0
DA:978,0
DA:1055,48
DA:1059,48
DA:1062,48
DA:1213,0
DA:1214,0
DA:1272,96
DA:1273,96
DA:1660,0
DA:1661,0
DA:1662,0
DA:6132,288
DA:6135,288
DA:6136,288
DA:6137,288
DA:6138,0
DA:6172,0
DA:6179,0
DA:6185,0
DA:6186,0
DA:6187,0
DA:6189,0
DA:6206,48
DA:6208,48
DA:6212,96
DA:6214,96
DA:6660,48
DA:6662,48
DA:6663,48
DA:6664,48
DA:6665,48
DA:6666,48
DA:6667,48
end_of_record
TN:
SF:/mnt/c/users/gabci/desktop/nhf2/src/creatures/humans/King.cpp
FN:6,_ZN8creature4KingC2EiiNS_13ENTITY_GENDERE
FNDA:2,_ZN8creature4KingC2EiiNS_13ENTITY_GENDERE
FN:11,_ZN8creature4King12update_logicER5Worldf
FNDA:4,_ZN8creature4King12update_logicER5Worldf
FN:61,_ZN8creature4KingD0Ev
FNDA:2,_ZN8creature4KingD0Ev
FN:61,_ZN8creature4KingD2Ev
FNDA:2,_ZN8creature4KingD2Ev
DA:6,2
DA:7,2
DA:8,2
DA:9,2
DA:11,4
DA:12,4
DA:14,4
DA:15,1
DA:16,1
DA:17,1
DA:18,1
DA:19,1
DA:21,0
DA:23,1
DA:24,1
DA:26,0
DA:30,0
DA:31,0
DA:32,0
DA:33,0
DA:34,0
DA:35,0
DA:37,0
DA:41,3
DA:42,3
DA:43,3
DA:44,3
DA:45,3
DA:46,3
DA:48,0
DA:59,4
DA:61,2
DA:64,2
DA:61,2
DA:62,2
DA:63,2
DA:64,2
end_of_record
SF:/usr/include/c++/11/bits/basic_string.h
FN:533,_ZNSt7__cxx1112basic_stringIcSt11char_traitsIcESaIcEEC2IS3_EEPKcRKS3_
FNDA:2,_ZNSt7__cxx1112basic_stringIcSt11char_traitsIcESaIcEEC2IS3_EEPKcRKS3_
DA:158,2
DA:164,2
DA:165,2
DA:186,0
DA:187,0
DA:190,2
DA:191,2
DA:194,4
DA:195,2
DA:198,2
DA:201,2
DA:218,0
DA:219,0
DA:222,2
DA:224,2
DA:225,2
DA:404,2
DA:406,2
DA:533,2
DA:534,2
DA:536,2
DA:539,2
DA:540,2
DA:671,2
DA:672,2
end_of_record
SF:/mnt/c/users/gabci/desktop/nhf2/src/creatures/humans/King.h
end_of_record
SF:/usr/include/c++/11/bits/stl_iterator_base_funcs.h
DA:98,2
DA:104,2
DA:138,2
DA:141,2
end_of_record
SF:/usr/include/c++/11/bits/basic_string.tcc
FN:206,_ZNSt7__cxx1112basic_stringIcSt11char_traitsIcESaIcEE12_M_constructIPKcEEvT_S8_St20forward_iterator_tag
FNDA:2,_ZNSt7__cxx1112basic_stringIcSt11char_traitsIcESaIcEE12_M_constructIPKcEEvT_S8_St20forward_iterator_tag
DA:206,2
DA:211,2
DA:212,0
DA:215,2
DA:217,2
DA:219,0
DA:220,2
DA:225,2
DA:232,2
DA:233,2
end_of_record
SF:/usr/include/c++/11/ext/new_allocator.h
DA:79,2
DA:82,2
DA:89,2
end_of_record
SF:/usr/include/c++/11/iostream
end_of_record
SF:/usr/include/c++/11/bits/char_traits.h
DA:356,2
DA:357,2
DA:393,2
DA:396,2
DA:399,2
end_of_record
SF:/usr/include/c++/11/bits/allocator.h
DA:156,2
DA:159,2
DA:160,2
DA:174,2
end_of_record
TN:
SF:/mnt/c/users/gabci/desktop/nhf2/src/creatures/humans/Soldier.cpp
FN:6,_ZN8creature7SoldierC2EiiNS_13ENTITY_GENDERE
FNDA:1,_ZN8creature7SoldierC2EiiNS_13ENTITY_GENDERE
FN:15,_ZN8creature7Soldier12humanoid_runEf
FNDA:3,_ZN8creature7Soldier12humanoid_runEf
FN:46,_ZN8creature7Soldier13humanoid_walkEf
FNDA:0,_ZN8creature7Soldier13humanoid_walkEf
FN:73,_ZN8creature7Soldier9attackingEv
FNDA:0,_ZN8creature7Soldier9attackingEv
FN:100,_ZN8creature7Soldier12update_logicER5Worldf
FNDA:4,_ZN8creature7Soldier12update_logicER5Worldf
FN:148,_ZN8creature7SoldierD0Ev
FNDA:1,_ZN8creature7SoldierD0Ev
FN:148,_ZN8creature7SoldierD2Ev
FNDA:1,_ZN8creature7SoldierD2Ev
DA:6,1
DA:7,1
DA:8,1
DA:9,1
DA:10,1
DA:11,1
DA:13,1
DA:15,3
DA:16,3
DA:17,0
DA:19,3
DA:20,2
DA:22,1
DA:24,3
DA:26,0
DA:27,0
DA:31,3
DA:32,3
DA:34,0
DA:37,3
DA:38,3
DA:40,0
DA:43,3
DA:46,0
DA:47,0
DA:48,0
DA:50,0
DA:51,0
DA:53,0
DA:55,0
DA:56,0
DA:57,0
DA:59,0
DA:60,0
DA:62,0
DA:65,0
DA:66,0
DA:68,0
DA:71,0
DA:73,0
DA:74,0
DA:75,0
DA:77,0
DA:79,0
DA:80,0
DA:82,0
DA:83,0
DA:84,0
DA:85,0
DA:86,0
DA:87,0
DA:88,0
DA:89,0
DA:92,0
DA:93,0
DA:98,0
DA:100,4
DA:101,4
DA:103,4
DA:104,1
DA:105,1
DA:106,1
DA:107,1
DA:110,1
DA:111,0
DA:114,1
DA:115,1
DA:117,0
DA:118,0
DA:119,0
DA:120,0
DA:122,0
DA:124,0
DA:128,3
DA:129,3
DA:130,3
DA:131,0
DA:132,0
DA:133,0
DA:136,0
DA:137,0
DA:138,0
DA:139,0
DA:140,0
DA:141,0
DA:142,0
DA:148,1
DA:152,1
DA:148,1
DA:149,1
DA:150,1
DA:151,1
DA:152,1
end_of_record
SF:/usr/include/c++/11/bits/allocator.h
DA:156,1
DA:159,1
DA:160,1
DA:174,1
end_of_record
SF:/usr/include/c++/11/iostream
end_of_record
SF:/usr/include/c++/11/bits/char_traits.h
DA:356,1
DA:357,1
DA:393,1
DA:396,1
DA:399,1
end_of_record
SF:/mnt/c/users/gabci/desktop/nhf2/src/creatures/humans/Soldier.h
end_of_record
SF:/usr/include/c++/11/bits/stl_iterator_base_funcs.h
DA:98,1
DA:104,1
DA:138,1
DA:141,1
end_of_record
SF:/usr/include/c++/11/bits/basic_string.tcc
FN:206,_ZNSt7__cxx1112basic_stringIcSt11char_traitsIcESaIcEE12_M_constructIPKcEEvT_S8_St20forward_iterator_tag
FNDA:1,_ZNSt7__cxx1112basic_stringIcSt11char_traitsIcESaIcEE12_M_constructIPKcEEvT_S8_St20forward_iterator_tag
DA:206,1
DA:211,1
DA:212,0
DA:215,1
DA:217,1
DA:219,0
DA:220,1
DA:225,1
DA:232,1
DA:233,1
end_of_record
SF:/usr/include/c++/11/ext/new_allocator.h
DA:79,1
DA:82,1
DA:89,1
end_of_record
SF:/usr/include/c++/11/bits/basic_string.h
FN:533,_ZNSt7__cxx1112basic_stringIcSt11char_traitsIcESaIcEEC2IS3_EEPKcRKS3_
FNDA:1,_ZNSt7__cxx1112basic_stringIcSt11char_traitsIcESaIcEEC2IS3_EEPKcRKS3_
DA:158,1
DA:164,1
DA:165,1
DA:186,0
DA:187,0
DA:190,1
DA:191,1
DA:194,2
DA:195,1
DA:198,1
DA:201,1
DA:218,0
DA:219,0
DA:222,1
DA:224,1
DA:225,1
DA:404,1
DA:406,1
DA:533,1
DA:534,1
DA:536,1
DA:539,1
DA:540,1
DA:671,1
DA:672,1
end_of_record
TN:
SF:/usr/include/c++/11/ext/new_allocator.h
DA:79,3
DA:82,3
DA:89,3
end_of_record
SF:/usr/include/c++/11/bits/basic_string.tcc
FN:206,_ZNSt7__cxx1112basic_stringIcSt11char_traitsIcESaIcEE12_M_constructIPKcEEvT_S8_St20forward_iterator_tag
FNDA:0,_ZNSt7__cxx1112basic_stringIcSt11char_traitsIcESaIcEE12_M_constructIPKcEEvT_S8_St20forward_iterator_tag
DA:206,0
DA:211,0
DA:212,0
DA:215,0
DA:217,0
DA:219,0
DA:220,0
DA:225,0
DA:232,0
DA:233,0
end_of_record
SF:/usr/include/c++/11/bits/stl_iterator_base_funcs.h
DA:98,0
DA:104,0
DA:138,0
DA:141,0
end_of_record
SF:/mnt/c/users/gabci/desktop/nhf2/src/creatures/humans/Stonemason.cpp
FN:6,_ZN8creature10StonemasonC1EiiNS_13ENTITY_GENDERE
FNDA:2,_ZN8creature10StonemasonC1EiiNS_13ENTITY_GENDERE
FN:6,_ZN8creature10StonemasonC2EiiNS_13ENTITY_GENDERE
FNDA:1,_ZN8creature10StonemasonC2EiiNS_13ENTITY_GENDERE
FN:11,_ZN8creature10Stonemason8try_mineER5World
FNDA:2,_ZN8creature10Stonemason8try_mineER5World
FN:40,_ZN8creature10Stonemason12update_logicER5Worldf
FNDA:4,_ZN8creature10Stonemason12update_logicER5Worldf
FN:74,_ZN8creature10StonemasonD0Ev
FNDA:2,_ZN8creature10StonemasonD0Ev
FN:74,_ZN8creature10StonemasonD1Ev
FNDA:2,_ZN8creature10StonemasonD1Ev
FN:74,_ZN8creature10StonemasonD2Ev
FNDA:1,_ZN8creature10StonemasonD2Ev
DA:6,2
DA:7,2
DA:8,2
DA:9,2
DA:10,2
DA:6,1
DA:7,1
DA:8,1
DA:9,1
DA:10,1
DA:11,2
DA:12,2
DA:13,2
DA:14,2
DA:15,2
DA:16,2
DA:17,2
DA:19,2
DA:20,2
DA:21,2
DA:22,2
DA:23,2
DA:24,2
DA:26,0
DA:28,2
DA:29,0
DA:31,2
DA:35,0
DA:38,2
DA:40,4
DA:41,4
DA:43,4
DA:44,1
DA:45,1
DA:46,1
DA:47,0
DA:48,0
DA:49,0
DA:50,3
DA:51,3
DA:52,3
DA:57,0
DA:58,0
DA:59,0
DA:60,0
DA:62,0
DA:63,0
DA:65,0
DA:68,0
DA:72,4
DA:74,2
DA:77,2
DA:74,2
DA:75,2
DA:76,2
DA:77,2
DA:74,1
DA:75,1
DA:76,1
DA:77,1
end_of_record
SF:/usr/include/c++/11/bits/basic_string.h
FN:533,_ZNSt7__cxx1112basic_stringIcSt11char_traitsIcESaIcEEC2IS3_EEPKcRKS3_
FNDA:3,_ZNSt7__cxx1112basic_stringIcSt11char_traitsIcESaIcEEC2IS3_EEPKcRKS3_
DA:158,3
DA:164,3
DA:165,3
DA:186,0
DA:187,0
DA:190,0
DA:191,0
DA:194,0
DA:195,0
DA:198,3
DA:201,3
DA:218,0
DA:219,0
DA:222,0
DA:224,0
DA:225,0
DA:404,0
DA:406,0
DA:533,3
DA:534,3
DA:536,3
DA:539,3
DA:540,3
DA:671,3
DA:672,3
end_of_record
SF:/mnt/c/users/gabci/desktop/nhf2/src/creatures/humans/Stonemason.h
end_of_record
SF:/usr/include/c++/11/bits/allocator.h
DA:156,3
DA:159,3
DA:160,3
DA:174,3
end_of_record
SF:/usr/include/c++/11/bits/char_traits.h
DA:356,0
DA:357,0
DA:393,3
DA:396,3
DA:399,3
end_of_record
SF:/usr/include/c++/11/iostream
end_of_record
TN:
SF:/usr/include/c++/11/bits/allocator.h
DA:156,1
DA:159,1
DA:160,1
DA:174,1
end_of_record
SF:/mnt/c/users/gabci/desktop/nhf2/src/creatures/humans/Woodcutter.cpp
FN:6,_ZN8creature10WoodcutterC2EiiNS_13ENTITY_GENDERE
FNDA:1,_ZN8creature10WoodcutterC2EiiNS_13ENTITY_GENDERE
FN:11,_ZN8creature10Woodcutter12update_logicER5Worldf
FNDA:4,_ZN8creature10Woodcutter12update_logicER5Worldf
FN:53,_ZN8creature10WoodcutterD0Ev
FNDA:1,_ZN8creature10WoodcutterD0Ev
FN:53,_ZN8creature10WoodcutterD2Ev
FNDA:1,_ZN8creature10WoodcutterD2Ev
DA:6,1
DA:7,1
DA:8,1
DA:9,1
DA:11,4
DA:12,4
DA:14,4
DA:15,1
DA:16,1
DA:17,1
DA:18,1
DA:19,1
DA:20,1
DA:21,1
DA:22,1
DA:24,0
DA:26,1
DA:28,0
DA:32,3
DA:33,3
DA:34,3
DA:35,0
DA:36,0
DA:37,0
DA:42,0
DA:43,0
DA:44,0
DA:45,0
DA:46,0
DA:47,0
DA:51,4
DA:53,1
DA:56,1
DA:53,1
DA:54,1
DA:55,1
DA:56,1
end_of_record
SF:/usr/include/c++/11/bits/char_traits.h
DA:356,0
DA:357,0
DA:393,1
DA:396,1
DA:399,1
end_of_record
SF:/usr/include/c++/11/iostream
end_of_record
SF:/usr/include/c++/11/bits/stl_iterator_base_funcs.h
DA:98,0
DA:104,0
DA:138,0
DA:141,0
end_of_record
SF:/usr/include/c++/11/bits/basic_string.tcc
FN:206,_ZNSt7__cxx1112basic_stringIcSt11char_traitsIcESaIcEE12_M_constructIPKcEEvT_S8_St20forward_iterator_tag
FNDA:0,_ZNSt7__cxx1112basic_stringIcSt11char_traitsIcESaIcEE12_M_constructIPKcEEvT_S8_St20forward_iterator_tag
DA:206,0
DA:211,0
DA:212,0
DA:215,0
DA:217,0
DA:219,0
DA:220,0
DA:225,0
DA:232,0
DA:233,0
end_of_record
SF:/usr/include/c++/11/ext/new_allocator.h
DA:79,1
DA:82,1
DA:89,1
end_of_record
SF:/mnt/c/users/gabci/desktop/nhf2/src/creatures/humans/Woodcutter.h
end_of_record
SF:/usr/include/c++/11/bits/basic_string.h
FN:533,_ZNSt7__cxx1112basic_stringIcSt11char_traitsIcESaIcEEC2IS3_EEPKcRKS3_
FNDA:1,_ZNSt7__cxx1112basic_stringIcSt11char_traitsIcESaIcEEC2IS3_EEPKcRKS3_
DA:158,1
DA:164,1
DA:165,1
DA:186,0
DA:187,0
DA:190,0
DA:191,0
DA:194,0
DA:195,0
DA:198,1
DA:201,1
DA:218,0
DA:219,0
DA:222,0
DA:224,0
DA:225,0
DA:404,0
DA:406,0
DA:533,1
DA:534,1
DA:536,1
DA:539,1
DA:540,1
DA:671,1
DA:672,1
end_of_record
TN:
SF:/mnt/c/users/gabci/desktop/nhf2/src/Shadowable.h
FN:73,_ZN10ShadowableD0Ev
FNDA:0,_ZN10ShadowableD0Ev
FN:73,_ZN10ShadowableD2Ev
FNDA:0,_ZN10ShadowableD2Ev
DA:73,0
DA:73,0
DA:73,147
end_of_record
SF:/mnt/c/users/gabci/desktop/nhf2/src/Textureable.h
DA:28,147
end_of_record
SF:/mnt/c/users/gabci/desktop/nhf2/src/creatures/Living.cpp
FN:5,_ZN8creature6Living10setTextureERKNSt7__cxx1112basic_stringIcSt11char_traitsIcESaIcEEE
FNDA:172,_ZN8creature6Living10setTextureERKNSt7__cxx1112basic_stringIcSt11char_traitsIcESaIcEEE
FN:16,_ZN8creature6Living12setTheShadowERKNSt7__cxx1112basic_stringIcSt11char_traitsIcESaIcEEE
FNDA:148,_ZN8creature6Living12setTheShadowERKNSt7__cxx1112basic_stringIcSt11char_traitsIcESaIcEEE
FN:26,_ZN8creature6Living9look_leftEv
FNDA:164,_ZN8creature6Living9look_leftEv
FN:31,_ZN8creature6Living10look_rightEv
FNDA:20,_ZN8creature6Living10look_rightEv
FN:37,_ZN8creature6Living11setPositionEdd
FNDA:218,_ZN8creature6Living11setPositionEdd
FN:47,_ZN8creature6Living21init_spritesheet_dataEid
FNDA:148,_ZN8creature6Living21init_spritesheet_dataEid
FN:53,_ZN8creature6Living18update_spritesheetEf
FNDA:69,_ZN8creature6Living18update_spritesheetEf
FN:80,_ZN8creature6Living4drawERN2sf12RenderWindowE
FNDA:68,_ZN8creature6Living4drawERN2sf12RenderWindowE
FN:84,_ZN8creature6Living11needs_drawnEv
FNDA:71,_ZN8creature6Living11needs_drawnEv
FN:95,_ZNK8creature6Living9get_widthEv
FNDA:19,_ZNK8creature6Living9get_widthEv
FN:99,_ZN8creature6Living12shadow_logicERN2sf12RenderWindowEfii
FNDA:70,_ZN8creature6Living12shadow_logicERN2sf12RenderWindowEfii
FN:105,_ZN8creature6Living6damageEPS0_i
FNDA:1,_ZN8creature6Living6damageEPS0_i
FN:117,_ZN8creature6LivingD2Ev
FNDA:147,_ZN8creature6LivingD2Ev
FN:117,_ZN8creature6LivingD0Ev
FNDA:0,_ZN8creature6LivingD0Ev
FN:124,_ZN8creature6Living9set_stateENS_11LIVINGSTATEE
FNDA:171,_ZN8creature6Living9set_stateENS_11LIVINGSTATEE
FN:150,_ZN8creature6Living8retargetEPS0_
FNDA:0,_ZN8creature6Living8retargetEPS0_
FN:153,_ZNK8creature6Living13check_aggroedEv
FNDA:16,_ZNK8creature6Living13check_aggroedEv
DA:5,172
DA:7,172
DA:9,172
DA:13,172
DA:14,172
DA:16,148
DA:18,148
DA:19,148
DA:20,148
DA:23,148
DA:26,164
DA:27,164
DA:28,164
DA:29,164
DA:30,164
DA:31,20
DA:32,20
DA:33,20
DA:34,20
DA:35,20
DA:37,218
DA:38,218
DA:39,218
DA:40,19
DA:43,218
DA:45,218
DA:47,148
DA:48,148
DA:49,148
DA:50,148
DA:51,148
DA:53,69
DA:54,69
DA:55,0
DA:56,0
DA:58,69
DA:59,0
DA:61,0
DA:62,0
DA:64,0
DA:66,69
DA:68,69
DA:70,69
DA:71,69
DA:73,69
DA:74,69
DA:76,69
DA:78,69
DA:80,68
DA:81,68
DA:82,68
DA:84,71
DA:85,71
DA:86,71
DA:88,71
DA:89,71
DA:90,69
DA:95,19
DA:97,19
DA:99,70
DA:100,70
DA:101,70
DA:102,70
DA:103,70
DA:105,1
DA:106,1
DA:107,1
DA:108,1
DA:109,1
DA:111,1
DA:112,0
DA:115,1
DA:117,0
DA:122,0
DA:117,147
DA:118,147
DA:119,0
DA:122,147
DA:124,171
DA:125,171
DA:126,171
DA:127,148
DA:128,148
DA:129,148
DA:130,10
DA:131,10
DA:132,10
DA:133,6
DA:134,6
DA:135,6
DA:136,6
DA:137,6
DA:138,6
DA:139,6
DA:140,0
DA:141,0
DA:142,0
DA:144,1
DA:145,1
DA:146,1
DA:148,171
DA:150,0
DA:151,0
DA:152,0
DA:153,16
DA:154,16
end_of_record
SF:/mnt/c/users/gabci/desktop/nhf2/src/creatures/Living.h
end_of_record
SF:/usr/include/c++/11/bits/stl_algo.h
DA:3656,0
DA:3658,0
DA:3659,0
end_of_record
SF:/usr/include/c++/11/iostream
end_of_record
TN:
SF:/usr/include/c++/11/bits/stl_iterator_base_funcs.h
DA:98,583654
DA:104,583654
DA:138,583654
DA:141,583654
end_of_record
SF:/usr/include/c++/11/ext/new_allocator.h
FN:103,_ZN9__gnu_cxx13new_allocatorIPNSt8__detail15_Hash_node_baseEE8allocateEmPKv
FNDA:3,_ZN9__gnu_cxx13new_allocatorIPNSt8__detail15_Hash_node_baseEE8allocateEmPKv
FN:103,_ZN9__gnu_cxx13new_allocatorIPN8minerals17ResourceStructureEE8allocateEmPKv
FNDA:114,_ZN9__gnu_cxx13new_allocatorIPN8minerals17ResourceStructureEE8allocateEmPKv
FN:103,_ZN9__gnu_cxx13new_allocatorINSt8__detail10_Hash_nodeISt4pairIKiSt8functionIFbR5WorldRKN2sf8Vector2iEEEELb0EEEE8allocateEmPKv
FNDA:30,_ZN9__gnu_cxx13new_allocatorINSt8__detail10_Hash_nodeISt4pairIKiSt8functionIFbR5WorldRKN2sf8Vector2iEEEELb0EEEE8allocateEmPKv
DA:79,9
DA:82,36672
DA:89,0
DA:103,3
DA:111,3
DA:115,0
DA:116,0
DA:117,0
DA:127,3
DA:103,114
DA:111,114
DA:115,0
DA:116,0
DA:117,0
DA:127,114
DA:103,30
DA:111,30
DA:115,0
DA:116,0
DA:117,0
DA:127,30
DA:132,128
DA:145,128
DA:160,410
DA:162,380
DA:166,30
DA:168,30
end_of_record
SF:/usr/include/c++/11/tuple
DA:192,30
DA:193,30
DA:233,30
DA:424,30
DA:434,30
DA:435,30
DA:454,30
DA:456,30
DA:727,30
DA:729,30
DA:756,30
DA:1377,30
DA:1378,30
DA:1393,30
DA:1394,30
DA:1804,30
DA:1809,30
DA:1816,30
DA:1819,30
DA:1820,30
end_of_record
SF:/mnt/c/users/gabci/desktop/nhf2/src/EntityPlacer.cpp
FN:3,_ZN14ObjectRegistry13register_typeEiSt8functionIFbR5WorldRKN2sf8Vector2iEEE
FNDA:30,_ZN14ObjectRegistry13register_typeEiSt8functionIFbR5WorldRKN2sf8Vector2iEEE
FN:7,_ZNK14ObjectRegistry5spawnEiR5WorldRN2sf8Vector2iE
FNDA:0,_ZNK14ObjectRegistry5spawnEiR5WorldRN2sf8Vector2iE
FN:21,_ZN12EntityPlacerC2Ev
FNDA:3,_ZN12EntityPlacerC2Ev
FN:28,_ZN12EntityPlacer13setup_factoryEv
FNDA:3,_ZN12EntityPlacer13setup_factoryEv
FN:29,_ZZN12EntityPlacer13setup_factoryEvENKUlR5WorldN2sf8Vector2iEE_clES1_S3_
FNDA:0,_ZZN12EntityPlacer13setup_factoryEvENKUlR5WorldN2sf8Vector2iEE_clES1_S3_
FN:33,_ZZN12EntityPlacer13setup_factoryEvENKUlR5WorldN2sf8Vector2iEE0_clES1_S3_
FNDA:0,_ZZN12EntityPlacer13setup_factoryEvENKUlR5WorldN2sf8Vector2iEE0_clES1_S3_
FN:39,_ZZN12EntityPlacer13setup_factoryEvENKUlR5WorldN2sf8Vector2iEE1_clES1_S3_
FNDA:0,_ZZN12EntityPlacer13setup_factoryEvENKUlR5WorldN2sf8Vector2iEE1_clES1_S3_
FN:45,_ZZN12EntityPlacer13setup_factoryEvENKUlR5WorldN2sf8Vector2iEE2_clES1_S3_
FNDA:0,_ZZN12EntityPlacer13setup_factoryEvENKUlR5WorldN2sf8Vector2iEE2_clES1_S3_
FN:51,_ZZN12EntityPlacer13setup_factoryEvENKUlR5WorldN2sf8Vector2iEE3_clES1_S3_
FNDA:0,_ZZN12EntityPlacer13setup_factoryEvENKUlR5WorldN2sf8Vector2iEE3_clES1_S3_
FN:77,_ZZN12EntityPlacer13setup_factoryEvENKUlR5WorldN2sf8Vector2iEE8_clES1_S3_
FNDA:0,_ZZN12EntityPlacer13setup_factoryEvENKUlR5WorldN2sf8Vector2iEE8_clES1_S3_
FN:84,_ZN12EntityPlacer16try_place_entityERN2sf8Vector2iER5World
FNDA:0,_ZN12EntityPlacer16try_place_entityERN2sf8Vector2iER5World
FN:99,_ZN12EntityPlacer14toggle_placingEv
FNDA:2,_ZN12EntityPlacer14toggle_placingEv
FN:103,_ZN12EntityPlacer13select_entityEi
FNDA:3,_ZN12EntityPlacer13select_entityEi
FN:110,_ZN12EntityPlacer11reset_mouseEv
FNDA:13,_ZN12EntityPlacer11reset_mouseEv
DA:3,30
DA:4,30
DA:5,30
DA:7,0
DA:8,0
DA:9,0
DA:10,0
DA:12,0
DA:13,0
DA:14,0
DA:17,0
DA:21,3
DA:22,3
DA:23,3
DA:24,3
DA:25,3
DA:26,3
DA:28,3
DA:29,3
DA:30,0
DA:33,3
DA:34,0
DA:35,0
DA:36,0
DA:39,3
DA:40,0
DA:41,0
DA:42,0
DA:45,3
DA:46,0
DA:47,0
DA:48,0
DA:51,3
DA:52,0
DA:53,0
DA:54,0
DA:57,3
DA:58,0
DA:59,0
DA:62,3
DA:63,0
DA:64,0
DA:67,3
DA:68,0
DA:69,0
DA:72,3
DA:73,0
DA:74,0
DA:77,3
DA:78,0
DA:81,3
DA:84,0
DA:85,0
DA:86,0
DA:87,0
DA:91,0
DA:92,0
DA:93,0
DA:94,0
DA:99,2
DA:100,2
DA:101,2
DA:103,3
DA:104,3
DA:105,1
DA:107,2
DA:108,2
DA:110,13
DA:111,13
DA:112,13
end_of_record
SF:/usr/include/c++/11/bits/charconv.h
FN:47,_ZNSt8__detail14__to_chars_lenIjEEjT_i
FNDA:0,_ZNSt8__detail14__to_chars_lenIjEEjT_i
FN:72,_ZNSt8__detail18__to_chars_10_implIjEEvPcjT_
FNDA:6255,_ZNSt8__detail18__to_chars_10_implIjEEvPcjT_
DA:47,0
DA:52,0
DA:53,0
DA:54,0
DA:55,0
DA:56,0
DA:58,0
DA:59,0
DA:60,0
DA:61,0
DA:62,0
DA:63,0
DA:72,6255
DA:83,6255
DA:84,8165
DA:86,1910
DA:87,1910
DA:88,1910
DA:89,1910
DA:90,1910
DA:92,6255
DA:94,620
DA:95,620
DA:96,620
DA:99,5635
DA:100,6255
end_of_record
SF:/usr/include/c++/11/bits/functional_hash.h
DA:154,57
end_of_record
SF:/mnt/c/users/gabci/desktop/nhf2/src/World.hpp
FN:160,_ZN9WorldBase18spawn_structure_atIN8minerals5StoneEEEvii
FNDA:0,_ZN9WorldBase18spawn_structure_atIN8minerals5StoneEEEvii
FN:160,_ZN9WorldBase18spawn_structure_atIN8minerals4TreeEEEvii
FNDA:0,_ZN9WorldBase18spawn_structure_atIN8minerals4TreeEEEvii
FN:160,_ZN9WorldBase18spawn_structure_atIN8minerals4IronEEEvii
FNDA:0,_ZN9WorldBase18spawn_structure_atIN8minerals4IronEEEvii
FN:160,_ZN9WorldBase18spawn_structure_atIN8minerals9BerryBushEEEvii
FNDA:0,_ZN9WorldBase18spawn_structure_atIN8minerals9BerryBushEEEvii
DA:160,0
DA:161,0
DA:162,0
DA:160,0
DA:161,0
DA:162,0
DA:160,0
DA:161,0
DA:162,0
DA:160,0
DA:161,0
DA:162,0
end_of_record
SF:/usr/include/c++/11/bits/alloc_traits.h
DA:463,147
DA:464,147
DA:495,128
DA:496,95
DA:511,410
DA:516,380
DA:531,30
DA:535,30
end_of_record
SF:/usr/include/c++/11/bits/move.h
DA:77,60
DA:104,36672
DA:196,30
DA:204,30
DA:205,30
DA:206,30
end_of_record
SF:/usr/include/c++/11/bits/unordered_map.h
DA:102,0
DA:141,3
DA:356,0
DA:357,0
DA:879,0
DA:880,0
DA:979,30
DA:980,30
end_of_record
SF:/usr/include/c++/11/ext/aligned_buffer.h
DA:104,60
DA:110,27
DA:115,60
end_of_record
SF:/usr/include/c++/11/bits/hashtable.h
FN:308,_ZNSt10_HashtableIiSt4pairIKiSt8functionIFbR5WorldRKN2sf8Vector2iEEEESaISB_ENSt8__detail10_Select1stESt8equal_toIiESt4hashIiENSD_18_Mod_range_hashingENSD_20_Default_ranged_hashENSD_20_Prime_rehash_policyENSD_17_Hashtable_traitsILb0ELb0ELb1EEEE12_Scoped_nodeD2Ev
FNDA:30,_ZNSt10_HashtableIiSt4pairIKiSt8functionIFbR5WorldRKN2sf8Vector2iEEEESaISB_ENSt8__detail10_Select1stESt8equal_toIiESt4hashIiENSD_18_Mod_range_hashingENSD_20_Default_ranged_hashENSD_20_Prime_rehash_policyENSD_17_Hashtable_traitsILb0ELb0ELb1EEEE12_Scoped_nodeD2Ev
FN:453,_ZNSt10_HashtableIiSt4pairIKiSt8functionIFbvEEESaIS5_ENSt8__detail10_Select1stESt8equal_toIiESt4hashIiENS7_18_Mod_range_hashingENS7_20_Default_ranged_hashENS7_20_Prime_rehash_policyENS7_17_Hashtable_traitsILb0ELb0ELb1EEEE21_M_deallocate_bucketsEv
FNDA:3,_ZNSt10_HashtableIiSt4pairIKiSt8functionIFbvEEESaIS5_ENSt8__detail10_Select1stESt8equal_toIiESt4hashIiENS7_18_Mod_range_hashingENS7_20_Default_ranged_hashENS7_20_Prime_rehash_policyENS7_17_Hashtable_traitsILb0ELb0ELb1EEEE21_M_deallocate_bucketsEv
FN:453,_ZNSt10_HashtableIiSt4pairIKiSt8functionIFbR5WorldRKN2sf8Vector2iEEEESaISB_ENSt8__detail10_Select1stESt8equal_toIiESt4hashIiENSD_18_Mod_range_hashingENSD_20_Default_ranged_hashENSD_20_Prime_rehash_policyENSD_17_Hashtable_traitsILb0ELb0ELb1EEEE21_M_deallocate_bucketsEv
FNDA:6,_ZNSt10_HashtableIiSt4pairIKiSt8functionIFbR5WorldRKN2sf8Vector2iEEEESaISB_ENSt8__detail10_Select1stESt8equal_toIiESt4hashIiENSD_18_Mod_range_hashingENSD_20_Default_ranged_hashENSD_20_Prime_rehash_policyENSD_17_Hashtable_traitsILb0ELb0ELb1EEEE21_M_deallocate_bucketsEv
FN:1528,_ZNSt10_HashtableIiSt4pairIKiSt8functionIFbvEEESaIS5_ENSt8__detail10_Select1stESt8equal_toIiESt4hashIiENS7_18_Mod_range_hashingENS7_20_Default_ranged_hashENS7_20_Prime_rehash_policyENS7_17_Hashtable_traitsILb0ELb0ELb1EEEED2Ev
FNDA:3,_ZNSt10_HashtableIiSt4pairIKiSt8functionIFbvEEESaIS5_ENSt8__detail10_Select1stESt8equal_toIiESt4hashIiENS7_18_Mod_range_hashingENS7_20_Default_ranged_hashENS7_20_Prime_rehash_policyENS7_17_Hashtable_traitsILb0ELb0ELb1EEEED2Ev
FN:1528,_ZNSt10_HashtableIiSt4pairIKiSt8functionIFbR5WorldRKN2sf8Vector2iEEEESaISB_ENSt8__detail10_Select1stESt8equal_toIiESt4hashIiENSD_18_Mod_range_hashingENSD_20_Default_ranged_hashENSD_20_Prime_rehash_policyENSD_17_Hashtable_traitsILb0ELb0ELb1EEEED2Ev
FNDA:3,_ZNSt10_HashtableIiSt4pairIKiSt8functionIFbR5WorldRKN2sf8Vector2iEEEESaISB_ENSt8__detail10_Select1stESt8equal_toIiESt4hashIiENSD_18_Mod_range_hashingENSD_20_Default_ranged_hashENSD_20_Prime_rehash_policyENSD_17_Hashtable_traitsILb0ELb0ELb1EEEED2Ev
FN:1603,_ZNKSt10_HashtableIiSt4pairIKiSt8functionIFbR5WorldRKN2sf8Vector2iEEEESaISB_ENSt8__detail10_Select1stESt8equal_toIiESt4hashIiENSD_18_Mod_range_hashingENSD_20_Default_ranged_hashENSD_20_Prime_rehash_policyENSD_17_Hashtable_traitsILb0ELb0ELb1EEEE4findERS1_
FNDA:0,_ZNKSt10_HashtableIiSt4pairIKiSt8functionIFbR5WorldRKN2sf8Vector2iEEEESaISB_ENSt8__detail10_Select1stESt8equal_toIiESt4hashIiENSD_18_Mod_range_hashingENSD_20_Default_ranged_hashENSD_20_Prime_rehash_policyENSD_17_Hashtable_traitsILb0ELb0ELb1EEEE4findERS1_
FN:1827,_ZNKSt10_HashtableIiSt4pairIKiSt8functionIFbR5WorldRKN2sf8Vector2iEEEESaISB_ENSt8__detail10_Select1stESt8equal_toIiESt4hashIiENSD_18_Mod_range_hashingENSD_20_Default_ranged_hashENSD_20_Prime_rehash_policyENSD_17_Hashtable_traitsILb0ELb0ELb1EEEE19_M_find_before_nodeEmRS1_m
FNDA:30,_ZNKSt10_HashtableIiSt4pairIKiSt8functionIFbR5WorldRKN2sf8Vector2iEEEESaISB_ENSt8__detail10_Select1stESt8equal_toIiESt4hashIiENSD_18_Mod_range_hashingENSD_20_Default_ranged_hashENSD_20_Prime_rehash_policyENSD_17_Hashtable_traitsILb0ELb0ELb1EEEE19_M_find_before_nodeEmRS1_m
FN:1886,_ZNSt10_HashtableIiSt4pairIKiSt8functionIFbR5WorldRKN2sf8Vector2iEEEESaISB_ENSt8__detail10_Select1stESt8equal_toIiESt4hashIiENSD_18_Mod_range_hashingENSD_20_Default_ranged_hashENSD_20_Prime_rehash_policyENSD_17_Hashtable_traitsILb0ELb0ELb1EEEE22_M_insert_bucket_beginEmPNSD_10_Hash_nodeISB_Lb0EEE
FNDA:30,_ZNSt10_HashtableIiSt4pairIKiSt8functionIFbR5WorldRKN2sf8Vector2iEEEESaISB_ENSt8__detail10_Select1stESt8equal_toIiESt4hashIiENSD_18_Mod_range_hashingENSD_20_Default_ranged_hashENSD_20_Prime_rehash_policyENSD_17_Hashtable_traitsILb0ELb0ELb1EEEE22_M_insert_bucket_beginEmPNSD_10_Hash_nodeISB_Lb0EEE
FN:2008,_ZNSt10_HashtableIiSt4pairIKiSt8functionIFbR5WorldRKN2sf8Vector2iEEEESaISB_ENSt8__detail10_Select1stESt8equal_toIiESt4hashIiENSD_18_Mod_range_hashingENSD_20_Default_ranged_hashENSD_20_Prime_rehash_policyENSD_17_Hashtable_traitsILb0ELb0ELb1EEEE21_M_insert_unique_nodeEmmPNSD_10_Hash_nodeISB_Lb0EEEm
FNDA:30,_ZNSt10_HashtableIiSt4pairIKiSt8functionIFbR5WorldRKN2sf8Vector2iEEEESaISB_ENSt8__detail10_Select1stESt8equal_toIiESt4hashIiENSD_18_Mod_range_hashingENSD_20_Default_ranged_hashENSD_20_Prime_rehash_policyENSD_17_Hashtable_traitsILb0ELb0ELb1EEEE21_M_insert_unique_nodeEmmPNSD_10_Hash_nodeISB_Lb0EEEm
FN:2316,_ZNSt10_HashtableIiSt4pairIKiSt8functionIFbvEEESaIS5_ENSt8__detail10_Select1stESt8equal_toIiESt4hashIiENS7_18_Mod_range_hashingENS7_20_Default_ranged_hashENS7_20_Prime_rehash_policyENS7_17_Hashtable_traitsILb0ELb0ELb1EEEE5clearEv
FNDA:3,_ZNSt10_HashtableIiSt4pairIKiSt8functionIFbvEEESaIS5_ENSt8__detail10_Select1stESt8equal_toIiESt4hashIiENS7_18_Mod_range_hashingENS7_20_Default_ranged_hashENS7_20_Prime_rehash_policyENS7_17_Hashtable_traitsILb0ELb0ELb1EEEE5clearEv
FN:2316,_ZNSt10_HashtableIiSt4pairIKiSt8functionIFbR5WorldRKN2sf8Vector2iEEEESaISB_ENSt8__detail10_Select1stESt8equal_toIiESt4hashIiENSD_18_Mod_range_hashingENSD_20_Default_ranged_hashENSD_20_Prime_rehash_policyENSD_17_Hashtable_traitsILb0ELb0ELb1EEEE5clearEv
FNDA:3,_ZNSt10_HashtableIiSt4pairIKiSt8functionIFbR5WorldRKN2sf8Vector2iEEEESaISB_ENSt8__detail10_Select1stESt8equal_toIiESt4hashIiENSD_18_Mod_range_hashingENSD_20_Default_ranged_hashENSD_20_Prime_rehash_policyENSD_17_Hashtable_traitsILb0ELb0ELb1EEEE5clearEv
FN:2355,_ZNSt10_HashtableIiSt4pairIKiSt8functionIFbR5WorldRKN2sf8Vector2iEEEESaISB_ENSt8__detail10_Select1stESt8equal_toIiESt4hashIiENSD_18_Mod_range_hashingENSD_20_Default_ranged_hashENSD_20_Prime_rehash_policyENSD_17_Hashtable_traitsILb0ELb0ELb1EEEE9_M_rehashEmRKm
FNDA:3,_ZNSt10_HashtableIiSt4pairIKiSt8functionIFbR5WorldRKN2sf8Vector2iEEEESaISB_ENSt8__detail10_Select1stESt8equal_toIiESt4hashIiENSD_18_Mod_range_hashingENSD_20_Default_ranged_hashENSD_20_Prime_rehash_policyENSD_17_Hashtable_traitsILb0ELb0ELb1EEEE9_M_rehashEmRKm
FN:2378,_ZNSt10_HashtableIiSt4pairIKiSt8functionIFbR5WorldRKN2sf8Vector2iEEEESaISB_ENSt8__detail10_Select1stESt8equal_toIiESt4hashIiENSD_18_Mod_range_hashingENSD_20_Default_ranged_hashENSD_20_Prime_rehash_policyENSD_17_Hashtable_traitsILb0ELb0ELb1EEEE13_M_rehash_auxEmSt17integral_constantIbLb1EE
FNDA:3,_ZNSt10_HashtableIiSt4pairIKiSt8functionIFbR5WorldRKN2sf8Vector2iEEEESaISB_ENSt8__detail10_Select1stESt8equal_toIiESt4hashIiENSD_18_Mod_range_hashingENSD_20_Default_ranged_hashENSD_20_Prime_rehash_policyENSD_17_Hashtable_traitsILb0ELb0ELb1EEEE13_M_rehash_auxEmSt17integral_constantIbLb1EE
DA:302,30
DA:303,30
DA:304,30
DA:308,30
DA:421,9
DA:422,9
DA:432,3
DA:434,3
DA:436,0
DA:437,0
DA:440,3
DA:444,9
DA:446,9
DA:449,3
DA:453,3
DA:454,3
DA:453,6
DA:454,6
DA:462,9
DA:463,9
DA:528,3
DA:633,0
DA:634,0
DA:790,27
DA:791,27
DA:794,33
DA:795,33
DA:807,30
DA:810,30
DA:811,30
DA:812,0
DA:1528,3
DA:1532,3
DA:1533,3
DA:1534,3
DA:1528,3
DA:1532,3
DA:1533,3
DA:1534,3
DA:1603,0
DA:1608,0
DA:1609,0
DA:1610,0
DA:1827,30
DA:1833,30
DA:1834,30
DA:1837,0
DA:1840,0
DA:1843,0
DA:1886,30
DA:1890,30
DA:1894,0
DA:1895,0
DA:1902,30
DA:1903,30
DA:1905,30
DA:1908,27
DA:1910,30
DA:1912,30
DA:2008,30
DA:2014,30
DA:2016,30
DA:2019,30
DA:2021,3
DA:2022,3
DA:2028,30
DA:2029,30
DA:2030,30
DA:2316,3
DA:2320,3
DA:2321,3
DA:2322,3
DA:2323,3
DA:2324,3
DA:2325,3
DA:2316,3
DA:2320,3
DA:2321,3
DA:2322,3
DA:2323,3
DA:2324,3
DA:2325,3
DA:2355,3
DA:2361,3
DA:2363,0
DA:2367,0
DA:2368,0
DA:2370,3
DA:2378,3
DA:2382,3
DA:2383,3
DA:2384,3
DA:2385,3
DA:2386,3
DA:2388,0
DA:2390,0
DA:2391,0
DA:2393,0
DA:2394,0
DA:2395,0
DA:2396,0
DA:2397,0
DA:2402,0
DA:2403,0
DA:2409,3
DA:2410,3
DA:2411,3
DA:2412,3
end_of_record
SF:/usr/include/c++/11/iostream
end_of_record
SF:/usr/include/c++/11/bits/basic_string.tcc
FN:206,_ZNSt7__cxx1112basic_stringIcSt11char_traitsIcESaIcEE12_M_constructIPKcEEvT_S8_St20forward_iterator_tag
FNDA:583654,_ZNSt7__cxx1112basic_stringIcSt11char_traitsIcESaIcEE12_M_constructIPKcEEvT_S8_St20forward_iterator_tag
DA:206,583654
DA:211,583654
DA:212,0
DA:215,583654
DA:217,583654
DA:219,583033
DA:220,583654
DA:225,583654
DA:232,583654
DA:233,583654
end_of_record
SF:/mnt/c/users/gabci/desktop/nhf2/src/EntityPlacer.h
DA:39,3
end_of_record
SF:/usr/include/c++/11/bits/stl_uninitialized.h
DA:1006,228
DA:1009,228
DA:1010,228
DA:1011,95
DA:1012,114
DA:1040,114
DA:1046,209
end_of_record
SF:/usr/include/c++/11/bits/basic_string.h
FN:533,_ZNSt7__cxx1112basic_stringIcSt11char_traitsIcESaIcEEC2IS3_EEPKcRKS3_
FNDA:0,_ZNSt7__cxx1112basic_stringIcSt11char_traitsIcESaIcEEC2IS3_EEPKcRKS3_
FN:6172,_ZStplIcSt11char_traitsIcESaIcEENSt7__cxx1112basic_stringIT_T0_T1_EEOS8_S9_
FNDA:36672,_ZStplIcSt11char_traitsIcESaIcEENSt7__cxx1112basic_stringIT_T0_T1_EEOS8_S9_
FN:6194,_ZStplIcSt11char_traitsIcESaIcEENSt7__cxx1112basic_stringIT_T0_T1_EEPKS5_OS8_
FNDA:0,_ZStplIcSt11char_traitsIcESaIcEENSt7__cxx1112basic_stringIT_T0_T1_EEPKS5_OS8_
FN:6206,_ZStplIcSt11char_traitsIcESaIcEENSt7__cxx1112basic_stringIT_T0_T1_EEOS8_PKS5_
FNDA:0,_ZStplIcSt11char_traitsIcESaIcEENSt7__cxx1112basic_stringIT_T0_T1_EEOS8_PKS5_
FN:6660,_ZNSt7__cxx119to_stringEi
FNDA:0,_ZNSt7__cxx119to_stringEi
DA:158,0
DA:164,0
DA:165,0
DA:167,36672
DA:168,36672
DA:186,653861
DA:187,583033
DA:190,620326
DA:191,620326
DA:194,1312674
DA:195,583654
DA:198,73344
DA:201,36672
DA:208,74538
DA:211,74538
DA:218,617189
DA:219,583033
DA:222,620326
DA:224,620326
DA:225,620326
DA:229,74538
DA:230,74538
DA:294,36672
DA:295,36672
DA:404,583654
DA:406,583654
DA:533,0
DA:534,0
DA:536,0
DA:539,0
DA:540,0
DA:553,0
DA:554,0
DA:555,0
DA:565,36672
DA:566,36672
DA:568,36672
DA:570,2516
DA:575,34156
DA:576,34156
DA:582,36672
DA:583,36672
DA:584,36672
DA:585,36672
DA:671,0
DA:672,0
DA:920,36672
DA:921,36672
DA:926,36672
DA:927,36672
DA:976,37866
DA:978,34188
DA:1055,0
DA:1059,0
DA:1062,0
DA:1213,36672
DA:1214,36672
DA:1660,0
DA:1661,0
DA:1662,0
DA:6172,36672
DA:6179,36672
DA:6185,36672
DA:6186,37866
DA:6187,0
DA:6189,36672
DA:6194,0
DA:6196,0
DA:6206,0
DA:6208,0
DA:6660,0
DA:6662,0
DA:6663,0
DA:6664,0
DA:6665,0
DA:6666,0
DA:6667,0
end_of_record
SF:/usr/include/c++/11/utility
DA:189,27
end_of_record
SF:/usr/include/c++/11/bits/invoke.h
DA:60,0
DA:61,0
DA:104,0
DA:114,0
end_of_record
SF:/usr/include/c++/11/bits/std_function.h
FN:241,_ZNSt14_Function_baseD2Ev
FNDA:116,_ZNSt14_Function_baseD2Ev
FN:267,_ZNSt17_Function_handlerIFbR5WorldRKN2sf8Vector2iEEZN12EntityPlacer13setup_factoryEvEUlS1_S3_E7_E10_M_managerERSt9_Any_dataRKSA_St18_Manager_operation
FNDA:3,_ZNSt17_Function_handlerIFbR5WorldRKN2sf8Vector2iEEZN12EntityPlacer13setup_factoryEvEUlS1_S3_E7_E10_M_managerERSt9_Any_dataRKSA_St18_Manager_operation
FN:267,_ZNSt17_Function_handlerIFbR5WorldRKN2sf8Vector2iEEZN12EntityPlacer13setup_factoryEvEUlS1_S3_E6_E10_M_managerERSt9_Any_dataRKSA_St18_Manager_operation
FNDA:3,_ZNSt17_Function_handlerIFbR5WorldRKN2sf8Vector2iEEZN12EntityPlacer13setup_factoryEvEUlS1_S3_E6_E10_M_managerERSt9_Any_dataRKSA_St18_Manager_operation
FN:267,_ZNSt17_Function_handlerIFbR5WorldRKN2sf8Vector2iEEZN12EntityPlacer13setup_factoryEvEUlS1_S3_E_E10_M_managerERSt9_Any_dataRKSA_St18_Manager_operation
FNDA:3,_ZNSt17_Function_handlerIFbR5WorldRKN2sf8Vector2iEEZN12EntityPlacer13setup_factoryEvEUlS1_S3_E_E10_M_managerERSt9_Any_dataRKSA_St18_Manager_operation
FN:267,_ZNSt17_Function_handlerIFbR5WorldRKN2sf8Vector2iEEZN12EntityPlacer13setup_factoryEvEUlS1_S3_E5_E10_M_managerERSt9_Any_dataRKSA_St18_Manager_operation
FNDA:3,_ZNSt17_Function_handlerIFbR5WorldRKN2sf8Vector2iEEZN12EntityPlacer13setup_factoryEvEUlS1_S3_E5_E10_M_managerERSt9_Any_dataRKSA_St18_Manager_operation
FN:267,_ZNSt17_Function_handlerIFbR5WorldRKN2sf8Vector2iEEZN12EntityPlacer13setup_factoryEvEUlS1_S3_E4_E10_M_managerERSt9_Any_dataRKSA_St18_Manager_operation
FNDA:3,_ZNSt17_Function_handlerIFbR5WorldRKN2sf8Vector2iEEZN12EntityPlacer13setup_factoryEvEUlS1_S3_E4_E10_M_managerERSt9_Any_dataRKSA_St18_Manager_operation
FN:267,_ZNSt17_Function_handlerIFbR5WorldRKN2sf8Vector2iEEZN12EntityPlacer13setup_factoryEvEUlS1_S3_E0_E10_M_managerERSt9_Any_dataRKSA_St18_Manager_operation
FNDA:3,_ZNSt17_Function_handlerIFbR5WorldRKN2sf8Vector2iEEZN12EntityPlacer13setup_factoryEvEUlS1_S3_E0_E10_M_managerERSt9_Any_dataRKSA_St18_Manager_operation
FN:267,_ZNSt17_Function_handlerIFbR5WorldRKN2sf8Vector2iEEZN12EntityPlacer13setup_factoryEvEUlS1_S3_E3_E10_M_managerERSt9_Any_dataRKSA_St18_Manager_operation
FNDA:3,_ZNSt17_Function_handlerIFbR5WorldRKN2sf8Vector2iEEZN12EntityPlacer13setup_factoryEvEUlS1_S3_E3_E10_M_managerERSt9_Any_dataRKSA_St18_Manager_operation
FN:267,_ZNSt17_Function_handlerIFbR5WorldRKN2sf8Vector2iEEZN12EntityPlacer13setup_factoryEvEUlS1_S3_E8_E10_M_managerERSt9_Any_dataRKSA_St18_Manager_operation
FNDA:3,_ZNSt17_Function_handlerIFbR5WorldRKN2sf8Vector2iEEZN12EntityPlacer13setup_factoryEvEUlS1_S3_E8_E10_M_managerERSt9_Any_dataRKSA_St18_Manager_operation
FN:267,_ZNSt17_Function_handlerIFbR5WorldRKN2sf8Vector2iEEZN12EntityPlacer13setup_factoryEvEUlS1_S3_E2_E10_M_managerERSt9_Any_dataRKSA_St18_Manager_operation
FNDA:3,_ZNSt17_Function_handlerIFbR5WorldRKN2sf8Vector2iEEZN12EntityPlacer13setup_factoryEvEUlS1_S3_E2_E10_M_managerERSt9_Any_dataRKSA_St18_Manager_operation
FN:267,_ZNSt17_Function_handlerIFbR5WorldRKN2sf8Vector2iEEZN12EntityPlacer13setup_factoryEvEUlS1_S3_E1_E10_M_managerERSt9_Any_dataRKSA_St18_Manager_operation
FNDA:3,_ZNSt17_Function_handlerIFbR5WorldRKN2sf8Vector2iEEZN12EntityPlacer13setup_factoryEvEUlS1_S3_E1_E10_M_managerERSt9_Any_dataRKSA_St18_Manager_operation
FN:288,_ZNSt17_Function_handlerIFbR5WorldRKN2sf8Vector2iEEZN12EntityPlacer13setup_factoryEvEUlS1_S3_E3_E9_M_invokeERKSt9_Any_dataS1_S5_
FNDA:0,_ZNSt17_Function_handlerIFbR5WorldRKN2sf8Vector2iEEZN12EntityPlacer13setup_factoryEvEUlS1_S3_E3_E9_M_invokeERKSt9_Any_dataS1_S5_
FN:288,_ZNSt17_Function_handlerIFbR5WorldRKN2sf8Vector2iEEZN12EntityPlacer13setup_factoryEvEUlS1_S3_E_E9_M_invokeERKSt9_Any_dataS1_S5_
FNDA:0,_ZNSt17_Function_handlerIFbR5WorldRKN2sf8Vector2iEEZN12EntityPlacer13setup_factoryEvEUlS1_S3_E_E9_M_invokeERKSt9_Any_dataS1_S5_
FN:288,_ZNSt17_Function_handlerIFbR5WorldRKN2sf8Vector2iEEZN12EntityPlacer13setup_factoryEvEUlS1_S3_E0_E9_M_invokeERKSt9_Any_dataS1_S5_
FNDA:0,_ZNSt17_Function_handlerIFbR5WorldRKN2sf8Vector2iEEZN12EntityPlacer13setup_factoryEvEUlS1_S3_E0_E9_M_invokeERKSt9_Any_dataS1_S5_
FN:288,_ZNSt17_Function_handlerIFbR5WorldRKN2sf8Vector2iEEZN12EntityPlacer13setup_factoryEvEUlS1_S3_E1_E9_M_invokeERKSt9_Any_dataS1_S5_
FNDA:0,_ZNSt17_Function_handlerIFbR5WorldRKN2sf8Vector2iEEZN12EntityPlacer13setup_factoryEvEUlS1_S3_E1_E9_M_invokeERKSt9_Any_dataS1_S5_
FN:288,_ZNSt17_Function_handlerIFbR5WorldRKN2sf8Vector2iEEZN12EntityPlacer13setup_factoryEvEUlS1_S3_E2_E9_M_invokeERKSt9_Any_dataS1_S5_
FNDA:0,_ZNSt17_Function_handlerIFbR5WorldRKN2sf8Vector2iEEZN12EntityPlacer13setup_factoryEvEUlS1_S3_E2_E9_M_invokeERKSt9_Any_dataS1_S5_
FN:288,_ZNSt17_Function_handlerIFbR5WorldRKN2sf8Vector2iEEZN12EntityPlacer13setup_factoryEvEUlS1_S3_E4_E9_M_invokeERKSt9_Any_dataS1_S5_
FNDA:0,_ZNSt17_Function_handlerIFbR5WorldRKN2sf8Vector2iEEZN12EntityPlacer13setup_factoryEvEUlS1_S3_E4_E9_M_invokeERKSt9_Any_dataS1_S5_
FN:288,_ZNSt17_Function_handlerIFbR5WorldRKN2sf8Vector2iEEZN12EntityPlacer13setup_factoryEvEUlS1_S3_E5_E9_M_invokeERKSt9_Any_dataS1_S5_
FNDA:0,_ZNSt17_Function_handlerIFbR5WorldRKN2sf8Vector2iEEZN12EntityPlacer13setup_factoryEvEUlS1_S3_E5_E9_M_invokeERKSt9_Any_dataS1_S5_
FN:288,_ZNSt17_Function_handlerIFbR5WorldRKN2sf8Vector2iEEZN12EntityPlacer13setup_factoryEvEUlS1_S3_E6_E9_M_invokeERKSt9_Any_dataS1_S5_
FNDA:0,_ZNSt17_Function_handlerIFbR5WorldRKN2sf8Vector2iEEZN12EntityPlacer13setup_factoryEvEUlS1_S3_E6_E9_M_invokeERKSt9_Any_dataS1_S5_
FN:288,_ZNSt17_Function_handlerIFbR5WorldRKN2sf8Vector2iEEZN12EntityPlacer13setup_factoryEvEUlS1_S3_E7_E9_M_invokeERKSt9_Any_dataS1_S5_
FNDA:0,_ZNSt17_Function_handlerIFbR5WorldRKN2sf8Vector2iEEZN12EntityPlacer13setup_factoryEvEUlS1_S3_E7_E9_M_invokeERKSt9_Any_dataS1_S5_
FN:288,_ZNSt17_Function_handlerIFbR5WorldRKN2sf8Vector2iEEZN12EntityPlacer13setup_factoryEvEUlS1_S3_E8_E9_M_invokeERKSt9_Any_dataS1_S5_
FNDA:0,_ZNSt17_Function_handlerIFbR5WorldRKN2sf8Vector2iEEZN12EntityPlacer13setup_factoryEvEUlS1_S3_E8_E9_M_invokeERKSt9_Any_dataS1_S5_
FN:487,_ZNSt8functionIFbR5WorldRKN2sf8Vector2iEEEaSEOS7_
FNDA:30,_ZNSt8functionIFbR5WorldRKN2sf8Vector2iEEEaSEOS7_
FN:586,_ZNKSt8functionIFbR5WorldRKN2sf8Vector2iEEEclES1_S5_
FNDA:0,_ZNKSt8functionIFbR5WorldRKN2sf8Vector2iEEEclES1_S5_
DA:86,0
DA:91,0
DA:95,0
DA:96,0
DA:134,0
DA:138,0
DA:166,30
DA:168,30
DA:180,30
DA:183,30
DA:187,0
DA:191,0
DA:193,0
DA:194,0
DA:195,0
DA:202,30
DA:203,30
DA:204,30
DA:211,30
DA:235,30
DA:239,90
DA:241,116
DA:243,116
DA:244,56
DA:245,116
DA:247,30
DA:267,3
DA:270,3
DA:273,0
DA:274,0
DA:275,0
DA:277,0
DA:278,0
DA:279,0
DA:281,3
DA:282,3
DA:284,3
DA:267,3
DA:270,3
DA:273,0
DA:274,0
DA:275,0
DA:277,0
DA:278,0
DA:279,0
DA:281,3
DA:282,3
DA:284,3
DA:267,3
DA:270,3
DA:273,0
DA:274,0
DA:275,0
DA:277,0
DA:278,0
DA:279,0
DA:281,3
DA:282,3
DA:284,3
DA:267,3
DA:270,3
DA:273,0
DA:274,0
DA:275,0
DA:277,0
DA:278,0
DA:279,0
DA:281,3
DA:282,3
DA:284,3
DA:267,3
DA:270,3
DA:273,0
DA:274,0
DA:275,0
DA:277,0
DA:278,0
DA:279,0
DA:281,3
DA:282,3
DA:284,3
DA:267,3
DA:270,3
DA:273,0
DA:274,0
DA:275,0
DA:277,0
DA:278,0
DA:279,0
DA:281,3
DA:282,3
DA:284,3
DA:267,3
DA:270,3
DA:273,0
DA:274,0
DA:275,0
DA:277,0
DA:278,0
DA:279,0
DA:281,3
DA:282,3
DA:284,3
DA:267,3
DA:270,3
DA:273,0
DA:274,0
DA:275,0
DA:277,0
DA:278,0
DA:279,0
DA:281,3
DA:282,3
DA:284,3
DA:267,3
DA:270,3
DA:273,0
DA:274,0
DA:275,0
DA:277,0
DA:278,0
DA:279,0
DA:281,3
DA:282,3
DA:284,3
DA:267,3
DA:270,3
DA:273,0
DA:274,0
DA:275,0
DA:277,0
DA:278,0
DA:279,0
DA:281,3
DA:282,3
DA:284,3
DA:288,0
DA:290,0
DA:291,0
DA:288,0
DA:290,0
DA:291,0
DA:288,0
DA:290,0
DA:291,0
DA:288,0
DA:290,0
DA:291,0
DA:288,0
DA:290,0
DA:291,0
DA:288,0
DA:290,0
DA:291,0
DA:288,0
DA:290,0
DA:291,0
DA:288,0
DA:290,0
DA:291,0
DA:288,0
DA:290,0
DA:291,0
DA:288,0
DA:290,0
DA:291,0
DA:334,33
DA:368,30
DA:369,30
DA:404,30
DA:405,30
DA:407,30
DA:409,30
DA:410,30
DA:411,30
DA:412,30
DA:435,30
DA:437,30
DA:447,30
DA:449,30
DA:451,30
DA:452,30
DA:487,30
DA:489,90
DA:490,30
DA:555,30
DA:557,30
DA:558,30
DA:559,30
DA:572,30
DA:573,30
DA:586,0
DA:588,0
DA:589,0
DA:590,0
end_of_record
SF:/usr/include/c++/11/bits/vector.tcc
FN:109,_ZNSt6vectorIPN8minerals17ResourceStructureESaIS2_EE12emplace_backIJS2_EEERS2_DpOT_
FNDA:380,_ZNSt6vectorIPN8minerals17ResourceStructureESaIS2_EE12emplace_backIJS2_EEERS2_DpOT_
FN:426,_ZNSt6vectorIPN8minerals17ResourceStructureESaIS2_EE17_M_realloc_insertIJS2_EEEvN9__gnu_cxx17__normal_iteratorIPS2_S4_EEDpOT_
FNDA:114,_ZNSt6vectorIPN8minerals17ResourceStructureESaIS2_EE17_M_realloc_insertIJS2_EEEvN9__gnu_cxx17__normal_iteratorIPS2_S4_EEDpOT_
DA:109,380
DA:112,380
DA:115,266
DA:117,266
DA:121,114
DA:123,380
DA:426,114
DA:436,114
DA:437,114
DA:438,114
DA:439,114
DA:440,114
DA:441,114
DA:449,114
DA:450,114
DA:456,114
DA:461,114
DA:462,114
DA:464,114
DA:466,228
DA:467,114
DA:500,228
DA:501,114
DA:502,114
DA:503,114
DA:504,114
DA:505,114
end_of_record
SF:/usr/include/c++/11/bits/hashtable_policy.h
FN:696,_ZNSt8__detail9_Map_baseIiSt4pairIKiSt8functionIFbR5WorldRKN2sf8Vector2iEEEESaISC_ENS_10_Select1stESt8equal_toIiESt4hashIiENS_18_Mod_range_hashingENS_20_Default_ranged_hashENS_20_Prime_rehash_policyENS_17_Hashtable_traitsILb0ELb0ELb1EEELb1EEixERS2_
FNDA:30,_ZNSt8__detail9_Map_baseIiSt4pairIKiSt8functionIFbR5WorldRKN2sf8Vector2iEEEESaISC_ENS_10_Select1stESt8equal_toIiESt4hashIiENS_18_Mod_range_hashingENS_20_Default_ranged_hashENS_20_Prime_rehash_policyENS_17_Hashtable_traitsILb0ELb0ELb1EEELb1EEixERS2_
FN:1870,_ZNSt8__detail16_Hashtable_allocISaINS_10_Hash_nodeISt4pairIKiSt8functionIFbR5WorldRKN2sf8Vector2iEEEELb0EEEEE16_M_allocate_nodeIJRKSt21piecewise_construct_tSt5tupleIJRS3_EESL_IJEEEEEPSE_DpOT_
FNDA:30,_ZNSt8__detail16_Hashtable_allocISaINS_10_Hash_nodeISt4pairIKiSt8functionIFbR5WorldRKN2sf8Vector2iEEEELb0EEEEE16_M_allocate_nodeIJRKSt21piecewise_construct_tSt5tupleIJRS3_EESL_IJEEEEEPSE_DpOT_
FN:1892,_ZNSt8__detail16_Hashtable_allocISaINS_10_Hash_nodeISt4pairIKiSt8functionIFbvEEELb0EEEEE18_M_deallocate_nodeEPS8_
FNDA:0,_ZNSt8__detail16_Hashtable_allocISaINS_10_Hash_nodeISt4pairIKiSt8functionIFbvEEELb0EEEEE18_M_deallocate_nodeEPS8_
FN:1892,_ZNSt8__detail16_Hashtable_allocISaINS_10_Hash_nodeISt4pairIKiSt8functionIFbR5WorldRKN2sf8Vector2iEEEELb0EEEEE18_M_deallocate_nodeEPSE_
FNDA:30,_ZNSt8__detail16_Hashtable_allocISaINS_10_Hash_nodeISt4pairIKiSt8functionIFbR5WorldRKN2sf8Vector2iEEEELb0EEEEE18_M_deallocate_nodeEPSE_
FN:1900,_ZNSt8__detail16_Hashtable_allocISaINS_10_Hash_nodeISt4pairIKiSt8functionIFbvEEELb0EEEEE22_M_deallocate_node_ptrEPS8_
FNDA:0,_ZNSt8__detail16_Hashtable_allocISaINS_10_Hash_nodeISt4pairIKiSt8functionIFbvEEELb0EEEEE22_M_deallocate_node_ptrEPS8_
FN:1900,_ZNSt8__detail16_Hashtable_allocISaINS_10_Hash_nodeISt4pairIKiSt8functionIFbR5WorldRKN2sf8Vector2iEEEELb0EEEEE22_M_deallocate_node_ptrEPSE_
FNDA:30,_ZNSt8__detail16_Hashtable_allocISaINS_10_Hash_nodeISt4pairIKiSt8functionIFbR5WorldRKN2sf8Vector2iEEEELb0EEEEE22_M_deallocate_node_ptrEPSE_
FN:1910,_ZNSt8__detail16_Hashtable_allocISaINS_10_Hash_nodeISt4pairIKiSt8functionIFbvEEELb0EEEEE19_M_deallocate_nodesEPS8_
FNDA:3,_ZNSt8__detail16_Hashtable_allocISaINS_10_Hash_nodeISt4pairIKiSt8functionIFbvEEELb0EEEEE19_M_deallocate_nodesEPS8_
FN:1910,_ZNSt8__detail16_Hashtable_allocISaINS_10_Hash_nodeISt4pairIKiSt8functionIFbR5WorldRKN2sf8Vector2iEEEELb0EEEEE19_M_deallocate_nodesEPSE_
FNDA:3,_ZNSt8__detail16_Hashtable_allocISaINS_10_Hash_nodeISt4pairIKiSt8functionIFbR5WorldRKN2sf8Vector2iEEEELb0EEEEE19_M_deallocate_nodesEPSE_
FN:1922,_ZNSt8__detail16_Hashtable_allocISaINS_10_Hash_nodeISt4pairIKiSt8functionIFbR5WorldRKN2sf8Vector2iEEEELb0EEEEE19_M_allocate_bucketsEm
FNDA:3,_ZNSt8__detail16_Hashtable_allocISaINS_10_Hash_nodeISt4pairIKiSt8functionIFbR5WorldRKN2sf8Vector2iEEEELb0EEEEE19_M_allocate_bucketsEm
FN:1935,_ZNSt8__detail16_Hashtable_allocISaINS_10_Hash_nodeISt4pairIKiSt8functionIFbvEEELb0EEEEE21_M_deallocate_bucketsEPPNS_15_Hash_node_baseEm
FNDA:0,_ZNSt8__detail16_Hashtable_allocISaINS_10_Hash_nodeISt4pairIKiSt8functionIFbvEEELb0EEEEE21_M_deallocate_bucketsEPPNS_15_Hash_node_baseEm
FN:1935,_ZNSt8__detail16_Hashtable_allocISaINS_10_Hash_nodeISt4pairIKiSt8functionIFbR5WorldRKN2sf8Vector2iEEEELb0EEEEE21_M_deallocate_bucketsEPPNS_15_Hash_node_baseEm
FNDA:3,_ZNSt8__detail16_Hashtable_allocISaINS_10_Hash_nodeISt4pairIKiSt8functionIFbR5WorldRKN2sf8Vector2iEEEELb0EEEEE21_M_deallocate_bucketsEPPNS_15_Hash_node_baseEm
DA:219,33
DA:238,90
DA:242,27
DA:246,0
DA:277,30
DA:282,30
DA:283,0
DA:295,30
DA:338,30
DA:339,30
DA:346,30
DA:347,30
DA:385,0
DA:386,0
DA:398,0
DA:428,60
DA:430,27
DA:446,3
DA:447,3
DA:473,30
DA:474,30
DA:481,0
DA:482,0
DA:696,30
DA:701,30
DA:702,30
DA:703,30
DA:704,0
DA:705,0
DA:707,30
DA:710,30
DA:711,30
DA:714,30
DA:715,30
DA:716,30
DA:717,30
DA:1124,6
DA:1127,3
DA:1210,3
DA:1215,57
DA:1219,57
DA:1232,33
DA:1233,33
DA:1236,27
DA:1242,27
DA:1604,3
DA:1611,0
DA:1617,0
DA:1802,6
DA:1823,3
DA:1870,30
DA:1873,30
DA:1874,30
DA:1877,30
DA:1878,30
DA:1881,30
DA:1892,0
DA:1894,0
DA:1895,0
DA:1896,0
DA:1892,30
DA:1894,30
DA:1895,30
DA:1896,30
DA:1900,0
DA:1903,0
DA:1904,0
DA:1905,0
DA:1906,0
DA:1900,30
DA:1903,30
DA:1904,30
DA:1905,30
DA:1906,30
DA:1910,3
DA:1912,3
DA:1914,0
DA:1915,0
DA:1916,0
DA:1918,3
DA:1910,3
DA:1912,33
DA:1914,30
DA:1915,30
DA:1916,30
DA:1918,3
DA:1922,3
DA:1925,3
DA:1927,3
DA:1928,3
DA:1929,3
DA:1930,3
DA:1931,3
DA:1935,0
DA:1940,0
DA:1941,0
DA:1942,0
DA:1943,0
DA:1935,3
DA:1940,3
DA:1941,3
DA:1942,3
DA:1943,3
end_of_record
SF:/usr/include/c++/11/bits/allocator.h
DA:156,3
DA:159,36672
DA:160,36672
DA:169,6
DA:174,0
end_of_record
SF:/usr/include/c++/11/bits/stl_function.h
DA:369,0
DA:370,0
end_of_record
SF:/usr/include/c++/11/bits/stl_vector.h
FN:1756,_ZNKSt6vectorIPN8minerals17ResourceStructureESaIS2_EE12_M_check_lenEmPKc
FNDA:114,_ZNKSt6vectorIPN8minerals17ResourceStructureESaIS2_EE12_M_check_lenEmPKc
DA:277,114
DA:343,114
DA:346,114
DA:350,114
DA:353,114
DA:354,95
DA:453,228
DA:456,228
DA:465,209
DA:469,114
DA:811,114
DA:812,114
DA:829,494
DA:830,114
DA:918,114
DA:919,114
DA:924,114
DA:1143,380
DA:1146,380
DA:1203,0
DA:1204,0
DA:1756,114
DA:1758,114
DA:1759,0
DA:1761,114
DA:1762,114
end_of_record
SF:/usr/include/c++/11/bits/stl_algobase.h
DA:254,114
DA:259,114
DA:260,19
end_of_record
SF:/usr/include/c++/11/bits/char_traits.h
DA:356,620326
DA:357,36672
DA:393,0
DA:396,0
DA:399,0
DA:429,2516
DA:431,2516
DA:437,2516
end_of_record
SF:/usr/include/c++/11/bits/stl_pair.h
DA:211,30
end_of_record
SF:/usr/include/c++/11/bits/stl_iterator.h
DA:1027,228
DA:1028,380
DA:1100,380
DA:1101,380
DA:1268,114
DA:1271,114
end_of_record
TN:
SF:/usr/include/c++/11/bits/basic_string.tcc
FN:206,_ZNSt7__cxx1112basic_stringIcSt11char_traitsIcESaIcEE12_M_constructIPcEEvT_S7_St20forward_iterator_tag
FNDA:0,_ZNSt7__cxx1112basic_stringIcSt11char_traitsIcESaIcEE12_M_constructIPcEEvT_S7_St20forward_iterator_tag
FN:206,_ZNSt7__cxx1112basic_stringIcSt11char_traitsIcESaIcEE12_M_constructIPKcEEvT_S8_St20forward_iterator_tag
FNDA:0,_ZNSt7__cxx1112basic_stringIcSt11char_traitsIcESaIcEE12_M_constructIPKcEEvT_S8_St20forward_iterator_tag
FN:1169,_ZStplIcSt11char_traitsIcESaIcEENSt7__cxx1112basic_stringIT_T0_T1_EEPKS5_RKS8_
FNDA:0,_ZStplIcSt11char_traitsIcESaIcEENSt7__cxx1112basic_stringIT_T0_T1_EEPKS5_RKS8_
DA:206,0
DA:211,0
DA:212,0
DA:215,0
DA:217,0
DA:219,0
DA:220,0
DA:225,0
DA:232,0
DA:233,0
DA:206,0
DA:211,0
DA:212,0
DA:215,0
DA:217,0
DA:219,0
DA:220,0
DA:225,0
DA:232,0
DA:233,0
DA:1169,0
DA:1178,0
DA:1179,0
DA:1181,0
DA:1182,0
DA:1183,0
DA:1184,0
DA:1185,0
end_of_record
SF:/usr/include/c++/11/ext/alloc_traits.h
DA:97,0
DA:98,0
end_of_record
SF:/usr/include/c++/11/bits/basic_string.h
FN:533,_ZNSt7__cxx1112basic_stringIcSt11char_traitsIcESaIcEEC2IS3_EEPKcRKS3_
FNDA:550230,_ZNSt7__cxx1112basic_stringIcSt11char_traitsIcESaIcEEC2IS3_EEPKcRKS3_
FN:6160,_ZStplIcSt11char_traitsIcESaIcEENSt7__cxx1112basic_stringIT_T0_T1_EEOS8_RKS8_
FNDA:0,_ZStplIcSt11char_traitsIcESaIcEENSt7__cxx1112basic_stringIT_T0_T1_EEOS8_RKS8_
FN:6172,_ZStplIcSt11char_traitsIcESaIcEENSt7__cxx1112basic_stringIT_T0_T1_EEOS8_S9_
FNDA:0,_ZStplIcSt11char_traitsIcESaIcEENSt7__cxx1112basic_stringIT_T0_T1_EEOS8_S9_
FN:6194,_ZStplIcSt11char_traitsIcESaIcEENSt7__cxx1112basic_stringIT_T0_T1_EEPKS5_OS8_
FNDA:35240,_ZStplIcSt11char_traitsIcESaIcEENSt7__cxx1112basic_stringIT_T0_T1_EEPKS5_OS8_
FN:6206,_ZStplIcSt11char_traitsIcESaIcEENSt7__cxx1112basic_stringIT_T0_T1_EEOS8_PKS5_
FNDA:70342,_ZStplIcSt11char_traitsIcESaIcEENSt7__cxx1112basic_stringIT_T0_T1_EEOS8_PKS5_
FN:6660,_ZNSt7__cxx119to_stringEi
FNDA:6212,_ZNSt7__cxx119to_stringEi
FN:6690,_ZNSt7__cxx119to_stringEm
FNDA:12,_ZNSt7__cxx119to_stringEm
DA:158,797257
DA:164,620714
DA:165,620714
DA:167,139220
DA:168,33638
DA:186,206148
DA:187,0
DA:190,139220
DA:191,139220
DA:194,212372
DA:195,0
DA:198,865516
DA:201,139220
DA:208,105582
DA:211,105582
DA:218,100566
DA:219,0
DA:222,139220
DA:224,139220
DA:225,33638
DA:229,105582
DA:230,105582
DA:251,64260
DA:255,64260
DA:271,64260
DA:274,64260
DA:294,105582
DA:295,105582
DA:299,0
DA:400,0
DA:401,0
DA:404,0
DA:406,0
DA:439,33638
DA:441,33638
DA:442,33638
DA:448,0
DA:449,0
DA:450,0
DA:533,550230
DA:534,550230
DA:536,550230
DA:539,550230
DA:540,550230
DA:553,6224
DA:554,6212
DA:555,6224
DA:565,105582
DA:566,105582
DA:568,105582
DA:570,5016
DA:575,100566
DA:576,100566
DA:582,105582
DA:583,105582
DA:584,105582
DA:585,0
DA:638,64260
DA:640,64260
DA:641,64260
DA:671,293777
DA:672,293777
DA:679,33696
DA:681,33693
DA:689,3
DA:690,3
DA:920,366
DA:921,0
DA:926,105582
DA:927,0
DA:976,0
DA:978,0
DA:1023,354
DA:1024,354
DA:1055,6224
DA:1059,6224
DA:1062,6224
DA:1213,0
DA:1214,0
DA:1356,33696
DA:1387,33696
DA:1660,0
DA:1661,0
DA:1662,0
DA:2351,0
DA:2352,0
DA:6160,0
DA:6162,0
DA:6172,0
DA:6179,0
DA:6185,0
DA:6186,0
DA:6187,0
DA:6189,0
DA:6194,35240
DA:6196,35240
DA:6206,70342
DA:6208,70342
DA:6660,6212
DA:6662,6212
DA:6663,6212
DA:6664,6212
DA:6665,6212
DA:6666,6212
DA:6667,6212
DA:6690,12
DA:6692,12
DA:6693,12
DA:6694,12
DA:6721,64260
DA:6723,64260
DA:6725,64260
DA:6726,32130
end_of_record
SF:/mnt/c/users/gabci/desktop/nhf2/src/fake_sfml/fake_sfml.cpp
FN:4,_ZN2sf9to_stringB5cxx11ERKNS_5ColorE
FNDA:1346,_ZN2sf9to_stringB5cxx11ERKNS_5ColorE
FN:8,_ZN2sf19file_exists_at_pathERKNSt7__cxx1112basic_stringIcSt11char_traitsIcESaIcEEE
FNDA:366,_ZN2sf19file_exists_at_pathERKNSt7__cxx1112basic_stringIcSt11char_traitsIcESaIcEEE
FN:13,_ZN2sf8Vector2fC2Ev
FNDA:100550,_ZN2sf8Vector2fC2Ev
FN:17,_ZN2sf8Vector2fC2Eff
FNDA:7849,_ZN2sf8Vector2fC2Eff
FN:22,_ZN2sf8Vector2iC2Ev
FNDA:12,_ZN2sf8Vector2iC2Ev
FN:27,_ZN2sf8Vector2iC2Eii
FNDA:138,_ZN2sf8Vector2iC2Eii
FN:32,_ZN2sf7TextureC2Ev
FNDA:33633,_ZN2sf7TextureC2Ev
FN:37,_ZN2sf7TextureD2Ev
FNDA:33633,_ZN2sf7TextureD2Ev
FN:42,_ZN2sf7Texture7getSizeEv
FNDA:138,_ZN2sf7Texture7getSizeEv
FN:47,_ZN2sf7IntRectC2Ev
FNDA:0,_ZN2sf7IntRectC2Ev
FN:49,_ZN2sf7IntRectC2Eiiii
FNDA:69,_ZN2sf7IntRectC2Eiiii
FN:51,_ZN2sf7Texture12loadFromFileERKNSt7__cxx1112basic_stringIcSt11char_traitsIcESaIcEEE
FNDA:357,_ZN2sf7Texture12loadFromFileERKNSt7__cxx1112basic_stringIcSt11char_traitsIcESaIcEEE
FN:71,_ZN2sf7TextureC2ERKS0_
FNDA:0,_ZN2sf7TextureC2ERKS0_
FN:75,_ZN2sf7TextureaSERKS0_
FNDA:33332,_ZN2sf7TextureaSERKS0_
FN:82,_ZN2sf6SpriteC2Ev
FNDA:33276,_ZN2sf6SpriteC2Ev
FN:95,_ZN2sf6Sprite11getPositionEv
FNDA:657,_ZN2sf6Sprite11getPositionEv
FN:99,_ZN2sf6Sprite14getLocalBoundsEv
FNDA:24,_ZN2sf6Sprite14getLocalBoundsEv
FN:104,_ZN2sf6Sprite15getGlobalBoundsEv
FNDA:762,_ZN2sf6Sprite15getGlobalBoundsEv
FN:109,_ZNK2sf6Sprite15getGlobalBoundsEv
FNDA:19,_ZNK2sf6Sprite15getGlobalBoundsEv
FN:113,_ZN2sf6Sprite10setTextureERNS_7TextureE
FNDA:33332,_ZN2sf6Sprite10setTextureERNS_7TextureE
FN:119,_ZN2sf6Sprite14setTextureRectERKNS_7IntRectE
FNDA:69,_ZN2sf6Sprite14setTextureRectERKNS_7IntRectE
FN:126,_ZN2sf6Sprite11setPositionEff
FNDA:7370,_ZN2sf6Sprite11setPositionEff
FN:132,_ZN2sf6Sprite8setScaleEff
FNDA:458,_ZN2sf6Sprite8setScaleEff
FN:138,_ZNK2sf6Sprite4drawEv
FNDA:0,_ZNK2sf6Sprite4drawEv
FN:145,_ZN2sf6SpriteD2Ev
FNDA:33276,_ZN2sf6SpriteD2Ev
FN:149,_ZN2sf6Sprite9setOriginEff
FNDA:184,_ZN2sf6Sprite9setOriginEff
FN:153,_ZN2sf6Sprite11setRotationEf
FNDA:0,_ZN2sf6Sprite11setRotationEf
FN:156,_ZN2sf6Sprite10getTextureEv
FNDA:138,_ZN2sf6Sprite10getTextureEv
FN:160,_ZN2sf5EventC2Ev
FNDA:0,_ZN2sf5EventC2Ev
FN:164,_ZN2sf9ClockTimeC2Em
FNDA:0,_ZN2sf9ClockTimeC2Em
FN:167,_ZN2sf9ClockTimeC2Ev
FNDA:2,_ZN2sf9ClockTimeC2Ev
FN:170,_ZN2sf9ClockTime9asSecondsEv
FNDA:0,_ZN2sf9ClockTime9asSecondsEv
FN:173,_ZN2sf9ClockTime5resetEv
FNDA:2,_ZN2sf9ClockTime5resetEv
FN:176,_ZN2sf9ClockTime9incrementEv
FNDA:0,_ZN2sf9ClockTime9incrementEv
FN:180,_ZN2sf5Clock7restartEv
FNDA:2,_ZN2sf5Clock7restartEv
FN:184,_ZN2sf5Clock14getElapsedTimeEv
FNDA:0,_ZN2sf5Clock14getElapsedTimeEv
FN:191,_ZN2sf11SoundBuffer12loadFromFileERKNSt7__cxx1112basic_stringIcSt11char_traitsIcESaIcEEE
FNDA:5,_ZN2sf11SoundBuffer12loadFromFileERKNSt7__cxx1112basic_stringIcSt11char_traitsIcESaIcEEE
FN:203,_ZN2sf5Sound9setBufferERNS_11SoundBufferE
FNDA:5,_ZN2sf5Sound9setBufferERNS_11SoundBufferE
FN:209,_ZN2sf5Sound4playEv
FNDA:5,_ZN2sf5Sound4playEv
FN:214,_ZN2sf5Sound4stopEv
FNDA:1,_ZN2sf5Sound4stopEv
FN:219,_ZN2sf5SoundD2Ev
FNDA:23,_ZN2sf5SoundD2Ev
FN:224,_ZN2sf5MusicC2Ev
FNDA:3,_ZN2sf5MusicC2Ev
FN:229,_ZN2sf5Music7setLoopEb
FNDA:3,_ZN2sf5Music7setLoopEb
FN:232,_ZN2sf5Music9setVolumeEd
FNDA:2,_ZN2sf5Music9setVolumeEd
FN:235,_ZN2sf5Music9getStatusEv
FNDA:4,_ZN2sf5Music9getStatusEv
FN:242,_ZN2sf5Music4playEv
FNDA:3,_ZN2sf5Music4playEv
FN:247,_ZN2sf5Music4stopEv
FNDA:3,_ZN2sf5Music4stopEv
FN:252,_ZN2sf5Music12openFromFileERKNSt7__cxx1112basic_stringIcSt11char_traitsIcESaIcEEE
FNDA:4,_ZN2sf5Music12openFromFileERKNSt7__cxx1112basic_stringIcSt11char_traitsIcESaIcEEE
FN:266,_ZN2sf11SoundSourceC2Ev
FNDA:0,_ZN2sf11SoundSourceC2Ev
FN:268,_ZN2sf5ColorC2Ev
FNDA:33281,_ZN2sf5ColorC2Ev
FN:274,_ZN2sf5ColorC2Eiii
FNDA:5,_ZN2sf5ColorC2Eiii
FN:280,_ZN2sf5ColorC2Eiiii
FNDA:585,_ZN2sf5ColorC2Eiiii
FN:294,_ZN2sf6Sprite8setColorENS_5ColorE
FNDA:659,_ZN2sf6Sprite8setColorENS_5ColorE
FN:300,_ZN2sf14RectangleShape12setFillColorENS_5ColorE
FNDA:4,_ZN2sf14RectangleShape12setFillColorENS_5ColorE
FN:310,_ZN2sf14RectangleShape7setSizeENS_8Vector2fE
FNDA:4,_ZN2sf14RectangleShape7setSizeENS_8Vector2fE
FN:316,_ZN2sf14RectangleShape11setPositionENS_8Vector2fE
FNDA:0,_ZN2sf14RectangleShape11setPositionENS_8Vector2fE
FN:322,_ZN2sf8Keyboard12isKeyPressedENS0_3KeyE
FNDA:150,_ZN2sf8Keyboard12isKeyPressedENS0_3KeyE
FN:339,_ZN2sf8Keyboard18simulate_key_pressENS0_3KeyE
FNDA:0,_ZN2sf8Keyboard18simulate_key_pressENS0_3KeyE
FN:360,_ZN2sf8Keyboard20simulate_key_releaseENS0_3KeyE
FNDA:0,_ZN2sf8Keyboard20simulate_key_releaseENS0_3KeyE
FN:381,_ZN2sf5Mouse15isButtonPressedENS0_13MousedowntypeE
FNDA:10,_ZN2sf5Mouse15isButtonPressedENS0_13MousedowntypeE
FN:391,_ZN2sf5Mouse11getPositionERNS_12RenderWindowE
FNDA:10,_ZN2sf5Mouse11getPositionERNS_12RenderWindowE
FN:399,_ZN2sf5Mouse18simulate_key_pressENS0_13MousedowntypeE
FNDA:0,_ZN2sf5Mouse18simulate_key_pressENS0_13MousedowntypeE
FN:410,_ZN2sf5Mouse20simulate_key_releaseENS0_13MousedowntypeE
FNDA:0,_ZN2sf5Mouse20simulate_key_releaseENS0_13MousedowntypeE
FN:421,_ZN2sf12RenderWindowC2Ev
FNDA:0,_ZN2sf12RenderWindowC2Ev
FN:427,_ZN2sf12RenderWindowC2ERKNSt7__cxx1112basic_stringIcSt11char_traitsIcESaIcEEEmm
FNDA:0,_ZN2sf12RenderWindowC2ERKNSt7__cxx1112basic_stringIcSt11char_traitsIcESaIcEEEmm
FN:433,_ZN2sf12RenderWindowC2ENS_9VideoModeERKNSt7__cxx1112basic_stringIcSt11char_traitsIcESaIcEEE
FNDA:2,_ZN2sf12RenderWindowC2ENS_9VideoModeERKNSt7__cxx1112basic_stringIcSt11char_traitsIcESaIcEEE
FN:441,_ZN2sf12RenderWindow6createERKNSt7__cxx1112basic_stringIcSt11char_traitsIcESaIcEEEmm
FNDA:0,_ZN2sf12RenderWindow6createERKNSt7__cxx1112basic_stringIcSt11char_traitsIcESaIcEEEmm
FN:450,_ZNK2sf12RenderWindow6isOpenEv
FNDA:0,_ZNK2sf12RenderWindow6isOpenEv
FN:454,_ZN2sf12RenderWindow9pollEventERNS_5EventE
FNDA:0,_ZN2sf12RenderWindow9pollEventERNS_5EventE
FN:465,_ZN2sf12RenderWindow5closeEv
FNDA:0,_ZN2sf12RenderWindow5closeEv
FN:471,_ZN2sf12RenderWindow17setFramerateLimitEm
FNDA:2,_ZN2sf12RenderWindow17setFramerateLimitEm
FN:477,_ZN2sf12RenderWindow5clearEv
FNDA:0,_ZN2sf12RenderWindow5clearEv
FN:482,_ZN2sf12RenderWindow5clearENS_5ColorE
FNDA:10,_ZN2sf12RenderWindow5clearENS_5ColorE
FN:487,_ZN2sf12RenderWindow4drawERKNS_6SpriteE
FNDA:6810,_ZN2sf12RenderWindow4drawERKNS_6SpriteE
FN:493,_ZN2sf12RenderWindow4drawERKNS_14RectangleShapeE
FNDA:10,_ZN2sf12RenderWindow4drawERKNS_14RectangleShapeE
FN:499,_ZN2sf12RenderWindow4drawERKNS_6SpriteENS_12RenderStatesE
FNDA:202,_ZN2sf12RenderWindow4drawERKNS_6SpriteENS_12RenderStatesE
FN:506,_ZN2sf12RenderWindow7displayEv
FNDA:10,_ZN2sf12RenderWindow7displayEv
FN:511,_ZN2sf12RenderStatesC2Ev
FNDA:207,_ZN2sf12RenderStatesC2Ev
FN:519,_ZN2sf12RenderStates12setBlendModeENS_9BlendModeE
FNDA:0,_ZN2sf12RenderStates12setBlendModeENS_9BlendModeE
FN:523,_ZN2sf12RenderStates12setTransformEPA4_Kf
FNDA:0,_ZN2sf12RenderStates12setTransformEPA4_Kf
FN:531,_ZN2sf9VideoModeC2Emm
FNDA:2,_ZN2sf9VideoModeC2Emm
FN:533,_ZNK2sf9VideoMode7isValidEv
FNDA:0,_ZNK2sf9VideoMode7isValidEv
FN:537,_ZN2sf9VideoMode14getDesktopModeEv
FNDA:0,_ZN2sf9VideoMode14getDesktopModeEv
FN:541,_ZN2sf9TransformC2Ev
FNDA:591,_ZN2sf9TransformC2Ev
FN:547,_ZN2sf9TransformC2Efffffffff
FNDA:192,_ZN2sf9TransformC2Efffffffff
FN:553,_ZN2sf9Transform7combineERKS0_
FNDA:0,_ZN2sf9Transform7combineERKS0_
FN:561,_ZNK2sf9Transform14transformPointEff
FNDA:0,_ZNK2sf9Transform14transformPointEff
FN:566,_ZN2sf9FloatRectC2Ev
FNDA:0,_ZN2sf9FloatRectC2Ev
FN:568,_ZN2sf9FloatRectC2Effff
FNDA:805,_ZN2sf9FloatRectC2Effff
FN:570,_ZNK2sf9FloatRect8containsEff
FNDA:0,_ZNK2sf9FloatRect8containsEff
FN:574,_ZN2sf9Transform9translateEff
FNDA:192,_ZN2sf9Transform9translateEff
FN:582,_ZN2sf9Transform9translateENS_8Vector2fE
FNDA:192,_ZN2sf9Transform9translateENS_8Vector2fE
DA:4,1346
DA:5,2692
DA:8,366
DA:9,366
DA:10,366
DA:11,366
DA:13,100550
DA:14,201100
DA:15,100550
DA:17,7849
DA:18,15698
DA:19,15698
DA:20,7849
DA:22,12
DA:23,24
DA:25,12
DA:27,138
DA:28,276
DA:29,276
DA:30,138
DA:32,33633
DA:33,67266
DA:35,33633
DA:37,33633
DA:38,33633
DA:40,33633
DA:42,138
DA:43,138
DA:44,138
DA:47,0
DA:49,69
DA:51,357
DA:52,357
DA:53,6
DA:54,3
DA:55,3
DA:57,354
DA:58,0
DA:59,0
DA:61,708
DA:62,708
DA:65,354
DA:67,708
DA:69,354
DA:71,0
DA:72,0
DA:73,0
DA:75,33332
DA:76,33332
DA:77,33332
DA:79,33332
DA:82,33276
DA:83,66552
DA:86,33276
DA:87,33276
DA:88,33276
DA:89,33276
DA:90,33276
DA:91,33276
DA:92,33276
DA:93,33276
DA:95,657
DA:96,657
DA:99,24
DA:100,24
DA:101,24
DA:104,762
DA:105,762
DA:106,762
DA:109,19
DA:110,19
DA:113,33332
DA:114,66664
DA:116,33332
DA:117,33332
DA:119,69
DA:120,207
DA:121,276
DA:122,138
DA:123,207
DA:124,69
DA:126,7370
DA:127,7370
DA:128,22110
DA:129,14740
DA:130,7370
DA:132,458
DA:133,458
DA:134,1374
DA:135,916
DA:136,458
DA:138,0
DA:139,0
DA:140,0
DA:141,0
DA:142,0
DA:143,0
DA:145,33276
DA:146,33276
DA:148,33276
DA:149,184
DA:150,184
DA:151,184
DA:152,184
DA:153,0
DA:154,0
DA:155,0
DA:156,138
DA:157,138
DA:160,0
DA:162,0
DA:164,0
DA:166,0
DA:167,2
DA:169,2
DA:170,0
DA:171,0
DA:173,2
DA:174,2
DA:175,2
DA:176,0
DA:177,0
DA:178,0
DA:180,2
DA:181,2
DA:182,2
DA:184,0
DA:185,0
DA:186,0
DA:188,0
DA:191,5
DA:192,5
DA:193,0
DA:194,0
DA:195,0
DA:197,5
DA:198,10
DA:199,5
DA:200,5
DA:203,5
DA:204,10
DA:206,5
DA:207,5
DA:209,5
DA:210,10
DA:212,5
DA:214,1
DA:215,2
DA:217,1
DA:219,23
DA:220,23
DA:222,23
DA:224,3
DA:225,3
DA:226,3
DA:227,3
DA:228,3
DA:229,3
DA:230,3
DA:231,3
DA:232,2
DA:233,2
DA:234,2
DA:235,4
DA:236,4
DA:239,4
DA:242,3
DA:243,6
DA:245,3
DA:247,3
DA:248,6
DA:250,3
DA:252,4
DA:253,8
DA:254,4
DA:256,4
DA:257,2
DA:258,1
DA:259,1
DA:262,3
DA:263,3
DA:266,0
DA:268,33281
DA:269,33281
DA:270,33281
DA:271,33281
DA:272,33281
DA:273,33281
DA:274,5
DA:275,5
DA:276,5
DA:277,5
DA:278,5
DA:279,5
DA:280,585
DA:281,585
DA:282,585
DA:283,585
DA:284,585
DA:285,585
DA:294,659
DA:295,659
DA:296,1318
DA:297,1318
DA:298,659
DA:300,4
DA:301,4
DA:302,4
DA:303,4
DA:304,4
DA:306,8
DA:307,8
DA:308,4
DA:310,4
DA:311,4
DA:312,8
DA:313,8
DA:314,4
DA:316,0
DA:317,0
DA:318,0
DA:319,0
DA:320,0
DA:322,150
DA:323,150
DA:324,10
DA:325,10
DA:326,10
DA:327,10
DA:328,10
DA:329,10
DA:330,10
DA:331,10
DA:332,110
DA:333,110
DA:339,0
DA:340,0
DA:341,0
DA:342,0
DA:343,0
DA:344,0
DA:345,0
DA:346,0
DA:347,0
DA:348,0
DA:349,0
DA:350,0
DA:351,0
DA:352,0
DA:353,0
DA:354,0
DA:356,0
DA:358,0
DA:360,0
DA:361,0
DA:362,0
DA:363,0
DA:364,0
DA:365,0
DA:366,0
DA:367,0
DA:368,0
DA:369,0
DA:370,0
DA:371,0
DA:372,0
DA:373,0
DA:374,0
DA:375,0
DA:377,0
DA:379,0
DA:381,10
DA:382,10
DA:383,0
DA:384,0
DA:385,10
DA:386,10
DA:391,10
DA:392,10
DA:393,10
DA:394,10
DA:395,10
DA:396,10
DA:399,0
DA:400,0
DA:401,0
DA:402,0
DA:403,0
DA:404,0
DA:405,0
DA:406,0
DA:408,0
DA:410,0
DA:411,0
DA:412,0
DA:413,0
DA:414,0
DA:415,0
DA:416,0
DA:417,0
DA:419,0
DA:421,0
DA:422,0
DA:423,0
DA:425,0
DA:427,0
DA:428,0
DA:429,0
DA:430,0
DA:431,0
DA:433,2
DA:434,2
DA:435,2
DA:436,2
DA:437,4
DA:438,4
DA:439,2
DA:441,0
DA:442,0
DA:443,0
DA:444,0
DA:445,0
DA:446,0
DA:447,0
DA:448,0
DA:450,0
DA:451,0
DA:454,0
DA:455,0
DA:456,0
DA:458,0
DA:459,0
DA:461,0
DA:462,0
DA:465,0
DA:466,0
DA:467,0
DA:469,0
DA:471,2
DA:472,2
DA:473,4
DA:474,4
DA:475,2
DA:477,0
DA:478,0
DA:480,0
DA:482,10
DA:483,20
DA:484,20
DA:485,10
DA:487,6810
DA:488,6810
DA:489,13620
DA:491,6810
DA:493,10
DA:494,10
DA:495,20
DA:497,10
DA:499,202
DA:500,202
DA:501,202
DA:502,404
DA:504,202
DA:506,10
DA:507,20
DA:509,10
DA:511,207
DA:512,828
DA:513,2484
DA:514,3105
DA:517,207
DA:519,0
DA:520,0
DA:521,0
DA:523,0
DA:524,0
DA:525,0
DA:526,0
DA:529,0
DA:531,2
DA:533,0
DA:534,0
DA:537,0
DA:538,0
DA:541,591
DA:542,591
DA:543,591
DA:544,591
DA:545,591
DA:547,192
DA:548,192
DA:549,192
DA:550,192
DA:551,192
DA:553,0
DA:554,0
DA:555,0
DA:558,0
DA:561,0
DA:562,0
DA:563,0
DA:564,0
DA:566,0
DA:568,805
DA:570,0
DA:571,0
DA:574,192
DA:575,192
DA:576,192
DA:577,192
DA:578,576
DA:579,384
DA:580,192
DA:582,192
DA:583,192
DA:584,192
DA:585,192
DA:586,384
DA:587,384
DA:588,192
end_of_record
SF:/usr/include/c++/11/bits/allocator.h
DA:156,345604
DA:159,759934
DA:160,726296
DA:174,333639
end_of_record
SF:/usr/include/c++/11/bits/char_traits.h
DA:356,139220
DA:357,33638
DA:393,550230
DA:396,550230
DA:399,550230
DA:429,5016
DA:431,5016
DA:437,5016
end_of_record
SF:/usr/include/c++/11/ext/new_allocator.h
DA:79,345604
DA:82,759934
DA:89,333639
end_of_record
SF:/usr/include/c++/11/bits/stl_iterator_base_funcs.h
DA:98,0
DA:104,0
DA:138,0
DA:141,0
end_of_record
SF:/mnt/c/users/gabci/desktop/nhf2/src/fake_sfml/fake_sfml.h
FN:207,_ZN2sf11SoundSourceD0Ev
FNDA:0,_ZN2sf11SoundSourceD0Ev
FN:207,_ZN2sf11SoundSourceD2Ev
FNDA:0,_ZN2sf11SoundSourceD2Ev
DA:207,0
DA:207,0
end_of_record
SF:/usr/include/c++/11/ext/string_conversions.h
FN:99,_ZN9__gnu_cxx12__to_xstringINSt7__cxx1112basic_stringIcSt11char_traitsIcESaIcEEEcEET_PFiPT0_mPKS8_P13__va_list_tagEmSB_z
FNDA:64260,_ZN9__gnu_cxx12__to_xstringINSt7__cxx1112basic_stringIcSt11char_traitsIcESaIcEEEcEET_PFiPT0_mPKS8_P13__va_list_tagEmSB_z
DA:99,64260
DA:105,64260
DA:109,64260
DA:111,64260
DA:113,64260
DA:115,64260
end_of_record
SF:/usr/include/c++/11/bits/alloc_traits.h
DA:562,0
DA:563,0
end_of_record
SF:/usr/include/c++/11/bits/charconv.h
FN:47,_ZNSt8__detail14__to_chars_lenImEEjT_i
FNDA:12,_ZNSt8__detail14__to_chars_lenImEEjT_i
FN:47,_ZNSt8__detail14__to_chars_lenIjEEjT_i
FNDA:6212,_ZNSt8__detail14__to_chars_lenIjEEjT_i
FN:72,_ZNSt8__detail18__to_chars_10_implImEEvPcjT_
FNDA:12,_ZNSt8__detail18__to_chars_10_implImEEvPcjT_
FN:72,_ZNSt8__detail18__to_chars_10_implIjEEvPcjT_
FNDA:0,_ZNSt8__detail18__to_chars_10_implIjEEvPcjT_
DA:47,12
DA:52,12
DA:53,12
DA:54,12
DA:55,12
DA:56,0
DA:58,12
DA:59,12
DA:60,8
DA:61,0
DA:62,0
DA:63,0
DA:47,6212
DA:52,6212
DA:53,6212
DA:54,6212
DA:55,6212
DA:56,0
DA:58,6212
DA:59,2490
DA:60,1890
DA:61,0
DA:62,0
DA:63,0
DA:72,12
DA:83,12
DA:84,20
DA:86,8
DA:87,8
DA:88,8
DA:89,8
DA:90,8
DA:92,12
DA:94,4
DA:95,4
DA:96,4
DA:99,8
DA:100,12
DA:72,0
DA:83,0
DA:84,0
DA:86,0
DA:87,0
DA:88,0
DA:89,0
DA:90,0
DA:92,0
DA:94,0
DA:95,0
DA:96,0
DA:99,0
DA:100,0
end_of_record
SF:/usr/include/c++/11/bits/basic_ios.h
DA:137,366
DA:138,366
DA:180,366
DA:181,366
end_of_record
SF:/usr/include/c++/11/bits/move.h
DA:104,139220
end_of_record
SF:/usr/include/c++/11/iostream
end_of_record
TN:
SF:/usr/include/x86_64-linux-gnu/c++/11/bits/gthr-default.h
DA:746,0
DA:748,0
DA:749,0
DA:776,0
DA:778,0
DA:779,0
end_of_record
SF:/usr/include/c++/11/bits/char_traits.h
DA:356,0
DA:357,0
DA:393,0
DA:396,0
DA:399,0
end_of_record
SF:/usr/include/c++/11/bits/stl_pair.h
DA:211,13
end_of_record
SF:/usr/include/c++/11/ostream
DA:108,0
DA:113,0
end_of_record
SF:/usr/include/c++/11/bits/hashtable_policy.h
FN:1892,_ZNSt8__detail16_Hashtable_allocISaINS_10_Hash_nodeISt4pairIKNSt7__cxx1112basic_stringIcSt11char_traitsIcESaIcEEES8_ELb1EEEEE18_M_deallocate_nodeEPSB_
FNDA:13,_ZNSt8__detail16_Hashtable_allocISaINS_10_Hash_nodeISt4pairIKNSt7__cxx1112basic_stringIcSt11char_traitsIcESaIcEEES8_ELb1EEEEE18_M_deallocate_nodeEPSB_
FN:1900,_ZNSt8__detail16_Hashtable_allocISaINS_10_Hash_nodeISt4pairIKNSt7__cxx1112basic_stringIcSt11char_traitsIcESaIcEEES8_ELb1EEEEE22_M_deallocate_node_ptrEPSB_
FNDA:13,_ZNSt8__detail16_Hashtable_allocISaINS_10_Hash_nodeISt4pairIKNSt7__cxx1112basic_stringIcSt11char_traitsIcESaIcEEES8_ELb1EEEEE22_M_deallocate_node_ptrEPSB_
FN:1910,_ZNSt8__detail16_Hashtable_allocISaINS_10_Hash_nodeISt4pairIKNSt7__cxx1112basic_stringIcSt11char_traitsIcESaIcEEES8_ELb1EEEEE19_M_deallocate_nodesEPSB_
FNDA:1,_ZNSt8__detail16_Hashtable_allocISaINS_10_Hash_nodeISt4pairIKNSt7__cxx1112basic_stringIcSt11char_traitsIcESaIcEEES8_ELb1EEEEE19_M_deallocate_nodesEPSB_
FN:1935,_ZNSt8__detail16_Hashtable_allocISaINS_10_Hash_nodeISt4pairIKNSt7__cxx1112basic_stringIcSt11char_traitsIcESaIcEEES8_ELb1EEEEE21_M_deallocate_bucketsEPPNS_15_Hash_node_baseEm
FNDA:1,_ZNSt8__detail16_Hashtable_allocISaINS_10_Hash_nodeISt4pairIKNSt7__cxx1112basic_stringIcSt11char_traitsIcESaIcEEES8_ELb1EEEEE21_M_deallocate_bucketsEPPNS_15_Hash_node_baseEm
DA:238,13
DA:282,13
DA:283,13
DA:1124,1
DA:1802,1
DA:1892,13
DA:1894,13
DA:1895,13
DA:1896,13
DA:1900,13
DA:1903,13
DA:1904,13
DA:1905,13
DA:1906,13
DA:1910,1
DA:1912,14
DA:1914,13
DA:1915,13
DA:1916,13
DA:1918,1
DA:1935,1
DA:1940,1
DA:1941,1
DA:1942,1
DA:1943,1
end_of_record
SF:/usr/include/c++/11/bits/allocator.h
DA:156,0
DA:159,0
DA:160,0
DA:169,1
DA:174,13
end_of_record
SF:/usr/include/c++/11/bits/basic_string.h
FN:533,_ZNSt7__cxx1112basic_stringIcSt11char_traitsIcESaIcEEC2IS3_EEPKcRKS3_
FNDA:0,_ZNSt7__cxx1112basic_stringIcSt11char_traitsIcESaIcEEC2IS3_EEPKcRKS3_
DA:158,26
DA:164,0
DA:165,0
DA:186,0
DA:187,0
DA:190,0
DA:191,0
DA:194,0
DA:195,0
DA:198,0
DA:201,0
DA:218,0
DA:219,0
DA:222,0
DA:224,0
DA:225,0
DA:404,0
DA:406,0
DA:533,0
DA:534,0
DA:536,0
DA:539,0
DA:540,0
DA:671,13
DA:672,13
DA:920,0
DA:921,0
DA:2320,0
DA:2321,0
DA:2332,0
DA:2333,0
DA:6248,0
DA:6250,0
DA:6531,0
DA:6536,0
DA:6619,0
DA:6620,0
DA:6645,0
DA:6646,0
end_of_record
SF:/usr/include/c++/11/bits/locale_facets.h
FN:875,_ZNKSt5ctypeIcE5widenEc
FNDA:0,_ZNKSt5ctypeIcE5widenEc
DA:875,0
DA:877,0
DA:878,0
DA:879,0
DA:880,0
end_of_record
SF:/mnt/c/users/gabci/desktop/nhf2/src/YAMLParser.h
DA:23,0
end_of_record
SF:/mnt/c/users/gabci/desktop/nhf2/src/GameConfig.cpp
FN:3,_ZN10GameConfigC2Ev
FNDA:1,_ZN10GameConfigC2Ev
FN:5,_ZN10GameConfig12get_instanceEv
FNDA:326232,_ZN10GameConfig12get_instanceEv
FN:10,_ZNK10GameConfig16get_config_levelEv
FNDA:17,_ZNK10GameConfig16get_config_levelEv
FN:14,_ZNK10GameConfig14get_target_fpsEv
FNDA:2,_ZNK10GameConfig14get_target_fpsEv
FN:18,_ZN10GameConfig16set_config_levelEi
FNDA:0,_ZN10GameConfig16set_config_levelEi
FN:33,_ZNK10GameConfig16get_screen_widthEv
FNDA:16297,_ZNK10GameConfig16get_screen_widthEv
FN:37,_ZNK10GameConfig17get_screen_heightEv
FNDA:16297,_ZNK10GameConfig17get_screen_heightEv
FN:41,_ZNK10GameConfig14get_world_sizeEv
FNDA:19,_ZNK10GameConfig14get_world_sizeEv
FN:44,_ZN10GameConfig14set_world_sizeEi
FNDA:0,_ZN10GameConfig14set_world_sizeEi
FN:50,_ZNK10GameConfig8get_langEv
FNDA:17,_ZNK10GameConfig8get_langEv
FN:53,_ZNK10GameConfig13get_sfml_langEv
FNDA:292431,_ZNK10GameConfig13get_sfml_langEv
FN:57,_ZNK10GameConfig19get_max_spawn_triesEv
FNDA:484,_ZNK10GameConfig19get_max_spawn_triesEv
FN:60,_ZNK10GameConfig21get_resource_scarcityEv
FNDA:95,_ZNK10GameConfig21get_resource_scarcityEv
FN:63,_ZNK10GameConfig18get_hostiles_countEv
FNDA:38,_ZNK10GameConfig18get_hostiles_countEv
FN:67,_Z4trimRKNSt7__cxx1112basic_stringIcSt11char_traitsIcESaIcEEE
FNDA:0,_Z4trimRKNSt7__cxx1112basic_stringIcSt11char_traitsIcESaIcEEE
FN:76,_ZN10GameConfig21read_from_config_fileERKNSt7__cxx1112basic_stringIcSt11char_traitsIcESaIcEEE
FNDA:0,_ZN10GameConfig21read_from_config_fileERKNSt7__cxx1112basic_stringIcSt11char_traitsIcESaIcEEE
FN:127,_ZNK10GameConfig8is_noiseEv
FNDA:2,_ZNK10GameConfig8is_noiseEv
FN:130,_ZNK10GameConfig23is_chromatic_aberrationEv
FNDA:2,_ZNK10GameConfig23is_chromatic_aberrationEv
DA:3,1
DA:5,326232
DA:6,326232
DA:7,326232
DA:10,17
DA:11,17
DA:14,2
DA:15,2
DA:18,0
DA:20,0
DA:22,0
DA:23,0
DA:24,0
DA:25,0
DA:26,0
DA:29,0
DA:31,0
DA:33,16297
DA:34,16297
DA:37,16297
DA:38,16297
DA:41,19
DA:42,19
DA:44,0
DA:45,0
DA:46,0
DA:48,0
DA:50,17
DA:51,17
DA:53,292431
DA:54,292431
DA:57,484
DA:58,484
DA:60,95
DA:61,95
DA:63,38
DA:64,38
DA:67,0
DA:68,0
DA:69,0
DA:70,0
DA:72,0
DA:73,0
DA:76,0
DA:77,0
DA:78,0
DA:79,0
DA:80,0
DA:81,0
DA:82,0
DA:83,0
DA:87,0
DA:88,0
DA:92,0
DA:93,0
DA:94,0
DA:95,0
DA:96,0
DA:98,0
DA:99,0
DA:100,0
DA:101,0
DA:102,0
DA:104,0
DA:106,0
DA:107,0
DA:108,0
DA:109,0
DA:110,0
DA:112,0
DA:115,0
DA:116,0
DA:117,0
DA:118,0
DA:119,0
DA:120,0
DA:121,0
DA:122,0
DA:124,0
DA:125,0
DA:127,2
DA:128,2
DA:130,2
DA:131,2
end_of_record
SF:/usr/include/c++/11/bits/basic_string.tcc
FN:206,_ZNSt7__cxx1112basic_stringIcSt11char_traitsIcESaIcEE12_M_constructIPKcEEvT_S8_St20forward_iterator_tag
FNDA:0,_ZNSt7__cxx1112basic_stringIcSt11char_traitsIcESaIcEE12_M_constructIPKcEEvT_S8_St20forward_iterator_tag
DA:206,0
DA:211,0
DA:212,0
DA:215,0
DA:217,0
DA:219,0
DA:220,0
DA:225,0
DA:232,0
DA:233,0
end_of_record
SF:/usr/include/c++/11/bits/hashtable.h
FN:453,_ZNSt10_HashtableINSt7__cxx1112basic_stringIcSt11char_traitsIcESaIcEEESt4pairIKS5_S5_ESaIS8_ENSt8__detail10_Select1stESt8equal_toIS5_ESt4hashIS5_ENSA_18_Mod_range_hashingENSA_20_Default_ranged_hashENSA_20_Prime_rehash_policyENSA_17_Hashtable_traitsILb1ELb0ELb1EEEE21_M_deallocate_bucketsEv
FNDA:1,_ZNSt10_HashtableINSt7__cxx1112basic_stringIcSt11char_traitsIcESaIcEEESt4pairIKS5_S5_ESaIS8_ENSt8__detail10_Select1stESt8equal_toIS5_ESt4hashIS5_ENSA_18_Mod_range_hashingENSA_20_Default_ranged_hashENSA_20_Prime_rehash_policyENSA_17_Hashtable_traitsILb1ELb0ELb1EEEE21_M_deallocate_bucketsEv
FN:1528,_ZNSt10_HashtableINSt7__cxx1112basic_stringIcSt11char_traitsIcESaIcEEESt4pairIKS5_S5_ESaIS8_ENSt8__detail10_Select1stESt8equal_toIS5_ESt4hashIS5_ENSA_18_Mod_range_hashingENSA_20_Default_ranged_hashENSA_20_Prime_rehash_policyENSA_17_Hashtable_traitsILb1ELb0ELb1EEEED2Ev
FNDA:1,_ZNSt10_HashtableINSt7__cxx1112basic_stringIcSt11char_traitsIcESaIcEEESt4pairIKS5_S5_ESaIS8_ENSt8__detail10_Select1stESt8equal_toIS5_ESt4hashIS5_ENSA_18_Mod_range_hashingENSA_20_Default_ranged_hashENSA_20_Prime_rehash_policyENSA_17_Hashtable_traitsILb1ELb0ELb1EEEED2Ev
FN:2316,_ZNSt10_HashtableINSt7__cxx1112basic_stringIcSt11char_traitsIcESaIcEEESt4pairIKS5_S5_ESaIS8_ENSt8__detail10_Select1stESt8equal_toIS5_ESt4hashIS5_ENSA_18_Mod_range_hashingENSA_20_Default_ranged_hashENSA_20_Prime_rehash_policyENSA_17_Hashtable_traitsILb1ELb0ELb1EEEE5clearEv
FNDA:1,_ZNSt10_HashtableINSt7__cxx1112basic_stringIcSt11char_traitsIcESaIcEEESt4pairIKS5_S5_ESaIS8_ENSt8__detail10_Select1stESt8equal_toIS5_ESt4hashIS5_ENSA_18_Mod_range_hashingENSA_20_Default_ranged_hashENSA_20_Prime_rehash_policyENSA_17_Hashtable_traitsILb1ELb0ELb1EEEE5clearEv
DA:421,1
DA:422,1
DA:444,1
DA:446,1
DA:449,1
DA:453,1
DA:454,1
DA:462,1
DA:463,1
DA:1528,1
DA:1532,1
DA:1533,1
DA:1534,1
DA:2316,1
DA:2320,1
DA:2321,1
DA:2322,1
DA:2323,1
DA:2324,1
DA:2325,1
end_of_record
SF:/usr/include/c++/11/iostream
end_of_record
SF:/usr/include/c++/11/bits/unordered_map.h
DA:102,0
end_of_record
SF:/usr/include/c++/11/ext/aligned_buffer.h
DA:104,13
DA:115,13
end_of_record
SF:/usr/include/c++/11/ext/string_conversions.h
FN:54,_ZN9__gnu_cxx6__stoaIffcJEEET0_PFT_PKT1_PPS3_DpT2_EPKcS5_PmS9_
FNDA:0,_ZN9__gnu_cxx6__stoaIffcJEEET0_PFT_PKT1_PPS3_DpT2_EPKcS5_PmS9_
FN:54,_ZN9__gnu_cxx6__stoaIlicJiEEET0_PFT_PKT1_PPS3_DpT2_EPKcS5_PmS9_
FNDA:56,_ZN9__gnu_cxx6__stoaIlicJiEEET0_PFT_PKT1_PPS3_DpT2_EPKcS5_PmS9_
FN:64,_ZZN9__gnu_cxx6__stoaIffcJEEET0_PFT_PKT1_PPS3_DpT2_EPKcS5_PmS9_EN11_Save_errnoD2Ev
FNDA:0,_ZZN9__gnu_cxx6__stoaIffcJEEET0_PFT_PKT1_PPS3_DpT2_EPKcS5_PmS9_EN11_Save_errnoD2Ev
FN:64,_ZZN9__gnu_cxx6__stoaIlicJiEEET0_PFT_PKT1_PPS3_DpT2_EPKcS5_PmS9_EN11_Save_errnoD2Ev
FNDA:56,_ZZN9__gnu_cxx6__stoaIlicJiEEET0_PFT_PKT1_PPS3_DpT2_EPKcS5_PmS9_EN11_Save_errnoD2Ev
DA:54,0
DA:63,0
DA:66,0
DA:80,0
DA:82,0
DA:83,0
DA:84,0
DA:85,0
DA:86,0
DA:88,0
DA:90,0
DA:91,0
DA:93,0
DA:94,0
DA:54,56
DA:63,56
DA:66,56
DA:73,56
DA:76,56
DA:80,56
DA:82,56
DA:83,0
DA:84,56
DA:85,56
DA:86,0
DA:88,56
DA:90,56
DA:91,0
DA:93,56
DA:94,56
DA:64,0
DA:64,56
end_of_record
SF:/usr/include/c++/11/bits/std_mutex.h
FN:98,_ZNSt5mutex4lockEv
FNDA:0,_ZNSt5mutex4lockEv
DA:65,1
DA:91,1
DA:98,0
DA:100,0
DA:103,0
DA:104,0
DA:105,0
DA:115,0
DA:118,0
DA:228,0
DA:229,0
DA:234,0
DA:235,0
end_of_record
SF:/usr/include/c++/11/bits/alloc_traits.h
DA:495,14
DA:496,14
DA:531,13
DA:535,13
end_of_record
SF:/usr/include/c++/11/bits/stl_iterator_base_funcs.h
DA:98,0
DA:104,0
DA:138,0
DA:141,0
end_of_record
SF:/usr/include/c++/11/ext/new_allocator.h
DA:79,1
DA:82,0
DA:89,13
DA:132,14
DA:145,14
DA:166,13
DA:168,13
end_of_record
TN:
SF:/mnt/c/users/gabci/desktop/nhf2/src/SoundPlayer.h
DA:28,4
end_of_record
SF:/usr/include/c++/11/bits/basic_string.h
FN:533,_ZNSt7__cxx1112basic_stringIcSt11char_traitsIcESaIcEEC2IS3_EEPKcRKS3_
FNDA:12,_ZNSt7__cxx1112basic_stringIcSt11char_traitsIcESaIcEEC2IS3_EEPKcRKS3_
FN:6132,_ZStplIcSt11char_traitsIcESaIcEENSt7__cxx1112basic_stringIT_T0_T1_EERKS8_PKS5_
FNDA:12,_ZStplIcSt11char_traitsIcESaIcEENSt7__cxx1112basic_stringIT_T0_T1_EERKS8_PKS5_
DA:158,38
DA:164,12
DA:165,12
DA:186,1284
DA:187,1284
DA:190,65766
DA:191,65766
DA:194,131532
DA:195,65766
DA:198,12
DA:201,12
DA:218,1284
DA:219,1284
DA:222,65766
DA:224,65766
DA:225,65766
DA:400,65766
DA:401,65766
DA:404,0
DA:406,0
DA:533,12
DA:534,12
DA:536,12
DA:539,12
DA:540,12
DA:671,7
DA:672,31
DA:6132,12
DA:6135,12
DA:6136,12
DA:6137,12
DA:6138,0
end_of_record
SF:/usr/include/c++/11/bits/stl_uninitialized.h
DA:1006,16
DA:1009,16
DA:1010,16
DA:1011,6
DA:1012,8
DA:1040,8
DA:1046,14
end_of_record
SF:/usr/include/c++/11/bits/basic_string.tcc
FN:206,_ZNSt7__cxx1112basic_stringIcSt11char_traitsIcESaIcEE12_M_constructIPcEEvT_S7_St20forward_iterator_tag
FNDA:65766,_ZNSt7__cxx1112basic_stringIcSt11char_traitsIcESaIcEE12_M_constructIPcEEvT_S7_St20forward_iterator_tag
FN:206,_ZNSt7__cxx1112basic_stringIcSt11char_traitsIcESaIcEE12_M_constructIPKcEEvT_S8_St20forward_iterator_tag
FNDA:0,_ZNSt7__cxx1112basic_stringIcSt11char_traitsIcESaIcEE12_M_constructIPKcEEvT_S8_St20forward_iterator_tag
DA:206,65766
DA:211,65766
DA:212,0
DA:215,65766
DA:217,65766
DA:219,1284
DA:220,65766
DA:225,65766
DA:232,65766
DA:233,65766
DA:206,0
DA:211,0
DA:212,0
DA:215,0
DA:217,0
DA:219,0
DA:220,0
DA:225,0
DA:232,0
DA:233,0
end_of_record
SF:/mnt/c/users/gabci/desktop/nhf2/src/EntityPlacer.h
DA:39,4
DA:56,2
end_of_record
SF:/usr/include/c++/11/bits/stl_iterator.h
DA:1027,16
DA:1028,140
DA:1042,12
DA:1052,132
DA:1054,132
DA:1055,132
DA:1100,12
DA:1101,12
DA:1179,14
DA:1268,8
DA:1271,8
end_of_record
SF:/mnt/c/users/gabci/desktop/nhf2/src/PostProcesser.h
end_of_record
SF:/usr/include/c++/11/bits/char_traits.h
DA:356,65766
DA:357,65766
DA:393,12
DA:396,12
DA:399,12
end_of_record
SF:/mnt/c/users/gabci/desktop/nhf2/src/SaveManager.h
DA:32,2
end_of_record
SF:/usr/include/c++/11/bits/stl_pair.h
DA:211,5
end_of_record
SF:/usr/include/c++/11/bits/stl_vector.h
FN:333,_ZNSt12_Vector_baseIPN2ui6ButtonESaIS2_EED2Ev
FNDA:2,_ZNSt12_Vector_baseIPN2ui6ButtonESaIS2_EED2Ev
FN:1756,_ZNKSt6vectorIPN2ui6ButtonESaIS2_EE12_M_check_lenEmPKc
FNDA:8,_ZNKSt6vectorIPN2ui6ButtonESaIS2_EE12_M_check_lenEmPKc
DA:97,2
DA:98,2
DA:128,2
DA:131,2
DA:133,2
DA:276,2
DA:277,8
DA:288,2
DA:333,2
DA:335,4
DA:336,2
DA:337,2
DA:343,8
DA:346,8
DA:350,10
DA:353,10
DA:354,8
DA:453,16
DA:456,16
DA:465,14
DA:469,8
DA:487,2
DA:678,2
DA:680,2
DA:681,2
DA:683,2
DA:811,28
DA:812,28
DA:829,160
DA:830,148
DA:918,10
DA:919,2
DA:924,8
DA:1043,12
DA:1046,12
DA:1143,12
DA:1146,12
DA:1203,12
DA:1204,12
DA:1756,8
DA:1758,8
DA:1759,0
DA:1761,8
DA:1762,8
end_of_record
SF:/usr/include/c++/11/bits/stl_algobase.h
DA:254,8
DA:259,8
DA:260,2
end_of_record
SF:/usr/include/c++/11/bits/allocator.h
DA:156,10
DA:159,12
DA:160,12
DA:169,5
DA:174,33
end_of_record
SF:/usr/include/c++/11/bits/vector.tcc
FN:109,_ZNSt6vectorIPN2ui6ButtonESaIS2_EE12emplace_backIJS2_EEERS2_DpOT_
FNDA:12,_ZNSt6vectorIPN2ui6ButtonESaIS2_EE12emplace_backIJS2_EEERS2_DpOT_
FN:426,_ZNSt6vectorIPN2ui6ButtonESaIS2_EE17_M_realloc_insertIJS2_EEEvN9__gnu_cxx17__normal_iteratorIPS2_S4_EEDpOT_
FNDA:8,_ZNSt6vectorIPN2ui6ButtonESaIS2_EE17_M_realloc_insertIJS2_EEEvN9__gnu_cxx17__normal_iteratorIPS2_S4_EEDpOT_
DA:109,12
DA:112,12
DA:115,4
DA:117,4
DA:121,8
DA:123,12
DA:426,8
DA:436,8
DA:437,8
DA:438,8
DA:439,8
DA:440,8
DA:441,8
DA:449,8
DA:450,8
DA:456,8
DA:461,8
DA:462,8
DA:464,8
DA:466,16
DA:467,8
DA:500,16
DA:501,8
DA:502,8
DA:503,8
DA:504,8
DA:505,8
end_of_record
SF:/usr/include/c++/11/bits/hashtable_policy.h
FN:1892,_ZNSt8__detail16_Hashtable_allocISaINS_10_Hash_nodeISt4pairIKiSt8functionIFbvEEELb0EEEEE18_M_deallocate_nodeEPS8_
FNDA:0,_ZNSt8__detail16_Hashtable_allocISaINS_10_Hash_nodeISt4pairIKiSt8functionIFbvEEELb0EEEEE18_M_deallocate_nodeEPS8_
FN:1892,_ZNSt8__detail16_Hashtable_allocISaINS_10_Hash_nodeISt4pairIKiSt8functionIFbR5WorldRKN2sf8Vector2iEEEELb0EEEEE18_M_deallocate_nodeEPSE_
FNDA:0,_ZNSt8__detail16_Hashtable_allocISaINS_10_Hash_nodeISt4pairIKiSt8functionIFbR5WorldRKN2sf8Vector2iEEEELb0EEEEE18_M_deallocate_nodeEPSE_
FN:1892,_ZNSt8__detail16_Hashtable_allocISaINS_10_Hash_nodeISt4pairIKNSt7__cxx1112basic_stringIcSt11char_traitsIcESaIcEEEN2sf11SoundBufferEELb1EEEEE18_M_deallocate_nodeEPSD_
FNDA:5,_ZNSt8__detail16_Hashtable_allocISaINS_10_Hash_nodeISt4pairIKNSt7__cxx1112basic_stringIcSt11char_traitsIcESaIcEEEN2sf11SoundBufferEELb1EEEEE18_M_deallocate_nodeEPSD_
FN:1900,_ZNSt8__detail16_Hashtable_allocISaINS_10_Hash_nodeISt4pairIKiSt8functionIFbvEEELb0EEEEE22_M_deallocate_node_ptrEPS8_
FNDA:0,_ZNSt8__detail16_Hashtable_allocISaINS_10_Hash_nodeISt4pairIKiSt8functionIFbvEEELb0EEEEE22_M_deallocate_node_ptrEPS8_
FN:1900,_ZNSt8__detail16_Hashtable_allocISaINS_10_Hash_nodeISt4pairIKiSt8functionIFbR5WorldRKN2sf8Vector2iEEEELb0EEEEE22_M_deallocate_node_ptrEPSE_
FNDA:0,_ZNSt8__detail16_Hashtable_allocISaINS_10_Hash_nodeISt4pairIKiSt8functionIFbR5WorldRKN2sf8Vector2iEEEELb0EEEEE22_M_deallocate_node_ptrEPSE_
FN:1900,_ZNSt8__detail16_Hashtable_allocISaINS_10_Hash_nodeISt4pairIKNSt7__cxx1112basic_stringIcSt11char_traitsIcESaIcEEEN2sf11SoundBufferEELb1EEEEE22_M_deallocate_node_ptrEPSD_
FNDA:5,_ZNSt8__detail16_Hashtable_allocISaINS_10_Hash_nodeISt4pairIKNSt7__cxx1112basic_stringIcSt11char_traitsIcESaIcEEEN2sf11SoundBufferEELb1EEEEE22_M_deallocate_node_ptrEPSD_
FN:1910,_ZNSt8__detail16_Hashtable_allocISaINS_10_Hash_nodeISt4pairIKiSt8functionIFbvEEELb0EEEEE19_M_deallocate_nodesEPS8_
FNDA:0,_ZNSt8__detail16_Hashtable_allocISaINS_10_Hash_nodeISt4pairIKiSt8functionIFbvEEELb0EEEEE19_M_deallocate_nodesEPS8_
FN:1910,_ZNSt8__detail16_Hashtable_allocISaINS_10_Hash_nodeISt4pairIKiSt8functionIFbR5WorldRKN2sf8Vector2iEEEELb0EEEEE19_M_deallocate_nodesEPSE_
FNDA:0,_ZNSt8__detail16_Hashtable_allocISaINS_10_Hash_nodeISt4pairIKiSt8functionIFbR5WorldRKN2sf8Vector2iEEEELb0EEEEE19_M_deallocate_nodesEPSE_
FN:1910,_ZNSt8__detail16_Hashtable_allocISaINS_10_Hash_nodeISt4pairIKNSt7__cxx1112basic_stringIcSt11char_traitsIcESaIcEEEN2sf11SoundBufferEELb1EEEEE19_M_deallocate_nodesEPSD_
FNDA:23,_ZNSt8__detail16_Hashtable_allocISaINS_10_Hash_nodeISt4pairIKNSt7__cxx1112basic_stringIcSt11char_traitsIcESaIcEEEN2sf11SoundBufferEELb1EEEEE19_M_deallocate_nodesEPSD_
FN:1935,_ZNSt8__detail16_Hashtable_allocISaINS_10_Hash_nodeISt4pairIKiSt8functionIFbvEEELb0EEEEE21_M_deallocate_bucketsEPPNS_15_Hash_node_baseEm
FNDA:0,_ZNSt8__detail16_Hashtable_allocISaINS_10_Hash_nodeISt4pairIKiSt8functionIFbvEEELb0EEEEE21_M_deallocate_bucketsEPPNS_15_Hash_node_baseEm
FN:1935,_ZNSt8__detail16_Hashtable_allocISaINS_10_Hash_nodeISt4pairIKiSt8functionIFbR5WorldRKN2sf8Vector2iEEEELb0EEEEE21_M_deallocate_bucketsEPPNS_15_Hash_node_baseEm
FNDA:0,_ZNSt8__detail16_Hashtable_allocISaINS_10_Hash_nodeISt4pairIKiSt8functionIFbR5WorldRKN2sf8Vector2iEEEELb0EEEEE21_M_deallocate_bucketsEPPNS_15_Hash_node_baseEm
FN:1935,_ZNSt8__detail16_Hashtable_allocISaINS_10_Hash_nodeISt4pairIKNSt7__cxx1112basic_stringIcSt11char_traitsIcESaIcEEEN2sf11SoundBufferEELb1EEEEE21_M_deallocate_bucketsEPPNS_15_Hash_node_baseEm
FNDA:5,_ZNSt8__detail16_Hashtable_allocISaINS_10_Hash_nodeISt4pairIKNSt7__cxx1112basic_stringIcSt11char_traitsIcESaIcEEEN2sf11SoundBufferEELb1EEEEE21_M_deallocate_bucketsEPPNS_15_Hash_node_baseEm
DA:219,2
DA:238,5
DA:282,5
DA:283,5
DA:446,2
DA:447,2
DA:1124,23
DA:1127,2
DA:1210,2
DA:1604,2
DA:1802,23
DA:1823,2
DA:1892,0
DA:1894,0
DA:1895,0
DA:1896,0
DA:1892,0
DA:1894,0
DA:1895,0
DA:1896,0
DA:1892,5
DA:1894,5
DA:1895,5
DA:1896,5
DA:1900,0
DA:1903,0
DA:1904,0
DA:1905,0
DA:1906,0
DA:1900,0
DA:1903,0
DA:1904,0
DA:1905,0
DA:1906,0
DA:1900,5
DA:1903,5
DA:1904,5
DA:1905,5
DA:1906,5
DA:1910,0
DA:1912,0
DA:1914,0
DA:1915,0
DA:1916,0
DA:1918,0
DA:1910,0
DA:1912,0
DA:1914,0
DA:1915,0
DA:1916,0
DA:1918,0
DA:1910,23
DA:1912,28
DA:1914,5
DA:1915,5
DA:1916,5
DA:1918,23
DA:1935,0
DA:1940,0
DA:1941,0
DA:1942,0
DA:1943,0
DA:1935,0
DA:1940,0
DA:1941,0
DA:1942,0
DA:1943,0
DA:1935,5
DA:1940,5
DA:1941,5
DA:1942,5
DA:1943,5
end_of_record
SF:/usr/include/c++/11/bits/std_function.h
FN:180,_ZNSt14_Function_base13_Base_managerIZN11GameManager13setup_buttonsEvEUlvE3_E10_M_managerERSt9_Any_dataRKS4_St18_Manager_operation
FNDA:6,_ZNSt14_Function_base13_Base_managerIZN11GameManager13setup_buttonsEvEUlvE3_E10_M_managerERSt9_Any_dataRKS4_St18_Manager_operation
FN:180,_ZNSt14_Function_base13_Base_managerIZN11GameManager13setup_buttonsEvEUlvE2_E10_M_managerERSt9_Any_dataRKS4_St18_Manager_operation
FNDA:6,_ZNSt14_Function_base13_Base_managerIZN11GameManager13setup_buttonsEvEUlvE2_E10_M_managerERSt9_Any_dataRKS4_St18_Manager_operation
FN:180,_ZNSt14_Function_base13_Base_managerIZN11GameManager13setup_buttonsEvEUlvE1_E10_M_managerERSt9_Any_dataRKS4_St18_Manager_operation
FNDA:6,_ZNSt14_Function_base13_Base_managerIZN11GameManager13setup_buttonsEvEUlvE1_E10_M_managerERSt9_Any_dataRKS4_St18_Manager_operation
FN:180,_ZNSt14_Function_base13_Base_managerIZN11GameManager13setup_buttonsEvEUlvE0_E10_M_managerERSt9_Any_dataRKS4_St18_Manager_operation
FNDA:6,_ZNSt14_Function_base13_Base_managerIZN11GameManager13setup_buttonsEvEUlvE0_E10_M_managerERSt9_Any_dataRKS4_St18_Manager_operation
FN:180,_ZNSt14_Function_base13_Base_managerIZN11GameManager13setup_buttonsEvEUlvE_E10_M_managerERSt9_Any_dataRKS4_St18_Manager_operation
FNDA:6,_ZNSt14_Function_base13_Base_managerIZN11GameManager13setup_buttonsEvEUlvE_E10_M_managerERSt9_Any_dataRKS4_St18_Manager_operation
FN:180,_ZNSt14_Function_base13_Base_managerIZN11GameManager13setup_buttonsEvEUlvE4_E10_M_managerERSt9_Any_dataRKS4_St18_Manager_operation
FNDA:6,_ZNSt14_Function_base13_Base_managerIZN11GameManager13setup_buttonsEvEUlvE4_E10_M_managerERSt9_Any_dataRKS4_St18_Manager_operation
FN:241,_ZNSt14_Function_baseD2Ev
FNDA:12,_ZNSt14_Function_baseD2Ev
FN:267,_ZNSt17_Function_handlerIFvvEZN11GameManager13setup_buttonsEvEUlvE3_E10_M_managerERSt9_Any_dataRKS4_St18_Manager_operation
FNDA:6,_ZNSt17_Function_handlerIFvvEZN11GameManager13setup_buttonsEvEUlvE3_E10_M_managerERSt9_Any_dataRKS4_St18_Manager_operation
FN:267,_ZNSt17_Function_handlerIFvvEZN11GameManager13setup_buttonsEvEUlvE2_E10_M_managerERSt9_Any_dataRKS4_St18_Manager_operation
FNDA:6,_ZNSt17_Function_handlerIFvvEZN11GameManager13setup_buttonsEvEUlvE2_E10_M_managerERSt9_Any_dataRKS4_St18_Manager_operation
FN:267,_ZNSt17_Function_handlerIFvvEZN11GameManager13setup_buttonsEvEUlvE1_E10_M_managerERSt9_Any_dataRKS4_St18_Manager_operation
FNDA:6,_ZNSt17_Function_handlerIFvvEZN11GameManager13setup_buttonsEvEUlvE1_E10_M_managerERSt9_Any_dataRKS4_St18_Manager_operation
FN:267,_ZNSt17_Function_handlerIFvvEZN11GameManager13setup_buttonsEvEUlvE0_E10_M_managerERSt9_Any_dataRKS4_St18_Manager_operation
FNDA:6,_ZNSt17_Function_handlerIFvvEZN11GameManager13setup_buttonsEvEUlvE0_E10_M_managerERSt9_Any_dataRKS4_St18_Manager_operation
FN:267,_ZNSt17_Function_handlerIFvvEZN11GameManager13setup_buttonsEvEUlvE_E10_M_managerERSt9_Any_dataRKS4_St18_Manager_operation
FNDA:6,_ZNSt17_Function_handlerIFvvEZN11GameManager13setup_buttonsEvEUlvE_E10_M_managerERSt9_Any_dataRKS4_St18_Manager_operation
FN:267,_ZNSt17_Function_handlerIFvvEZN11GameManager13setup_buttonsEvEUlvE4_E10_M_managerERSt9_Any_dataRKS4_St18_Manager_operation
FNDA:6,_ZNSt17_Function_handlerIFvvEZN11GameManager13setup_buttonsEvEUlvE4_E10_M_managerERSt9_Any_dataRKS4_St18_Manager_operation
FN:288,_ZNSt17_Function_handlerIFvvEZN11GameManager13setup_buttonsEvEUlvE4_E9_M_invokeERKSt9_Any_data
FNDA:0,_ZNSt17_Function_handlerIFvvEZN11GameManager13setup_buttonsEvEUlvE4_E9_M_invokeERKSt9_Any_data
FN:288,_ZNSt17_Function_handlerIFvvEZN11GameManager13setup_buttonsEvEUlvE3_E9_M_invokeERKSt9_Any_data
FNDA:0,_ZNSt17_Function_handlerIFvvEZN11GameManager13setup_buttonsEvEUlvE3_E9_M_invokeERKSt9_Any_data
FN:288,_ZNSt17_Function_handlerIFvvEZN11GameManager13setup_buttonsEvEUlvE2_E9_M_invokeERKSt9_Any_data
FNDA:0,_ZNSt17_Function_handlerIFvvEZN11GameManager13setup_buttonsEvEUlvE2_E9_M_invokeERKSt9_Any_data
FN:288,_ZNSt17_Function_handlerIFvvEZN11GameManager13setup_buttonsEvEUlvE1_E9_M_invokeERKSt9_Any_data
FNDA:0,_ZNSt17_Function_handlerIFvvEZN11GameManager13setup_buttonsEvEUlvE1_E9_M_invokeERKSt9_Any_data
FN:288,_ZNSt17_Function_handlerIFvvEZN11GameManager13setup_buttonsEvEUlvE0_E9_M_invokeERKSt9_Any_data
FNDA:0,_ZNSt17_Function_handlerIFvvEZN11GameManager13setup_buttonsEvEUlvE0_E9_M_invokeERKSt9_Any_data
FN:288,_ZNSt17_Function_handlerIFvvEZN11GameManager13setup_buttonsEvEUlvE_E9_M_invokeERKSt9_Any_data
FNDA:0,_ZNSt17_Function_handlerIFvvEZN11GameManager13setup_buttonsEvEUlvE_E9_M_invokeERKSt9_Any_data
DA:85,24
DA:86,12
DA:91,0
DA:95,0
DA:96,12
DA:134,0
DA:138,12
DA:150,24
DA:166,24
DA:168,24
DA:180,6
DA:183,6
DA:185,0
DA:187,0
DA:191,0
DA:193,0
DA:194,0
DA:195,0
DA:197,2
DA:198,6
DA:199,2
DA:202,4
DA:203,4
DA:204,4
DA:206,6
DA:180,6
DA:183,6
DA:185,0
DA:187,0
DA:191,0
DA:193,0
DA:194,0
DA:195,0
DA:197,2
DA:198,6
DA:199,2
DA:202,4
DA:203,4
DA:204,4
DA:206,6
DA:180,6
DA:183,6
DA:185,0
DA:187,0
DA:191,0
DA:193,0
DA:194,0
DA:195,0
DA:197,2
DA:198,6
DA:199,2
DA:202,4
DA:203,4
DA:204,4
DA:206,6
DA:180,6
DA:183,6
DA:185,0
DA:187,0
DA:191,0
DA:193,0
DA:194,0
DA:195,0
DA:197,2
DA:198,6
DA:199,2
DA:202,4
DA:203,4
DA:204,4
DA:206,6
DA:180,6
DA:183,6
DA:185,0
DA:187,0
DA:191,0
DA:193,0
DA:194,0
DA:195,0
DA:197,2
DA:198,6
DA:199,2
DA:202,4
DA:203,4
DA:204,4
DA:206,6
DA:180,6
DA:183,6
DA:185,0
DA:187,0
DA:191,0
DA:193,0
DA:194,0
DA:195,0
DA:197,2
DA:198,6
DA:199,2
DA:202,4
DA:203,4
DA:204,4
DA:206,6
DA:211,24
DA:215,24
DA:216,12
DA:235,12
DA:239,12
DA:241,12
DA:243,12
DA:244,12
DA:245,12
DA:267,6
DA:270,6
DA:273,0
DA:274,0
DA:275,0
DA:277,0
DA:278,0
DA:279,0
DA:281,6
DA:282,6
DA:284,6
DA:267,6
DA:270,6
DA:273,0
DA:274,0
DA:275,0
DA:277,0
DA:278,0
DA:279,0
DA:281,6
DA:282,6
DA:284,6
DA:267,6
DA:270,6
DA:273,0
DA:274,0
DA:275,0
DA:277,0
DA:278,0
DA:279,0
DA:281,6
DA:282,6
DA:284,6
DA:267,6
DA:270,6
DA:273,0
DA:274,0
DA:275,0
DA:277,0
DA:278,0
DA:279,0
DA:281,6
DA:282,6
DA:284,6
DA:267,6
DA:270,6
DA:273,0
DA:274,0
DA:275,0
DA:277,0
DA:278,0
DA:279,0
DA:281,6
DA:282,6
DA:284,6
DA:267,6
DA:270,6
DA:273,0
DA:274,0
DA:275,0
DA:277,0
DA:278,0
DA:279,0
DA:281,6
DA:282,6
DA:284,6
DA:288,0
DA:290,0
DA:291,0
DA:288,0
DA:290,0
DA:291,0
DA:288,0
DA:290,0
DA:291,0
DA:288,0
DA:290,0
DA:291,0
DA:288,0
DA:290,0
DA:291,0
DA:288,0
DA:290,0
DA:291,0
DA:334,12
DA:435,12
DA:437,12
DA:447,12
DA:449,12
DA:451,12
DA:452,12
end_of_record
SF:/usr/include/c++/11/bits/invoke.h
DA:60,0
DA:61,0
DA:104,0
DA:111,0
end_of_record
SF:/usr/include/c++/11/bits/alloc_traits.h
DA:463,8
DA:464,8
DA:495,18
DA:496,8
DA:511,12
DA:516,12
DA:531,5
DA:535,5
DA:845,2
end_of_record
SF:/mnt/c/users/gabci/desktop/nhf2/src/fake_sfml/fake_sfml.h
DA:172,2
DA:180,5
DA:187,2
DA:292,2
end_of_record
SF:/mnt/c/users/gabci/desktop/nhf2/src/GameManager.cpp
FN:3,_ZN11GameManagerC2Ev
FNDA:2,_ZN11GameManagerC2Ev
FN:45,_ZN11GameManagerD2Ev
FNDA:2,_ZN11GameManagerD2Ev
FN:77,_ZN11GameManager3runEv
FNDA:0,_ZN11GameManager3runEv
FN:89,_ZN11GameManager9game_loopEv
FNDA:0,_ZN11GameManager9game_loopEv
FN:103,_ZN11GameManager13simulate_tickEf
FNDA:10,_ZN11GameManager13simulate_tickEf
FN:119,_ZNK11GameManager8is_validEv
FNDA:2,_ZNK11GameManager8is_validEv
FN:122,_ZNK11GameManager16get_elapsed_timeEv
FNDA:1,_ZNK11GameManager16get_elapsed_timeEv
FN:126,_ZN11GameManager13handle_inputsEv
FNDA:10,_ZN11GameManager13handle_inputsEv
FN:164,_ZN11GameManager21handle_unit_placementEv
FNDA:10,_ZN11GameManager21handle_unit_placementEv
FN:200,_ZN11GameManager10draw_worldEv
FNDA:10,_ZN11GameManager10draw_worldEv
FN:210,_ZN11GameManager13setup_buttonsEv
FNDA:2,_ZN11GameManager13setup_buttonsEv
FN:214,_ZZN11GameManager13setup_buttonsEvENKUlvE_clEv
FNDA:0,_ZZN11GameManager13setup_buttonsEvENKUlvE_clEv
FN:220,_ZZN11GameManager13setup_buttonsEvENKUlvE0_clEv
FNDA:0,_ZZN11GameManager13setup_buttonsEvENKUlvE0_clEv
FN:228,_ZZN11GameManager13setup_buttonsEvENKUlvE1_clEv
FNDA:0,_ZZN11GameManager13setup_buttonsEvENKUlvE1_clEv
FN:234,_ZZN11GameManager13setup_buttonsEvENKUlvE2_clEv
FNDA:0,_ZZN11GameManager13setup_buttonsEvENKUlvE2_clEv
FN:240,_ZZN11GameManager13setup_buttonsEvENKUlvE3_clEv
FNDA:0,_ZZN11GameManager13setup_buttonsEvENKUlvE3_clEv
FN:246,_ZZN11GameManager13setup_buttonsEvENKUlvE4_clEv
FNDA:0,_ZZN11GameManager13setup_buttonsEvENKUlvE4_clEv
FN:252,_ZN11GameManager14update_buttonsEv
FNDA:10,_ZN11GameManager14update_buttonsEv
FN:261,_ZN11GameManager12draw_buttonsEv
FNDA:10,_ZN11GameManager12draw_buttonsEv
DA:3,2
DA:4,4
DA:10,2
DA:11,2
DA:12,2
DA:13,2
DA:14,2
DA:15,2
DA:16,2
DA:17,2
DA:19,2
DA:20,2
DA:22,2
DA:23,2
DA:24,2
DA:25,2
DA:26,2
DA:28,2
DA:29,0
DA:31,2
DA:32,0
DA:35,2
DA:36,2
DA:37,2
DA:39,2
DA:40,2
DA:42,2
DA:43,2
DA:45,2
DA:46,2
DA:47,14
DA:48,12
DA:54,2
DA:55,2
DA:56,2
DA:58,2
DA:59,2
DA:60,2
DA:62,2
DA:63,2
DA:64,2
DA:66,2
DA:67,2
DA:68,2
DA:69,2
DA:71,2
DA:72,4
DA:73,2
DA:75,4
DA:77,0
DA:78,0
DA:83,0
DA:84,0
DA:86,0
DA:87,0
DA:89,0
DA:90,0
DA:91,0
DA:92,0
DA:93,0
DA:94,0
DA:99,0
DA:102,0
DA:103,10
DA:104,10
DA:105,0
DA:106,0
DA:108,10
DA:110,10
DA:112,10
DA:113,10
DA:115,10
DA:117,10
DA:118,10
DA:119,2
DA:120,2
DA:122,1
DA:123,1
DA:126,10
DA:127,10
DA:128,0
DA:129,0
DA:130,0
DA:131,0
DA:135,10
DA:136,0
DA:138,0
DA:139,0
DA:143,10
DA:145,0
DA:146,0
DA:147,0
DA:148,0
DA:152,10
DA:153,0
DA:154,0
DA:155,0
DA:158,10
DA:159,10
DA:161,10
DA:162,10
DA:164,10
DA:165,10
DA:166,0
DA:167,0
DA:168,0
DA:171,10
DA:181,110
DA:182,100
DA:183,0
DA:184,0
DA:188,10
DA:189,0
DA:190,0
DA:191,0
DA:193,0
DA:195,10
DA:197,10
DA:200,10
DA:201,10
DA:203,10
DA:204,10
DA:206,10
DA:207,10
DA:208,10
DA:210,2
DA:211,2
DA:213,2
DA:214,2
DA:215,0
DA:216,0
DA:217,0
DA:219,2
DA:220,2
DA:221,0
DA:222,0
DA:223,0
DA:224,0
DA:225,0
DA:227,2
DA:228,2
DA:229,0
DA:230,0
DA:231,0
DA:233,2
DA:234,2
DA:235,0
DA:236,0
DA:237,0
DA:239,2
DA:240,2
DA:241,0
DA:242,0
DA:243,0
DA:245,2
DA:246,4
DA:247,0
DA:248,0
DA:249,0
DA:250,2
DA:252,10
DA:253,10
DA:254,70
DA:255,60
DA:256,60
DA:260,10
DA:261,10
DA:262,70
DA:263,60
DA:265,10
end_of_record
SF:/usr/include/c++/11/bits/stl_iterator_base_funcs.h
DA:98,65766
DA:104,65766
DA:138,65766
DA:141,65766
end_of_record
SF:/usr/include/c++/11/ext/new_allocator.h
FN:103,_ZN9__gnu_cxx13new_allocatorIPN2ui6ButtonEE8allocateEmPKv
FNDA:8,_ZN9__gnu_cxx13new_allocatorIPN2ui6ButtonEE8allocateEmPKv
DA:79,15
DA:82,12
DA:89,33
DA:103,8
DA:111,8
DA:115,0
DA:116,0
DA:117,0
DA:127,8
DA:132,18
DA:145,18
DA:160,12
DA:162,12
DA:166,5
DA:168,5
end_of_record
SF:/usr/include/c++/11/iostream
end_of_record
SF:/usr/include/c++/11/bits/hashtable.h
FN:453,_ZNSt10_HashtableIiSt4pairIKiSt8functionIFbvEEESaIS5_ENSt8__detail10_Select1stESt8equal_toIiESt4hashIiENS7_18_Mod_range_hashingENS7_20_Default_ranged_hashENS7_20_Prime_rehash_policyENS7_17_Hashtable_traitsILb0ELb0ELb1EEEE21_M_deallocate_bucketsEv
FNDA:0,_ZNSt10_HashtableIiSt4pairIKiSt8functionIFbvEEESaIS5_ENSt8__detail10_Select1stESt8equal_toIiESt4hashIiENS7_18_Mod_range_hashingENS7_20_Default_ranged_hashENS7_20_Prime_rehash_policyENS7_17_Hashtable_traitsILb0ELb0ELb1EEEE21_M_deallocate_bucketsEv
FN:453,_ZNSt10_HashtableIiSt4pairIKiSt8functionIFbR5WorldRKN2sf8Vector2iEEEESaISB_ENSt8__detail10_Select1stESt8equal_toIiESt4hashIiENSD_18_Mod_range_hashingENSD_20_Default_ranged_hashENSD_20_Prime_rehash_policyENSD_17_Hashtable_traitsILb0ELb0ELb1EEEE21_M_deallocate_bucketsEv
FNDA:0,_ZNSt10_HashtableIiSt4pairIKiSt8functionIFbR5WorldRKN2sf8Vector2iEEEESaISB_ENSt8__detail10_Select1stESt8equal_toIiESt4hashIiENSD_18_Mod_range_hashingENSD_20_Default_ranged_hashENSD_20_Prime_rehash_policyENSD_17_Hashtable_traitsILb0ELb0ELb1EEEE21_M_deallocate_bucketsEv
FN:453,_ZNSt10_HashtableINSt7__cxx1112basic_stringIcSt11char_traitsIcESaIcEEESt4pairIKS5_N2sf11SoundBufferEESaISA_ENSt8__detail10_Select1stESt8equal_toIS5_ESt4hashIS5_ENSC_18_Mod_range_hashingENSC_20_Default_ranged_hashENSC_20_Prime_rehash_policyENSC_17_Hashtable_traitsILb1ELb0ELb1EEEE21_M_deallocate_bucketsEv
FNDA:23,_ZNSt10_HashtableINSt7__cxx1112basic_stringIcSt11char_traitsIcESaIcEEESt4pairIKS5_N2sf11SoundBufferEESaISA_ENSt8__detail10_Select1stESt8equal_toIS5_ESt4hashIS5_ENSC_18_Mod_range_hashingENSC_20_Default_ranged_hashENSC_20_Prime_rehash_policyENSC_17_Hashtable_traitsILb1ELb0ELb1EEEE21_M_deallocate_bucketsEv
FN:1528,_ZNSt10_HashtableIiSt4pairIKiSt8functionIFbvEEESaIS5_ENSt8__detail10_Select1stESt8equal_toIiESt4hashIiENS7_18_Mod_range_hashingENS7_20_Default_ranged_hashENS7_20_Prime_rehash_policyENS7_17_Hashtable_traitsILb0ELb0ELb1EEEED2Ev
FNDA:0,_ZNSt10_HashtableIiSt4pairIKiSt8functionIFbvEEESaIS5_ENSt8__detail10_Select1stESt8equal_toIiESt4hashIiENS7_18_Mod_range_hashingENS7_20_Default_ranged_hashENS7_20_Prime_rehash_policyENS7_17_Hashtable_traitsILb0ELb0ELb1EEEED2Ev
FN:1528,_ZNSt10_HashtableIiSt4pairIKiSt8functionIFbR5WorldRKN2sf8Vector2iEEEESaISB_ENSt8__detail10_Select1stESt8equal_toIiESt4hashIiENSD_18_Mod_range_hashingENSD_20_Default_ranged_hashENSD_20_Prime_rehash_policyENSD_17_Hashtable_traitsILb0ELb0ELb1EEEED2Ev
FNDA:0,_ZNSt10_HashtableIiSt4pairIKiSt8functionIFbR5WorldRKN2sf8Vector2iEEEESaISB_ENSt8__detail10_Select1stESt8equal_toIiESt4hashIiENSD_18_Mod_range_hashingENSD_20_Default_ranged_hashENSD_20_Prime_rehash_policyENSD_17_Hashtable_traitsILb0ELb0ELb1EEEED2Ev
FN:1528,_ZNSt10_HashtableINSt7__cxx1112basic_stringIcSt11char_traitsIcESaIcEEESt4pairIKS5_N2sf11SoundBufferEESaISA_ENSt8__detail10_Select1stESt8equal_toIS5_ESt4hashIS5_ENSC_18_Mod_range_hashingENSC_20_Default_ranged_hashENSC_20_Prime_rehash_policyENSC_17_Hashtable_traitsILb1ELb0ELb1EEEED2Ev
FNDA:23,_ZNSt10_HashtableINSt7__cxx1112basic_stringIcSt11char_traitsIcESaIcEEESt4pairIKS5_N2sf11SoundBufferEESaISA_ENSt8__detail10_Select1stESt8equal_toIS5_ESt4hashIS5_ENSC_18_Mod_range_hashingENSC_20_Default_ranged_hashENSC_20_Prime_rehash_policyENSC_17_Hashtable_traitsILb1ELb0ELb1EEEED2Ev
FN:2316,_ZNSt10_HashtableIiSt4pairIKiSt8functionIFbvEEESaIS5_ENSt8__detail10_Select1stESt8equal_toIiESt4hashIiENS7_18_Mod_range_hashingENS7_20_Default_ranged_hashENS7_20_Prime_rehash_policyENS7_17_Hashtable_traitsILb0ELb0ELb1EEEE5clearEv
FNDA:0,_ZNSt10_HashtableIiSt4pairIKiSt8functionIFbvEEESaIS5_ENSt8__detail10_Select1stESt8equal_toIiESt4hashIiENS7_18_Mod_range_hashingENS7_20_Default_ranged_hashENS7_20_Prime_rehash_policyENS7_17_Hashtable_traitsILb0ELb0ELb1EEEE5clearEv
FN:2316,_ZNSt10_HashtableIiSt4pairIKiSt8functionIFbR5WorldRKN2sf8Vector2iEEEESaISB_ENSt8__detail10_Select1stESt8equal_toIiESt4hashIiENSD_18_Mod_range_hashingENSD_20_Default_ranged_hashENSD_20_Prime_rehash_policyENSD_17_Hashtable_traitsILb0ELb0ELb1EEEE5clearEv
FNDA:0,_ZNSt10_HashtableIiSt4pairIKiSt8functionIFbR5WorldRKN2sf8Vector2iEEEESaISB_ENSt8__detail10_Select1stESt8equal_toIiESt4hashIiENSD_18_Mod_range_hashingENSD_20_Default_ranged_hashENSD_20_Prime_rehash_policyENSD_17_Hashtable_traitsILb0ELb0ELb1EEEE5clearEv
FN:2316,_ZNSt10_HashtableINSt7__cxx1112basic_stringIcSt11char_traitsIcESaIcEEESt4pairIKS5_N2sf11SoundBufferEESaISA_ENSt8__detail10_Select1stESt8equal_toIS5_ESt4hashIS5_ENSC_18_Mod_range_hashingENSC_20_Default_ranged_hashENSC_20_Prime_rehash_policyENSC_17_Hashtable_traitsILb1ELb0ELb1EEEE5clearEv
FNDA:23,_ZNSt10_HashtableINSt7__cxx1112basic_stringIcSt11char_traitsIcESaIcEEESt4pairIKS5_N2sf11SoundBufferEESaISA_ENSt8__detail10_Select1stESt8equal_toIS5_ESt4hashIS5_ENSC_18_Mod_range_hashingENSC_20_Default_ranged_hashENSC_20_Prime_rehash_policyENSC_17_Hashtable_traitsILb1ELb0ELb1EEEE5clearEv
DA:421,23
DA:422,23
DA:444,23
DA:446,23
DA:449,5
DA:453,0
DA:454,0
DA:453,0
DA:454,0
DA:453,23
DA:454,23
DA:462,23
DA:463,23
DA:528,2
DA:1528,0
DA:1532,0
DA:1533,0
DA:1534,0
DA:1528,0
DA:1532,0
DA:1533,0
DA:1534,0
DA:1528,23
DA:1532,23
DA:1533,23
DA:1534,23
DA:2316,0
DA:2320,0
DA:2321,0
DA:2322,0
DA:2323,0
DA:2324,0
DA:2325,0
DA:2316,0
DA:2320,0
DA:2321,0
DA:2322,0
DA:2323,0
DA:2324,0
DA:2325,0
DA:2316,23
DA:2320,23
DA:2321,23
DA:2322,23
DA:2323,23
DA:2324,23
DA:2325,23
end_of_record
SF:/usr/include/c++/11/ext/aligned_buffer.h
DA:104,5
DA:115,5
end_of_record
SF:/usr/include/c++/11/bits/unordered_map.h
DA:102,4
DA:141,2
end_of_record
SF:/usr/include/c++/11/bits/move.h
DA:77,12
end_of_record
TN:
SF:/usr/include/c++/11/bits/basic_string.tcc
FN:206,_ZNSt7__cxx1112basic_stringIcSt11char_traitsIcESaIcEE12_M_constructIPcEEvT_S7_St20forward_iterator_tag
FNDA:0,_ZNSt7__cxx1112basic_stringIcSt11char_traitsIcESaIcEE12_M_constructIPcEEvT_S7_St20forward_iterator_tag
DA:206,0
DA:211,0
DA:212,0
DA:215,0
DA:217,0
DA:219,0
DA:220,0
DA:225,0
DA:232,0
DA:233,0
end_of_record
SF:/usr/include/c++/11/utility
DA:188,41
DA:189,41
DA:233,41
DA:234,41
end_of_record
SF:/usr/include/c++/11/bits/basic_string.h
FN:6234,_ZSteqIcEN9__gnu_cxx11__enable_ifIXsrSt9__is_charIT_E7__valueEbE6__typeERKNSt7__cxx1112basic_stringIS3_St11char_traitsIS3_ESaIS3_EEESE_
FNDA:41,_ZSteqIcEN9__gnu_cxx11__enable_ifIXsrSt9__is_charIT_E7__valueEbE6__typeERKNSt7__cxx1112basic_stringIS3_St11char_traitsIS3_ESaIS3_EEESE_
DA:158,0
DA:186,0
DA:187,0
DA:190,0
DA:191,0
DA:194,168
DA:195,0
DA:218,0
DA:219,0
DA:222,0
DA:224,0
DA:225,0
DA:400,0
DA:401,0
DA:671,0
DA:672,0
DA:920,41
DA:921,41
DA:926,127
DA:927,127
DA:2332,168
DA:2333,168
DA:6234,41
DA:6236,41
DA:6237,41
DA:6238,41
DA:6875,127
DA:6876,127
end_of_record
SF:/usr/include/c++/11/bits/allocator.h
DA:169,19
DA:174,0
end_of_record
SF:/usr/include/c++/11/bits/hashtable_policy.h
FN:696,_ZNSt8__detail9_Map_baseINSt7__cxx1112basic_stringIcSt11char_traitsIcESaIcEEESt4pairIKS6_iESaIS9_ENS_10_Select1stESt8equal_toIS6_ESt4hashIS6_ENS_18_Mod_range_hashingENS_20_Default_ranged_hashENS_20_Prime_rehash_policyENS_17_Hashtable_traitsILb1ELb0ELb1EEELb1EEixERS8_
FNDA:107,_ZNSt8__detail9_Map_baseINSt7__cxx1112basic_stringIcSt11char_traitsIcESaIcEEESt4pairIKS6_iESaIS9_ENS_10_Select1stESt8equal_toIS6_ESt4hashIS6_ENS_18_Mod_range_hashingENS_20_Default_ranged_hashENS_20_Prime_rehash_policyENS_17_Hashtable_traitsILb1ELb0ELb1EEELb1EEixERS8_
FN:1870,_ZNSt8__detail16_Hashtable_allocISaINS_10_Hash_nodeISt4pairIKNSt7__cxx1112basic_stringIcSt11char_traitsIcESaIcEEEiELb1EEEEE16_M_allocate_nodeIJRKSt21piecewise_construct_tSt5tupleIJRS9_EESI_IJEEEEEPSB_DpOT_
FNDA:76,_ZNSt8__detail16_Hashtable_allocISaINS_10_Hash_nodeISt4pairIKNSt7__cxx1112basic_stringIcSt11char_traitsIcESaIcEEEiELb1EEEEE16_M_allocate_nodeIJRKSt21piecewise_construct_tSt5tupleIJRS9_EESI_IJEEEEEPSB_DpOT_
FN:1892,_ZNSt8__detail16_Hashtable_allocISaINS_10_Hash_nodeISt4pairIKNSt7__cxx1112basic_stringIcSt11char_traitsIcESaIcEEEiELb1EEEEE18_M_deallocate_nodeEPSB_
FNDA:0,_ZNSt8__detail16_Hashtable_allocISaINS_10_Hash_nodeISt4pairIKNSt7__cxx1112basic_stringIcSt11char_traitsIcESaIcEEEiELb1EEEEE18_M_deallocate_nodeEPSB_
FN:1900,_ZNSt8__detail16_Hashtable_allocISaINS_10_Hash_nodeISt4pairIKNSt7__cxx1112basic_stringIcSt11char_traitsIcESaIcEEEiELb1EEEEE22_M_deallocate_node_ptrEPSB_
FNDA:0,_ZNSt8__detail16_Hashtable_allocISaINS_10_Hash_nodeISt4pairIKNSt7__cxx1112basic_stringIcSt11char_traitsIcESaIcEEEiELb1EEEEE22_M_deallocate_node_ptrEPSB_
FN:1922,_ZNSt8__detail16_Hashtable_allocISaINS_10_Hash_nodeISt4pairIKNSt7__cxx1112basic_stringIcSt11char_traitsIcESaIcEEEiELb1EEEEE19_M_allocate_bucketsEm
FNDA:19,_ZNSt8__detail16_Hashtable_allocISaINS_10_Hash_nodeISt4pairIKNSt7__cxx1112basic_stringIcSt11char_traitsIcESaIcEEEiELb1EEEEE19_M_allocate_bucketsEm
FN:1935,_ZNSt8__detail16_Hashtable_allocISaINS_10_Hash_nodeISt4pairIKNSt7__cxx1112basic_stringIcSt11char_traitsIcESaIcEEEiELb1EEEEE21_M_deallocate_bucketsEPPNS_15_Hash_node_baseEm
FNDA:0,_ZNSt8__detail16_Hashtable_allocISaINS_10_Hash_nodeISt4pairIKNSt7__cxx1112basic_stringIcSt11char_traitsIcESaIcEEEiELb1EEEEE21_M_deallocate_bucketsEPPNS_15_Hash_node_baseEm
DA:93,41
DA:95,41
DA:219,76
DA:238,193
DA:242,41
DA:246,31
DA:277,76
DA:282,0
DA:283,0
DA:295,116
DA:338,76
DA:339,76
DA:346,76
DA:347,76
DA:385,40
DA:386,20
DA:398,10
DA:428,217
DA:430,217
DA:473,76
DA:474,76
DA:481,0
DA:482,0
DA:696,107
DA:701,107
DA:702,107
DA:703,107
DA:704,31
DA:705,31
DA:707,76
DA:710,76
DA:711,76
DA:714,76
DA:715,76
DA:716,76
DA:717,76
DA:1215,127
DA:1219,127
DA:1232,146
DA:1233,146
DA:1247,71
DA:1251,71
DA:1263,76
DA:1264,76
DA:1595,125
DA:1596,125
DA:1611,125
DA:1617,125
DA:1870,76
DA:1873,76
DA:1874,76
DA:1877,76
DA:1878,76
DA:1881,76
DA:1883,0
DA:1885,0
DA:1886,0
DA:1892,0
DA:1894,0
DA:1895,0
DA:1896,0
DA:1900,0
DA:1903,0
DA:1904,0
DA:1905,0
DA:1906,0
DA:1922,19
DA:1925,19
DA:1927,19
DA:1928,19
DA:1929,19
DA:1930,19
DA:1931,19
DA:1935,0
DA:1940,0
DA:1941,0
DA:1942,0
DA:1943,0
end_of_record
SF:/mnt/c/users/gabci/desktop/nhf2/src/HumanResources.cpp
FN:3,_ZN14HumanResources13add_resourcesERKNSt7__cxx1112basic_stringIcSt11char_traitsIcESaIcEEEi
FNDA:17,_ZN14HumanResources13add_resourcesERKNSt7__cxx1112basic_stringIcSt11char_traitsIcESaIcEEEi
FN:7,_ZN14HumanResources16remove_resourcesERKNSt7__cxx1112basic_stringIcSt11char_traitsIcESaIcEEEi
FNDA:6,_ZN14HumanResources16remove_resourcesERKNSt7__cxx1112basic_stringIcSt11char_traitsIcESaIcEEEi
FN:10,_ZNK14HumanResources24is_there_enough_resourceERKNSt7__cxx1112basic_stringIcSt11char_traitsIcESaIcEEEi
FNDA:12,_ZNK14HumanResources24is_there_enough_resourceERKNSt7__cxx1112basic_stringIcSt11char_traitsIcESaIcEEEi
FN:14,_ZN14HumanResources13set_resourcesERKNSt7__cxx1112basic_stringIcSt11char_traitsIcESaIcEEEi
FNDA:84,_ZN14HumanResources13set_resourcesERKNSt7__cxx1112basic_stringIcSt11char_traitsIcESaIcEEEi
FN:18,_ZNK14HumanResources14get_count_fromERKNSt7__cxx1112basic_stringIcSt11char_traitsIcESaIcEEE
FNDA:8,_ZNK14HumanResources14get_count_fromERKNSt7__cxx1112basic_stringIcSt11char_traitsIcESaIcEEE
DA:3,17
DA:4,17
DA:5,17
DA:7,6
DA:8,6
DA:9,6
DA:10,12
DA:11,12
DA:12,12
DA:14,84
DA:15,84
DA:16,84
DA:18,8
DA:19,8
DA:20,8
end_of_record
SF:/usr/include/c++/11/bits/char_traits.h
DA:356,0
DA:357,0
DA:372,41
DA:374,41
DA:377,41
DA:389,41
end_of_record
SF:/usr/include/c++/11/bits/stl_pair.h
DA:211,0
end_of_record
SF:/usr/include/c++/11/bits/stl_function.h
DA:369,41
DA:370,41
end_of_record
SF:/usr/include/c++/11/bits/stl_iterator_base_funcs.h
DA:98,0
DA:104,0
DA:138,0
DA:141,0
end_of_record
SF:/usr/include/c++/11/ext/new_allocator.h
FN:103,_ZN9__gnu_cxx13new_allocatorIPNSt8__detail15_Hash_node_baseEE8allocateEmPKv
FNDA:19,_ZN9__gnu_cxx13new_allocatorIPNSt8__detail15_Hash_node_baseEE8allocateEmPKv
FN:103,_ZN9__gnu_cxx13new_allocatorINSt8__detail10_Hash_nodeISt4pairIKNSt7__cxx1112basic_stringIcSt11char_traitsIcESaIcEEEiELb1EEEE8allocateEmPKv
FNDA:76,_ZN9__gnu_cxx13new_allocatorINSt8__detail10_Hash_nodeISt4pairIKNSt7__cxx1112basic_stringIcSt11char_traitsIcESaIcEEEiELb1EEEE8allocateEmPKv
DA:79,19
DA:89,0
DA:103,19
DA:111,19
DA:115,0
DA:116,0
DA:117,0
DA:127,19
DA:103,76
DA:111,76
DA:115,0
DA:116,0
DA:117,0
DA:127,76
DA:132,0
DA:145,0
DA:160,76
DA:162,76
DA:166,0
DA:168,0
end_of_record
SF:/usr/include/c++/11/bits/alloc_traits.h
DA:463,95
DA:464,95
DA:495,0
DA:496,0
DA:511,76
DA:516,76
DA:531,0
DA:535,0
end_of_record
SF:/usr/include/c++/11/bits/functional_hash.h
DA:196,127
DA:198,127
end_of_record
SF:/usr/include/c++/11/tuple
DA:192,76
DA:193,76
DA:233,76
DA:424,76
DA:434,76
DA:435,76
DA:454,76
DA:456,76
DA:727,76
DA:729,76
DA:756,76
DA:1377,76
DA:1378,76
DA:1393,76
DA:1394,76
DA:1804,76
DA:1809,76
DA:1816,76
DA:1819,76
DA:1820,76
end_of_record
SF:/usr/include/c++/11/ext/aligned_buffer.h
DA:104,76
DA:110,41
DA:115,193
end_of_record
SF:/usr/include/c++/11/bits/unordered_map.h
DA:356,20
DA:357,20
DA:879,20
DA:880,20
DA:979,107
DA:980,107
end_of_record
SF:/usr/include/c++/11/bits/move.h
DA:77,152
end_of_record
SF:/usr/include/c++/11/bits/hashtable.h
FN:308,_ZNSt10_HashtableINSt7__cxx1112basic_stringIcSt11char_traitsIcESaIcEEESt4pairIKS5_iESaIS8_ENSt8__detail10_Select1stESt8equal_toIS5_ESt4hashIS5_ENSA_18_Mod_range_hashingENSA_20_Default_ranged_hashENSA_20_Prime_rehash_policyENSA_17_Hashtable_traitsILb1ELb0ELb1EEEE12_Scoped_nodeD2Ev
FNDA:76,_ZNSt10_HashtableINSt7__cxx1112basic_stringIcSt11char_traitsIcESaIcEEESt4pairIKS5_iESaIS8_ENSt8__detail10_Select1stESt8equal_toIS5_ESt4hashIS5_ENSA_18_Mod_range_hashingENSA_20_Default_ranged_hashENSA_20_Prime_rehash_policyENSA_17_Hashtable_traitsILb1ELb0ELb1EEEE12_Scoped_nodeD2Ev
FN:453,_ZNSt10_HashtableINSt7__cxx1112basic_stringIcSt11char_traitsIcESaIcEEESt4pairIKS5_iESaIS8_ENSt8__detail10_Select1stESt8equal_toIS5_ESt4hashIS5_ENSA_18_Mod_range_hashingENSA_20_Default_ranged_hashENSA_20_Prime_rehash_policyENSA_17_Hashtable_traitsILb1ELb0ELb1EEEE21_M_deallocate_bucketsEv
FNDA:19,_ZNSt10_HashtableINSt7__cxx1112basic_stringIcSt11char_traitsIcESaIcEEESt4pairIKS5_iESaIS8_ENSt8__detail10_Select1stESt8equal_toIS5_ESt4hashIS5_ENSA_18_Mod_range_hashingENSA_20_Default_ranged_hashENSA_20_Prime_rehash_policyENSA_17_Hashtable_traitsILb1ELb0ELb1EEEE21_M_deallocate_bucketsEv
FN:1603,_ZNKSt10_HashtableINSt7__cxx1112basic_stringIcSt11char_traitsIcESaIcEEESt4pairIKS5_iESaIS8_ENSt8__detail10_Select1stESt8equal_toIS5_ESt4hashIS5_ENSA_18_Mod_range_hashingENSA_20_Default_ranged_hashENSA_20_Prime_rehash_policyENSA_17_Hashtable_traitsILb1ELb0ELb1EEEE4findERS7_
FNDA:20,_ZNKSt10_HashtableINSt7__cxx1112basic_stringIcSt11char_traitsIcESaIcEEESt4pairIKS5_iESaIS8_ENSt8__detail10_Select1stESt8equal_toIS5_ESt4hashIS5_ENSA_18_Mod_range_hashingENSA_20_Default_ranged_hashENSA_20_Prime_rehash_policyENSA_17_Hashtable_traitsILb1ELb0ELb1EEEE4findERS7_
FN:1827,_ZNKSt10_HashtableINSt7__cxx1112basic_stringIcSt11char_traitsIcESaIcEEESt4pairIKS5_iESaIS8_ENSt8__detail10_Select1stESt8equal_toIS5_ESt4hashIS5_ENSA_18_Mod_range_hashingENSA_20_Default_ranged_hashENSA_20_Prime_rehash_policyENSA_17_Hashtable_traitsILb1ELb0ELb1EEEE19_M_find_before_nodeEmRS7_m
FNDA:127,_ZNKSt10_HashtableINSt7__cxx1112basic_stringIcSt11char_traitsIcESaIcEEESt4pairIKS5_iESaIS8_ENSt8__detail10_Select1stESt8equal_toIS5_ESt4hashIS5_ENSA_18_Mod_range_hashingENSA_20_Default_ranged_hashENSA_20_Prime_rehash_policyENSA_17_Hashtable_traitsILb1ELb0ELb1EEEE19_M_find_before_nodeEmRS7_m
FN:1886,_ZNSt10_HashtableINSt7__cxx1112basic_stringIcSt11char_traitsIcESaIcEEESt4pairIKS5_iESaIS8_ENSt8__detail10_Select1stESt8equal_toIS5_ESt4hashIS5_ENSA_18_Mod_range_hashingENSA_20_Default_ranged_hashENSA_20_Prime_rehash_policyENSA_17_Hashtable_traitsILb1ELb0ELb1EEEE22_M_insert_bucket_beginEmPNSA_10_Hash_nodeIS8_Lb1EEE
FNDA:76,_ZNSt10_HashtableINSt7__cxx1112basic_stringIcSt11char_traitsIcESaIcEEESt4pairIKS5_iESaIS8_ENSt8__detail10_Select1stESt8equal_toIS5_ESt4hashIS5_ENSA_18_Mod_range_hashingENSA_20_Default_ranged_hashENSA_20_Prime_rehash_policyENSA_17_Hashtable_traitsILb1ELb0ELb1EEEE22_M_insert_bucket_beginEmPNSA_10_Hash_nodeIS8_Lb1EEE
FN:2008,_ZNSt10_HashtableINSt7__cxx1112basic_stringIcSt11char_traitsIcESaIcEEESt4pairIKS5_iESaIS8_ENSt8__detail10_Select1stESt8equal_toIS5_ESt4hashIS5_ENSA_18_Mod_range_hashingENSA_20_Default_ranged_hashENSA_20_Prime_rehash_policyENSA_17_Hashtable_traitsILb1ELb0ELb1EEEE21_M_insert_unique_nodeEmmPNSA_10_Hash_nodeIS8_Lb1EEEm
FNDA:76,_ZNSt10_HashtableINSt7__cxx1112basic_stringIcSt11char_traitsIcESaIcEEESt4pairIKS5_iESaIS8_ENSt8__detail10_Select1stESt8equal_toIS5_ESt4hashIS5_ENSA_18_Mod_range_hashingENSA_20_Default_ranged_hashENSA_20_Prime_rehash_policyENSA_17_Hashtable_traitsILb1ELb0ELb1EEEE21_M_insert_unique_nodeEmmPNSA_10_Hash_nodeIS8_Lb1EEEm
FN:2355,_ZNSt10_HashtableINSt7__cxx1112basic_stringIcSt11char_traitsIcESaIcEEESt4pairIKS5_iESaIS8_ENSt8__detail10_Select1stESt8equal_toIS5_ESt4hashIS5_ENSA_18_Mod_range_hashingENSA_20_Default_ranged_hashENSA_20_Prime_rehash_policyENSA_17_Hashtable_traitsILb1ELb0ELb1EEEE9_M_rehashEmRKm
FNDA:19,_ZNSt10_HashtableINSt7__cxx1112basic_stringIcSt11char_traitsIcESaIcEEESt4pairIKS5_iESaIS8_ENSt8__detail10_Select1stESt8equal_toIS5_ESt4hashIS5_ENSA_18_Mod_range_hashingENSA_20_Default_ranged_hashENSA_20_Prime_rehash_policyENSA_17_Hashtable_traitsILb1ELb0ELb1EEEE9_M_rehashEmRKm
FN:2378,_ZNSt10_HashtableINSt7__cxx1112basic_stringIcSt11char_traitsIcESaIcEEESt4pairIKS5_iESaIS8_ENSt8__detail10_Select1stESt8equal_toIS5_ESt4hashIS5_ENSA_18_Mod_range_hashingENSA_20_Default_ranged_hashENSA_20_Prime_rehash_policyENSA_17_Hashtable_traitsILb1ELb0ELb1EEEE13_M_rehash_auxEmSt17integral_constantIbLb1EE
FNDA:19,_ZNSt10_HashtableINSt7__cxx1112basic_stringIcSt11char_traitsIcESaIcEEESt4pairIKS5_iESaIS8_ENSt8__detail10_Select1stESt8equal_toIS5_ESt4hashIS5_ENSA_18_Mod_range_hashingENSA_20_Default_ranged_hashENSA_20_Prime_rehash_policyENSA_17_Hashtable_traitsILb1ELb0ELb1EEEE13_M_rehash_auxEmSt17integral_constantIbLb1EE
DA:302,76
DA:303,76
DA:304,76
DA:308,76
DA:421,19
DA:422,19
DA:432,19
DA:434,19
DA:436,0
DA:437,0
DA:440,19
DA:444,19
DA:446,19
DA:449,0
DA:453,19
DA:454,19
DA:462,19
DA:463,19
DA:633,20
DA:634,20
DA:790,71
DA:791,71
DA:794,146
DA:795,126
DA:807,127
DA:810,107
DA:811,127
DA:812,41
DA:1603,20
DA:1608,20
DA:1609,20
DA:1610,20
DA:1827,127
DA:1833,127
DA:1834,127
DA:1837,81
DA:1840,125
DA:1843,84
DA:1886,76
DA:1890,76
DA:1894,38
DA:1895,38
DA:1902,38
DA:1903,38
DA:1905,38
DA:1908,19
DA:1910,38
DA:1912,76
DA:2008,76
DA:2014,76
DA:2016,76
DA:2019,76
DA:2021,19
DA:2022,19
DA:2025,76
DA:2028,76
DA:2029,76
DA:2030,76
DA:2355,19
DA:2361,19
DA:2363,0
DA:2367,0
DA:2368,0
DA:2370,19
DA:2378,19
DA:2382,19
DA:2383,19
DA:2384,19
DA:2385,19
DA:2386,19
DA:2388,0
DA:2390,0
DA:2391,0
DA:2393,0
DA:2394,0
DA:2395,0
DA:2396,0
DA:2397,0
DA:2402,0
DA:2403,0
DA:2409,19
DA:2410,19
DA:2411,19
DA:2412,19
end_of_record
TN:
SF:/mnt/c/users/gabci/desktop/nhf2/src/Profession.h
end_of_record
SF:/mnt/c/users/gabci/desktop/nhf2/src/Textureable.h
DA:28,12
end_of_record
SF:/usr/include/c++/11/bits/unique_ptr.h
FN:355,_ZNSt10unique_ptrINSt10filesystem7__cxx114path5_List5_ImplENS3_13_Impl_deleterEED2Ev
FNDA:2,_ZNSt10unique_ptrINSt10filesystem7__cxx114path5_List5_ImplENS3_13_Impl_deleterEED2Ev
DA:172,2
DA:174,2
DA:355,2
DA:359,2
DA:360,2
DA:361,2
DA:363,2
DA:426,2
DA:427,2
end_of_record
SF:/mnt/c/users/gabci/desktop/nhf2/src/Shadowable.h
FN:73,_ZN10ShadowableD0Ev
FNDA:0,_ZN10ShadowableD0Ev
FN:73,_ZN10ShadowableD2Ev
FNDA:0,_ZN10ShadowableD2Ev
DA:73,0
DA:73,0
DA:73,12
end_of_record
SF:/usr/include/c++/11/bits/basic_string.tcc
FN:206,_ZNSt7__cxx1112basic_stringIcSt11char_traitsIcESaIcEE12_M_constructIPcEEvT_S7_St20forward_iterator_tag
FNDA:0,_ZNSt7__cxx1112basic_stringIcSt11char_traitsIcESaIcEE12_M_constructIPcEEvT_S7_St20forward_iterator_tag
FN:206,_ZNSt7__cxx1112basic_stringIcSt11char_traitsIcESaIcEE12_M_constructIPKcEEvT_S8_St20forward_iterator_tag
FNDA:0,_ZNSt7__cxx1112basic_stringIcSt11char_traitsIcESaIcEE12_M_constructIPKcEEvT_S8_St20forward_iterator_tag
DA:206,0
DA:211,0
DA:212,0
DA:215,0
DA:217,0
DA:219,0
DA:220,0
DA:225,0
DA:232,0
DA:233,0
DA:206,0
DA:211,0
DA:212,0
DA:215,0
DA:217,0
DA:219,0
DA:220,0
DA:225,0
DA:232,0
DA:233,0
end_of_record
SF:/usr/include/c++/11/bits/locale_facets.h
FN:875,_ZNKSt5ctypeIcE5widenEc
FNDA:263,_ZNKSt5ctypeIcE5widenEc
DA:875,263
DA:877,263
DA:878,262
DA:879,1
DA:880,1
end_of_record
SF:/mnt/c/users/gabci/desktop/nhf2/src/TerrainContainer_def.hpp
FN:7,_ZNK16TerrainContainerIPN5tiles4TileEE9get_widthEv
FNDA:1,_ZNK16TerrainContainerIPN5tiles4TileEE9get_widthEv
FN:12,_ZNK16TerrainContainerIPN5tiles4TileEE10get_heightEv
FNDA:1,_ZNK16TerrainContainerIPN5tiles4TileEE10get_heightEv
FN:17,_ZN16TerrainContainerIPN5tiles4TileEEC2Ev
FNDA:1,_ZN16TerrainContainerIPN5tiles4TileEEC2Ev
FN:42,_ZN16TerrainContainerIPN5tiles4TileEEixEm
FNDA:4,_ZN16TerrainContainerIPN5tiles4TileEEixEm
FN:110,_ZN16TerrainContainerIPN5tiles4TileEE5clearEv
FNDA:62,_ZN16TerrainContainerIPN5tiles4TileEE5clearEv
FN:127,_ZN16TerrainContainerIPN5tiles4TileEE6resizeIS1_EEvii
FNDA:1,_ZN16TerrainContainerIPN5tiles4TileEE6resizeIS1_EEvii
FN:143,_ZN16TerrainContainerIPN5tiles4TileEED2Ev
FNDA:1,_ZN16TerrainContainerIPN5tiles4TileEED2Ev
DA:7,1
DA:8,1
DA:12,1
DA:13,1
DA:17,1
DA:42,4
DA:43,4
DA:110,62
DA:111,62
DA:112,824
DA:113,32812
DA:114,32009
DA:116,803
DA:118,21
DA:119,21
DA:120,21
DA:121,21
DA:123,62
DA:127,1
DA:128,1
DA:130,1
DA:131,1
DA:133,1
DA:134,4
DA:135,3
DA:136,12
DA:137,9
DA:140,1
DA:143,1
DA:144,1
DA:145,1
end_of_record
SF:/usr/include/c++/11/bits/fs_path.h
FN:288,_ZNSt10filesystem7__cxx114pathC2IA12_cS1_EERKT_NS1_6formatE
FNDA:2,_ZNSt10filesystem7__cxx114pathC2IA12_cS1_EERKT_NS1_6formatE
DA:172,2
DA:175,2
DA:288,2
DA:289,2
DA:290,2
DA:313,2
DA:584,2
DA:647,2
end_of_record
SF:/usr/include/c++/11/bits/hashtable_policy.h
FN:1892,_ZNSt8__detail16_Hashtable_allocISaINS_10_Hash_nodeISt4pairIKiSt8functionIFbvEEELb0EEEEE18_M_deallocate_nodeEPS8_
FNDA:0,_ZNSt8__detail16_Hashtable_allocISaINS_10_Hash_nodeISt4pairIKiSt8functionIFbvEEELb0EEEEE18_M_deallocate_nodeEPS8_
FN:1892,_ZNSt8__detail16_Hashtable_allocISaINS_10_Hash_nodeISt4pairIKiSt8functionIFbR5WorldRKN2sf8Vector2iEEEELb0EEEEE18_M_deallocate_nodeEPSE_
FNDA:0,_ZNSt8__detail16_Hashtable_allocISaINS_10_Hash_nodeISt4pairIKiSt8functionIFbR5WorldRKN2sf8Vector2iEEEELb0EEEEE18_M_deallocate_nodeEPSE_
FN:1892,_ZNSt8__detail16_Hashtable_allocISaINS_10_Hash_nodeISt4pairIKNSt7__cxx1112basic_stringIcSt11char_traitsIcESaIcEEEN2sf11SoundBufferEELb1EEEEE18_M_deallocate_nodeEPSD_
FNDA:0,_ZNSt8__detail16_Hashtable_allocISaINS_10_Hash_nodeISt4pairIKNSt7__cxx1112basic_stringIcSt11char_traitsIcESaIcEEEN2sf11SoundBufferEELb1EEEEE18_M_deallocate_nodeEPSD_
FN:1892,_ZNSt8__detail16_Hashtable_allocISaINS_10_Hash_nodeISt4pairIKNSt7__cxx1112basic_stringIcSt11char_traitsIcESaIcEEES8_ELb1EEEEE18_M_deallocate_nodeEPSB_
FNDA:0,_ZNSt8__detail16_Hashtable_allocISaINS_10_Hash_nodeISt4pairIKNSt7__cxx1112basic_stringIcSt11char_traitsIcESaIcEEES8_ELb1EEEEE18_M_deallocate_nodeEPSB_
FN:1900,_ZNSt8__detail16_Hashtable_allocISaINS_10_Hash_nodeISt4pairIKiSt8functionIFbvEEELb0EEEEE22_M_deallocate_node_ptrEPS8_
FNDA:0,_ZNSt8__detail16_Hashtable_allocISaINS_10_Hash_nodeISt4pairIKiSt8functionIFbvEEELb0EEEEE22_M_deallocate_node_ptrEPS8_
FN:1900,_ZNSt8__detail16_Hashtable_allocISaINS_10_Hash_nodeISt4pairIKiSt8functionIFbR5WorldRKN2sf8Vector2iEEEELb0EEEEE22_M_deallocate_node_ptrEPSE_
FNDA:0,_ZNSt8__detail16_Hashtable_allocISaINS_10_Hash_nodeISt4pairIKiSt8functionIFbR5WorldRKN2sf8Vector2iEEEELb0EEEEE22_M_deallocate_node_ptrEPSE_
FN:1900,_ZNSt8__detail16_Hashtable_allocISaINS_10_Hash_nodeISt4pairIKNSt7__cxx1112basic_stringIcSt11char_traitsIcESaIcEEEN2sf11SoundBufferEELb1EEEEE22_M_deallocate_node_ptrEPSD_
FNDA:0,_ZNSt8__detail16_Hashtable_allocISaINS_10_Hash_nodeISt4pairIKNSt7__cxx1112basic_stringIcSt11char_traitsIcESaIcEEEN2sf11SoundBufferEELb1EEEEE22_M_deallocate_node_ptrEPSD_
FN:1900,_ZNSt8__detail16_Hashtable_allocISaINS_10_Hash_nodeISt4pairIKNSt7__cxx1112basic_stringIcSt11char_traitsIcESaIcEEES8_ELb1EEEEE22_M_deallocate_node_ptrEPSB_
FNDA:0,_ZNSt8__detail16_Hashtable_allocISaINS_10_Hash_nodeISt4pairIKNSt7__cxx1112basic_stringIcSt11char_traitsIcESaIcEEES8_ELb1EEEEE22_M_deallocate_node_ptrEPSB_
FN:1910,_ZNSt8__detail16_Hashtable_allocISaINS_10_Hash_nodeISt4pairIKiSt8functionIFbvEEELb0EEEEE19_M_deallocate_nodesEPS8_
FNDA:0,_ZNSt8__detail16_Hashtable_allocISaINS_10_Hash_nodeISt4pairIKiSt8functionIFbvEEELb0EEEEE19_M_deallocate_nodesEPS8_
FN:1910,_ZNSt8__detail16_Hashtable_allocISaINS_10_Hash_nodeISt4pairIKiSt8functionIFbR5WorldRKN2sf8Vector2iEEEELb0EEEEE19_M_deallocate_nodesEPSE_
FNDA:0,_ZNSt8__detail16_Hashtable_allocISaINS_10_Hash_nodeISt4pairIKiSt8functionIFbR5WorldRKN2sf8Vector2iEEEELb0EEEEE19_M_deallocate_nodesEPSE_
FN:1910,_ZNSt8__detail16_Hashtable_allocISaINS_10_Hash_nodeISt4pairIKNSt7__cxx1112basic_stringIcSt11char_traitsIcESaIcEEEN2sf11SoundBufferEELb1EEEEE19_M_deallocate_nodesEPSD_
FNDA:0,_ZNSt8__detail16_Hashtable_allocISaINS_10_Hash_nodeISt4pairIKNSt7__cxx1112basic_stringIcSt11char_traitsIcESaIcEEEN2sf11SoundBufferEELb1EEEEE19_M_deallocate_nodesEPSD_
FN:1910,_ZNSt8__detail16_Hashtable_allocISaINS_10_Hash_nodeISt4pairIKNSt7__cxx1112basic_stringIcSt11char_traitsIcESaIcEEES8_ELb1EEEEE19_M_deallocate_nodesEPSB_
FNDA:0,_ZNSt8__detail16_Hashtable_allocISaINS_10_Hash_nodeISt4pairIKNSt7__cxx1112basic_stringIcSt11char_traitsIcESaIcEEES8_ELb1EEEEE19_M_deallocate_nodesEPSB_
FN:1935,_ZNSt8__detail16_Hashtable_allocISaINS_10_Hash_nodeISt4pairIKiSt8functionIFbvEEELb0EEEEE21_M_deallocate_bucketsEPPNS_15_Hash_node_baseEm
FNDA:0,_ZNSt8__detail16_Hashtable_allocISaINS_10_Hash_nodeISt4pairIKiSt8functionIFbvEEELb0EEEEE21_M_deallocate_bucketsEPPNS_15_Hash_node_baseEm
FN:1935,_ZNSt8__detail16_Hashtable_allocISaINS_10_Hash_nodeISt4pairIKiSt8functionIFbR5WorldRKN2sf8Vector2iEEEELb0EEEEE21_M_deallocate_bucketsEPPNS_15_Hash_node_baseEm
FNDA:0,_ZNSt8__detail16_Hashtable_allocISaINS_10_Hash_nodeISt4pairIKiSt8functionIFbR5WorldRKN2sf8Vector2iEEEELb0EEEEE21_M_deallocate_bucketsEPPNS_15_Hash_node_baseEm
FN:1935,_ZNSt8__detail16_Hashtable_allocISaINS_10_Hash_nodeISt4pairIKNSt7__cxx1112basic_stringIcSt11char_traitsIcESaIcEEEN2sf11SoundBufferEELb1EEEEE21_M_deallocate_bucketsEPPNS_15_Hash_node_baseEm
FNDA:0,_ZNSt8__detail16_Hashtable_allocISaINS_10_Hash_nodeISt4pairIKNSt7__cxx1112basic_stringIcSt11char_traitsIcESaIcEEEN2sf11SoundBufferEELb1EEEEE21_M_deallocate_bucketsEPPNS_15_Hash_node_baseEm
FN:1935,_ZNSt8__detail16_Hashtable_allocISaINS_10_Hash_nodeISt4pairIKNSt7__cxx1112basic_stringIcSt11char_traitsIcESaIcEEES8_ELb1EEEEE21_M_deallocate_bucketsEPPNS_15_Hash_node_baseEm
FNDA:0,_ZNSt8__detail16_Hashtable_allocISaINS_10_Hash_nodeISt4pairIKNSt7__cxx1112basic_stringIcSt11char_traitsIcESaIcEEES8_ELb1EEEEE21_M_deallocate_bucketsEPPNS_15_Hash_node_baseEm
DA:219,2
DA:238,0
DA:282,0
DA:283,0
DA:446,2
DA:447,2
DA:1124,0
DA:1127,2
DA:1210,2
DA:1604,2
DA:1802,0
DA:1823,2
DA:1892,0
DA:1894,0
DA:1895,0
DA:1896,0
DA:1892,0
DA:1894,0
DA:1895,0
DA:1896,0
DA:1892,0
DA:1894,0
DA:1895,0
DA:1896,0
DA:1892,0
DA:1894,0
DA:1895,0
DA:1896,0
DA:1900,0
DA:1903,0
DA:1904,0
DA:1905,0
DA:1906,0
DA:1900,0
DA:1903,0
DA:1904,0
DA:1905,0
DA:1906,0
DA:1900,0
DA:1903,0
DA:1904,0
DA:1905,0
DA:1906,0
DA:1900,0
DA:1903,0
DA:1904,0
DA:1905,0
DA:1906,0
DA:1910,0
DA:1912,0
DA:1914,0
DA:1915,0
DA:1916,0
DA:1918,0
DA:1910,0
DA:1912,0
DA:1914,0
DA:1915,0
DA:1916,0
DA:1918,0
DA:1910,0
DA:1912,0
DA:1914,0
DA:1915,0
DA:1916,0
DA:1918,0
DA:1910,0
DA:1912,0
DA:1914,0
DA:1915,0
DA:1916,0
DA:1918,0
DA:1935,0
DA:1940,0
DA:1941,0
DA:1942,0
DA:1943,0
DA:1935,0
DA:1940,0
DA:1941,0
DA:1942,0
DA:1943,0
DA:1935,0
DA:1940,0
DA:1941,0
DA:1942,0
DA:1943,0
DA:1935,0
DA:1940,0
DA:1941,0
DA:1942,0
DA:1943,0
end_of_record
SF:/mnt/c/users/gabci/desktop/nhf2/src/world_object/Tree.h
DA:19,2
end_of_record
SF:/mnt/c/users/gabci/desktop/nhf2/src/world_object/CityCenter.h
DA:19,1
end_of_record
SF:/usr/include/c++/11/bits/char_traits.h
DA:356,9
DA:357,1
DA:372,2
DA:374,2
DA:377,2
DA:389,2
DA:393,103
DA:396,103
DA:399,103
DA:429,8
DA:431,8
DA:437,8
end_of_record
SF:/usr/include/c++/11/bits/stl_pair.h
DA:211,0
end_of_record
SF:/usr/include/c++/11/ext/new_allocator.h
DA:79,60
DA:82,112
DA:89,93
DA:132,0
DA:145,0
DA:166,0
DA:168,0
end_of_record
SF:/mnt/c/users/gabci/desktop/nhf2/src/world_object/ResourceStructure.h
DA:31,10
end_of_record
SF:/mnt/c/users/gabci/desktop/nhf2/src/fake_sfml/fake_sfml.h
DA:180,0
DA:187,2
end_of_record
SF:/mnt/c/users/gabci/desktop/nhf2/src/world_object/Structure.h
FN:72,_ZN8minerals9StructureD0Ev
FNDA:0,_ZN8minerals9StructureD0Ev
FN:72,_ZN8minerals9StructureD2Ev
FNDA:12,_ZN8minerals9StructureD2Ev
DA:72,0
DA:72,12
end_of_record
SF:/usr/include/c++/11/ext/aligned_buffer.h
DA:104,0
DA:115,0
end_of_record
SF:/usr/include/c++/11/bits/unordered_map.h
DA:102,4
DA:141,2
end_of_record
SF:/mnt/c/users/gabci/desktop/nhf2/src/world_object/House.h
DA:20,1
end_of_record
SF:/usr/include/c++/11/string_view
DA:131,2
DA:132,2
DA:211,2
DA:263,2
end_of_record
SF:/mnt/c/users/gabci/desktop/nhf2/src/EntityPlacer.h
DA:39,2
DA:56,1
end_of_record
SF:/mnt/c/users/gabci/desktop/nhf2/src/SoundPlayer.h
DA:28,4
end_of_record
SF:/mnt/c/users/gabci/desktop/nhf2/src/YAMLParser.h
DA:23,1
end_of_record
SF:/mnt/c/users/gabci/desktop/nhf2/src/main.cpp
FN:13,main
FNDA:1,main
DA:13,1
DA:30,1
DA:38,1
DA:39,1
DA:40,1
DA:42,1
DA:45,1
DA:46,1
DA:47,11
DA:48,10
DA:50,1
DA:51,1
DA:53,1
DA:56,1
DA:57,1
DA:58,1
DA:61,1
DA:62,1
DA:63,1
DA:64,1
DA:67,1
DA:70,1
DA:71,1
DA:74,1
DA:75,1
DA:77,1
DA:78,1
DA:80,1
DA:83,1
DA:84,1
DA:86,1
DA:88,1
DA:90,1
DA:91,1
DA:92,1
DA:93,1
DA:94,1
DA:96,1
DA:99,1
DA:100,1
DA:102,2
DA:103,2
DA:104,2
DA:105,2
DA:107,1
DA:109,1
DA:111,1
DA:114,1
DA:116,1
DA:117,1
DA:120,1
DA:123,1
DA:124,1
DA:125,1
DA:126,1
DA:129,1
DA:130,1
DA:132,1
DA:133,1
DA:134,1
DA:136,1
DA:138,1
DA:139,1
DA:141,1
DA:142,1
DA:145,1
DA:146,1
DA:147,1
DA:149,1
DA:150,1
DA:152,1
DA:154,1
DA:155,1
DA:156,1
DA:159,1
DA:160,1
DA:161,1
DA:162,1
DA:164,1
DA:165,1
DA:166,1
DA:168,1
DA:170,1
DA:171,1
DA:173,1
DA:174,2
DA:176,1
DA:178,2
DA:180,1
DA:181,1
DA:183,1
DA:186,1
DA:187,1
DA:189,1
DA:190,5
DA:191,4
DA:194,1
DA:195,1
DA:197,1
DA:199,1
DA:200,1
DA:202,1
DA:203,5
DA:204,4
DA:207,1
DA:208,1
DA:210,1
DA:212,1
DA:213,1
DA:215,1
DA:216,5
DA:217,4
DA:220,1
DA:221,1
DA:223,1
DA:225,1
DA:226,1
DA:228,1
DA:229,5
DA:230,4
DA:233,1
DA:234,1
DA:236,1
DA:238,1
DA:239,1
DA:241,1
DA:242,5
DA:243,4
DA:246,1
DA:247,1
DA:249,1
DA:251,1
DA:252,1
DA:254,1
DA:255,5
DA:256,4
DA:259,1
DA:260,1
DA:262,1
DA:264,1
DA:265,1
DA:267,1
DA:268,5
DA:269,4
DA:272,1
DA:273,1
DA:275,1
DA:277,1
DA:278,1
DA:280,1
DA:281,5
DA:282,4
DA:285,1
DA:286,1
DA:288,1
DA:291,1
DA:292,1
DA:293,1
DA:294,1
DA:297,1
DA:298,1
DA:300,1
DA:302,5
DA:303,4
DA:306,1
DA:307,1
DA:309,1
DA:311,1
DA:312,1
DA:314,1
DA:315,1
DA:316,1
DA:318,1
DA:320,1
DA:321,1
DA:324,1
DA:325,1
DA:326,1
DA:328,1
DA:329,1
DA:331,1
DA:334,1
DA:335,1
DA:336,1
DA:338,5
DA:339,4
DA:343,1
DA:344,1
DA:346,1
DA:348,1
DA:350,1
DA:351,1
DA:353,1
DA:354,1
DA:356,1
DA:358,1
DA:359,1
DA:362,1
DA:363,1
DA:364,1
DA:366,1
DA:367,1
DA:369,1
DA:372,1
DA:373,1
DA:374,1
DA:376,5
DA:377,4
DA:381,1
DA:382,1
DA:384,1
DA:386,1
DA:388,1
DA:389,1
DA:391,1
DA:392,1
DA:394,1
DA:396,1
DA:397,1
DA:400,1
DA:401,1
DA:402,1
DA:404,1
DA:405,1
DA:407,1
DA:409,1
DA:410,1
DA:412,1
DA:413,1
DA:416,1
DA:417,1
DA:418,1
DA:420,1
DA:421,1
DA:423,1
DA:426,1
DA:428,1
DA:429,1
DA:430,1
DA:431,1
DA:434,1
DA:435,1
DA:437,1
DA:439,1
DA:441,1
DA:442,1
DA:443,1
DA:444,1
DA:446,1
DA:447,1
DA:449,1
DA:451,1
DA:453,1
DA:454,1
DA:455,1
DA:456,1
DA:459,1
DA:460,1
DA:462,1
DA:465,1
DA:466,1
DA:467,1
DA:469,1
DA:471,1
DA:472,1
DA:474,1
DA:477,1
DA:478,1
DA:480,1
DA:481,1
DA:483,1
DA:484,1
DA:486,1
DA:487,1
DA:488,1
DA:490,1
DA:491,1
DA:492,1
DA:494,1
DA:495,2
DA:496,0
DA:499,1
DA:500,2
DA:502,1
DA:505,1
DA:506,1
DA:509,2
DA:511,2
DA:512,1
DA:515,1
DA:516,1
DA:518,2
DA:519,1
DA:521,1
DA:522,1
DA:523,1
DA:524,1
DA:525,1
DA:528,1
DA:529,1
DA:530,1
DA:531,1
DA:534,1
DA:535,1
DA:537,1
DA:538,1
DA:539,0
DA:540,0
DA:543,1
DA:546,1
DA:547,1
DA:550,1
DA:551,1
DA:553,1
DA:554,1
DA:556,1
DA:557,1
DA:559,1
DA:560,1
DA:562,1
DA:564,1
DA:565,1
DA:567,1
DA:568,1
DA:569,1
DA:570,1
DA:572,1
DA:574,1
DA:575,1
DA:577,1
DA:578,1
DA:580,1
DA:583,1
DA:584,1
DA:585,1
DA:586,1
DA:588,1
DA:589,1
DA:591,1
DA:592,1
DA:594,1
DA:595,1
DA:596,1
DA:597,1
DA:599,1
DA:600,1
DA:601,1
DA:602,1
DA:604,1
DA:605,1
DA:606,1
DA:607,1
DA:608,1
DA:611,1
DA:612,1
DA:614,1
DA:615,1
DA:617,1
DA:619,1
DA:620,1
DA:622,1
DA:624,1
DA:626,1
DA:628,1
DA:630,1
DA:631,1
DA:633,1
DA:634,1
DA:635,1
DA:636,1
DA:637,1
DA:639,1
DA:641,1
DA:642,1
DA:643,1
DA:645,1
DA:648,1
DA:649,1
DA:651,1
DA:652,1
DA:654,1
DA:655,1
DA:657,1
DA:658,1
DA:660,1
DA:661,1
DA:663,1
DA:664,1
DA:666,1
DA:667,1
DA:669,2
DA:670,1
DA:675,1
DA:676,1
DA:677,1
DA:678,1
DA:679,1
DA:681,1
DA:682,1
DA:683,1
DA:684,1
DA:686,1
DA:687,1
DA:688,1
DA:690,1
DA:691,1
DA:692,1
DA:694,1
DA:695,1
DA:697,1
DA:698,1
DA:700,1
DA:701,1
DA:702,1
DA:704,1
DA:705,1
DA:707,1
DA:708,1
DA:711,1
DA:712,1
DA:713,1
DA:714,1
DA:715,1
DA:717,1
DA:718,1
DA:719,1
DA:720,1
DA:722,1
DA:723,1
DA:724,1
DA:727,1
DA:728,1
DA:729,1
DA:730,1
DA:731,1
DA:733,1
DA:734,1
DA:735,1
DA:736,1
DA:738,1
DA:739,1
DA:740,1
DA:743,1
DA:744,1
DA:745,1
DA:746,1
DA:748,1
DA:750,1
DA:751,1
DA:752,1
DA:753,1
DA:755,1
DA:756,1
DA:757,1
DA:760,1
DA:761,1
DA:762,1
DA:763,1
DA:765,1
DA:766,1
DA:769,1
DA:770,1
DA:771,1
DA:772,1
DA:774,1
DA:775,1
DA:776,15
DA:777,14
DA:779,1
DA:780,1
DA:782,1
DA:783,1
DA:786,1
DA:787,1
DA:788,1
DA:790,2
DA:791,2
DA:792,2
DA:793,2
DA:794,2
DA:796,1
DA:797,1
DA:798,1
DA:799,1
DA:800,1
DA:802,2
DA:803,2
DA:805,1
DA:807,1
DA:808,1
DA:810,1
DA:811,1
DA:812,1
DA:813,1
DA:814,1
DA:816,1
DA:817,1
DA:819,1
DA:820,1
DA:821,1
DA:823,1
DA:824,1
DA:825,1
DA:826,1
DA:828,1
DA:829,1
DA:831,1
DA:832,1
DA:833,1
DA:835,1
DA:838,1
DA:839,1
DA:842,1
DA:843,1
DA:845,1
DA:847,1
DA:849,1
DA:851,1
DA:853,1
DA:858,2
DA:861,1
end_of_record
SF:/usr/include/c++/11/bits/fs_ops.h
FN:133,_ZNSt10filesystem6existsERKNS_7__cxx114pathE
FNDA:1,_ZNSt10filesystem6existsERKNS_7__cxx114pathE
DA:128,1
DA:129,1
DA:133,1
DA:134,1
end_of_record
SF:/usr/include/c++/11/bits/basic_string.h
FN:533,_ZNSt7__cxx1112basic_stringIcSt11char_traitsIcESaIcEEC2IS3_EEPKcRKS3_
FNDA:101,_ZNSt7__cxx1112basic_stringIcSt11char_traitsIcESaIcEEC2IS3_EEPKcRKS3_
FN:664,_ZNSt7__cxx1112basic_stringIcSt11char_traitsIcESaIcEEC2ISt17basic_string_viewIcS2_EvEERKT_RKS3_
FNDA:2,_ZNSt7__cxx1112basic_stringIcSt11char_traitsIcESaIcEEC2ISt17basic_string_viewIcS2_EvEERKT_RKS3_
FN:6172,_ZStplIcSt11char_traitsIcESaIcEENSt7__cxx1112basic_stringIT_T0_T1_EEOS8_S9_
FNDA:0,_ZStplIcSt11char_traitsIcESaIcEENSt7__cxx1112basic_stringIT_T0_T1_EEOS8_S9_
FN:6206,_ZStplIcSt11char_traitsIcESaIcEENSt7__cxx1112basic_stringIT_T0_T1_EEOS8_PKS5_
FNDA:8,_ZStplIcSt11char_traitsIcESaIcEENSt7__cxx1112basic_stringIT_T0_T1_EEOS8_PKS5_
FN:6234,_ZSteqIcEN9__gnu_cxx11__enable_ifIXsrSt9__is_charIT_E7__valueEbE6__typeERKNSt7__cxx1112basic_stringIS3_St11char_traitsIS3_ESaIS3_EEESE_
FNDA:2,_ZSteqIcEN9__gnu_cxx11__enable_ifIXsrSt9__is_charIT_E7__valueEbE6__typeERKNSt7__cxx1112basic_stringIS3_St11char_traitsIS3_ESaIS3_EEESE_
DA:133,2
DA:142,2
DA:153,2
DA:154,2
DA:158,95
DA:164,103
DA:165,103
DA:167,9
DA:168,1
DA:186,8
DA:187,0
DA:190,9
DA:191,9
DA:194,152
DA:195,0
DA:198,120
DA:201,9
DA:208,8
DA:211,8
DA:218,0
DA:219,0
DA:222,9
DA:224,9
DA:225,1
DA:229,8
DA:230,8
DA:251,2
DA:255,2
DA:271,2
DA:274,2
DA:294,8
DA:295,8
DA:400,0
DA:401,0
DA:404,0
DA:406,0
DA:439,1
DA:441,1
DA:442,1
DA:518,2
DA:520,2
DA:521,2
DA:533,101
DA:534,101
DA:536,101
DA:539,101
DA:540,101
DA:565,8
DA:566,8
DA:568,8
DA:570,8
DA:575,0
DA:576,0
DA:582,8
DA:583,8
DA:584,8
DA:585,0
DA:664,2
DA:665,2
DA:671,3
DA:672,78
DA:689,64
DA:690,64
DA:920,140
DA:921,140
DA:926,8
DA:927,0
DA:976,0
DA:978,0
DA:1213,0
DA:1214,0
DA:1660,0
DA:1661,0
DA:1662,0
DA:2320,4
DA:2321,4
DA:2332,140
DA:2333,140
DA:6172,0
DA:6179,0
DA:6185,0
DA:6186,0
DA:6187,0
DA:6189,0
DA:6206,8
DA:6208,8
DA:6234,2
DA:6236,2
DA:6237,2
DA:6238,2
DA:6248,2
DA:6250,2
DA:6531,138
DA:6536,138
end_of_record
SF:/usr/include/c++/11/bits/allocator.h
DA:156,60
DA:159,112
DA:160,111
DA:169,0
DA:174,93
end_of_record
SF:/mnt/c/users/gabci/desktop/nhf2/src/external/modified_gtest_lite.h
FN:270,_ZN10gtest_lite4Test7getTestEv
FNDA:1,_ZN10gtest_lite4Test7getTestEv
FN:275,_ZN10gtest_lite4TestC2Ev
FNDA:1,_ZN10gtest_lite4TestC2Ev
FN:280,_ZN10gtest_lite4Test5beginEPKc
FNDA:64,_ZN10gtest_lite4Test5beginEPKc
FN:289,_ZN10gtest_lite4Test3endEb
FNDA:64,_ZN10gtest_lite4Test3endEb
FN:315,_ZN10gtest_lite4Test6expectEbPKciS2_b
FNDA:203,_ZN10gtest_lite4Test6expectEbPKciS2_b
FN:331,_ZN10gtest_lite4TestD2Ev
FNDA:1,_ZN10gtest_lite4TestD2Ev
FN:348,_ZN10gtest_lite7EXPECT_IddEERSoT_T0_PFbS2_S2_EPKciS7_S7_S7_
FNDA:1,_ZN10gtest_lite7EXPECT_IddEERSoT_T0_PFbS2_S2_EPKciS7_S7_S7_
FN:348,_ZN10gtest_lite7EXPECT_IbbEERSoT_T0_PFbS2_S2_EPKciS7_S7_S7_
FNDA:62,_ZN10gtest_lite7EXPECT_IbbEERSoT_T0_PFbS2_S2_EPKciS7_S7_S7_
FN:348,_ZN10gtest_lite7EXPECT_IffEERSoT_T0_PFbS2_S2_EPKciS7_S7_S7_
FNDA:1,_ZN10gtest_lite7EXPECT_IffEERSoT_T0_PFbS2_S2_EPKciS7_S7_S7_
FN:348,_ZN10gtest_lite7EXPECT_IiiEERSoT_T0_PFbS2_S2_EPKciS7_S7_S7_
FNDA:5,_ZN10gtest_lite7EXPECT_IiiEERSoT_T0_PFbS2_S2_EPKciS7_S7_S7_
FN:348,_ZN10gtest_lite7EXPECT_IfiEERSoT_T0_PFbS2_S2_EPKciS7_S7_S7_
FNDA:1,_ZN10gtest_lite7EXPECT_IfiEERSoT_T0_PFbS2_S2_EPKciS7_S7_S7_
FN:348,_ZN10gtest_lite7EXPECT_INSt7__cxx1112basic_stringIcSt11char_traitsIcESaIcEEEPKcEERSoT_T0_PFbSA_SA_ES8_iS8_S8_S8_
FNDA:2,_ZN10gtest_lite7EXPECT_INSt7__cxx1112basic_stringIcSt11char_traitsIcESaIcEEEPKcEERSoT_T0_PFbSA_SA_ES8_iS8_S8_S8_
FN:357,_ZN10gtest_lite7EXPECT_IN8creature5HumanES2_EERSoPT_PT0_PFbS5_S5_EPKciSB_SB_SB_
FNDA:1,_ZN10gtest_lite7EXPECT_IN8creature5HumanES2_EERSoPT_PT0_PFbS5_S5_EPKciSB_SB_SB_
FN:357,_ZN10gtest_lite7EXPECT_IN5tiles4TileES2_EERSoPT_PT0_PFbS5_S5_EPKciSB_SB_SB_
FNDA:1,_ZN10gtest_lite7EXPECT_IN5tiles4TileES2_EERSoPT_PT0_PFbS5_S5_EPKciSB_SB_SB_
FN:357,_ZN10gtest_lite7EXPECT_IN2sf7TextureES2_EERSoPT_PT0_PFbS5_S5_EPKciSB_SB_SB_
FNDA:1,_ZN10gtest_lite7EXPECT_IN2sf7TextureES2_EERSoPT_PT0_PFbS5_S5_EPKciSB_SB_SB_
FN:357,_ZN10gtest_lite7EXPECT_IvN8minerals10CityCenterEEERSoPT_PT0_PFbS5_S5_EPKciSB_SB_SB_
FNDA:1,_ZN10gtest_lite7EXPECT_IvN8minerals10CityCenterEEERSoPT_PT0_PFbS5_S5_EPKciSB_SB_SB_
FN:386,_ZN10gtest_lite9EXPECTSTREPKcS1_PFbS1_S1_ES1_iS1_S1_S1_
FNDA:4,_ZN10gtest_lite9EXPECTSTREPKcS1_PFbS1_S1_ES1_iS1_S1_S1_
FN:419,_ZN10gtest_lite2eqIfEEbT_S1_
FNDA:2,_ZN10gtest_lite2eqIfEEbT_S1_
FN:419,_ZN10gtest_lite2eqIPvEEbT_S2_
FNDA:1,_ZN10gtest_lite2eqIPvEEbT_S2_
FN:419,_ZN10gtest_lite2eqIbEEbT_S1_
FNDA:62,_ZN10gtest_lite2eqIbEEbT_S1_
FN:419,_ZN10gtest_lite2eqINSt7__cxx1112basic_stringIcSt11char_traitsIcESaIcEEEEEbT_S7_
FNDA:2,_ZN10gtest_lite2eqINSt7__cxx1112basic_stringIcSt11char_traitsIcESaIcEEEEEbT_S7_
FN:419,_ZN10gtest_lite2eqIiEEbT_S1_
FNDA:5,_ZN10gtest_lite2eqIiEEbT_S1_
FN:419,_ZN10gtest_lite2eqIdEEbT_S1_
FNDA:1,_ZN10gtest_lite2eqIdEEbT_S1_
FN:422,_ZN10gtest_lite5eqstrEPKcS1_
FNDA:4,_ZN10gtest_lite5eqstrEPKcS1_
FN:442,_ZN10gtest_lite2neIPN2sf7TextureEEEbT_S4_
FNDA:1,_ZN10gtest_lite2neIPN2sf7TextureEEEbT_S4_
FN:442,_ZN10gtest_lite2neIPN5tiles4TileEEEbT_S4_
FNDA:1,_ZN10gtest_lite2neIPN5tiles4TileEEEbT_S4_
FN:442,_ZN10gtest_lite2neIPN8creature5HumanEEEbT_S4_
FNDA:1,_ZN10gtest_lite2neIPN8creature5HumanEEEbT_S4_
DA:270,1
DA:271,1
DA:272,1
DA:275,1
DA:280,64
DA:281,64
DA:285,64
DA:286,64
DA:287,64
DA:289,64
DA:296,64
DA:299,64
DA:301,64
DA:302,0
DA:304,64
DA:305,0
DA:307,64
DA:310,1
DA:315,203
DA:316,203
DA:317,0
DA:318,0
DA:320,203
DA:321,0
DA:322,0
DA:323,0
DA:324,0
DA:325,0
DA:326,0
DA:327,203
DA:331,1
DA:332,1
DA:333,1
DA:335,1
DA:336,0
DA:339,1
DA:348,1
DA:350,1
DA:351,1
DA:352,1
DA:348,1
DA:350,1
DA:351,1
DA:352,1
DA:348,2
DA:350,4
DA:351,2
DA:352,4
DA:348,5
DA:350,5
DA:351,5
DA:352,5
DA:348,1
DA:350,1
DA:351,1
DA:352,1
DA:348,62
DA:350,62
DA:351,62
DA:352,62
DA:357,1
DA:359,1
DA:360,1
DA:361,1
DA:357,1
DA:359,1
DA:360,1
DA:361,1
DA:357,1
DA:359,1
DA:360,1
DA:361,1
DA:357,1
DA:359,1
DA:360,1
DA:361,1
DA:386,4
DA:388,4
DA:389,16
DA:390,28
DA:419,1
DA:419,2
DA:419,5
DA:419,1
DA:419,2
DA:419,62
DA:422,4
DA:423,4
DA:424,4
DA:442,1
DA:442,1
DA:442,1
end_of_record
SF:/usr/include/c++/11/bits/std_function.h
FN:180,_ZNSt14_Function_base13_Base_managerIZ4mainEUlvE_E10_M_managerERSt9_Any_dataRKS3_St18_Manager_operation
FNDA:3,_ZNSt14_Function_base13_Base_managerIZ4mainEUlvE_E10_M_managerERSt9_Any_dataRKS3_St18_Manager_operation
FN:241,_ZNSt14_Function_baseD2Ev
FNDA:15,_ZNSt14_Function_baseD2Ev
FN:267,_ZNSt17_Function_handlerIFvvEZ4mainEUlvE_E10_M_managerERSt9_Any_dataRKS3_St18_Manager_operation
FNDA:3,_ZNSt17_Function_handlerIFvvEZ4mainEUlvE_E10_M_managerERSt9_Any_dataRKS3_St18_Manager_operation
FN:288,_ZNSt17_Function_handlerIFvvEZ4mainEUlvE_E9_M_invokeERKSt9_Any_data
FNDA:1,_ZNSt17_Function_handlerIFvvEZ4mainEUlvE_E9_M_invokeERKSt9_Any_data
DA:85,2
DA:86,2
DA:91,0
DA:95,0
DA:96,2
DA:134,0
DA:138,2
DA:150,2
DA:166,2
DA:168,2
DA:180,3
DA:183,3
DA:185,0
DA:187,0
DA:191,0
DA:193,0
DA:194,0
DA:195,0
DA:197,1
DA:198,3
DA:199,1
DA:202,2
DA:203,2
DA:204,2
DA:206,3
DA:211,2
DA:215,2
DA:216,1
DA:235,1
DA:239,1
DA:241,15
DA:243,15
DA:244,13
DA:245,15
DA:267,3
DA:270,3
DA:273,0
DA:274,0
DA:275,0
DA:277,0
DA:278,0
DA:279,0
DA:281,3
DA:282,3
DA:284,3
DA:288,1
DA:290,1
DA:291,1
DA:334,1
DA:435,1
DA:437,1
DA:447,1
DA:449,1
DA:451,1
DA:452,1
end_of_record
SF:/mnt/c/users/gabci/desktop/nhf2/src/world_object/Stone.h
DA:19,2
end_of_record
SF:/usr/include/c++/11/bits/invoke.h
DA:60,1
DA:61,1
DA:104,1
DA:111,1
end_of_record
SF:/usr/include/c++/11/ostream
DA:108,333
DA:113,333
DA:127,144
DA:132,144
DA:174,124
DA:175,124
DA:220,2
DA:221,2
DA:224,3
DA:228,3
DA:245,8
DA:246,8
end_of_record
SF:/mnt/c/users/gabci/desktop/nhf2/src/PostProcesser.h
end_of_record
SF:/mnt/c/users/gabci/desktop/nhf2/src/SaveManager.h
DA:32,3
end_of_record
SF:/mnt/c/users/gabci/desktop/nhf2/src/terrain_tiles/Tile.h
DA:26,24
end_of_record
SF:/usr/include/c++/11/bits/stl_iterator_base_funcs.h
DA:98,0
DA:104,0
DA:138,0
DA:141,0
end_of_record
SF:/usr/include/c++/11/bits/alloc_traits.h
DA:495,0
DA:496,0
DA:531,0
DA:535,0
end_of_record
SF:/usr/include/c++/11/tuple
DA:124,2
DA:233,2
DA:268,2
DA:424,2
DA:1377,2
DA:1378,4
DA:1393,2
DA:1394,2
end_of_record
SF:/mnt/c/users/gabci/desktop/nhf2/src/ui/button.h
end_of_record
SF:/mnt/c/users/gabci/desktop/nhf2/src/world_object/BerryBush.h
DA:18,4
end_of_record
SF:/usr/include/c++/11/bits/move.h
DA:77,1
DA:104,11
end_of_record
SF:/usr/include/c++/11/bits/ios_base.h
FN:908,_ZSt9boolalphaRSt8ios_base
FNDA:144,_ZSt9boolalphaRSt8ios_base
DA:87,144
DA:88,144
DA:99,144
DA:100,144
DA:676,144
DA:678,144
DA:679,144
DA:680,144
DA:908,144
DA:910,144
DA:911,144
end_of_record
SF:/mnt/c/users/gabci/desktop/nhf2/src/world_object/Iron.h
DA:19,2
end_of_record
SF:/usr/include/c++/11/iostream
end_of_record
SF:/usr/include/c++/11/bits/hashtable.h
FN:453,_ZNSt10_HashtableIiSt4pairIKiSt8functionIFbvEEESaIS5_ENSt8__detail10_Select1stESt8equal_toIiESt4hashIiENS7_18_Mod_range_hashingENS7_20_Default_ranged_hashENS7_20_Prime_rehash_policyENS7_17_Hashtable_traitsILb0ELb0ELb1EEEE21_M_deallocate_bucketsEv
FNDA:0,_ZNSt10_HashtableIiSt4pairIKiSt8functionIFbvEEESaIS5_ENSt8__detail10_Select1stESt8equal_toIiESt4hashIiENS7_18_Mod_range_hashingENS7_20_Default_ranged_hashENS7_20_Prime_rehash_policyENS7_17_Hashtable_traitsILb0ELb0ELb1EEEE21_M_deallocate_bucketsEv
FN:453,_ZNSt10_HashtableIiSt4pairIKiSt8functionIFbR5WorldRKN2sf8Vector2iEEEESaISB_ENSt8__detail10_Select1stESt8equal_toIiESt4hashIiENSD_18_Mod_range_hashingENSD_20_Default_ranged_hashENSD_20_Prime_rehash_policyENSD_17_Hashtable_traitsILb0ELb0ELb1EEEE21_M_deallocate_bucketsEv
FNDA:0,_ZNSt10_HashtableIiSt4pairIKiSt8functionIFbR5WorldRKN2sf8Vector2iEEEESaISB_ENSt8__detail10_Select1stESt8equal_toIiESt4hashIiENSD_18_Mod_range_hashingENSD_20_Default_ranged_hashENSD_20_Prime_rehash_policyENSD_17_Hashtable_traitsILb0ELb0ELb1EEEE21_M_deallocate_bucketsEv
FN:453,_ZNSt10_HashtableINSt7__cxx1112basic_stringIcSt11char_traitsIcESaIcEEESt4pairIKS5_N2sf11SoundBufferEESaISA_ENSt8__detail10_Select1stESt8equal_toIS5_ESt4hashIS5_ENSC_18_Mod_range_hashingENSC_20_Default_ranged_hashENSC_20_Prime_rehash_policyENSC_17_Hashtable_traitsILb1ELb0ELb1EEEE21_M_deallocate_bucketsEv
FNDA:0,_ZNSt10_HashtableINSt7__cxx1112basic_stringIcSt11char_traitsIcESaIcEEESt4pairIKS5_N2sf11SoundBufferEESaISA_ENSt8__detail10_Select1stESt8equal_toIS5_ESt4hashIS5_ENSC_18_Mod_range_hashingENSC_20_Default_ranged_hashENSC_20_Prime_rehash_policyENSC_17_Hashtable_traitsILb1ELb0ELb1EEEE21_M_deallocate_bucketsEv
FN:453,_ZNSt10_HashtableINSt7__cxx1112basic_stringIcSt11char_traitsIcESaIcEEESt4pairIKS5_S5_ESaIS8_ENSt8__detail10_Select1stESt8equal_toIS5_ESt4hashIS5_ENSA_18_Mod_range_hashingENSA_20_Default_ranged_hashENSA_20_Prime_rehash_policyENSA_17_Hashtable_traitsILb1ELb0ELb1EEEE21_M_deallocate_bucketsEv
FNDA:0,_ZNSt10_HashtableINSt7__cxx1112basic_stringIcSt11char_traitsIcESaIcEEESt4pairIKS5_S5_ESaIS8_ENSt8__detail10_Select1stESt8equal_toIS5_ESt4hashIS5_ENSA_18_Mod_range_hashingENSA_20_Default_ranged_hashENSA_20_Prime_rehash_policyENSA_17_Hashtable_traitsILb1ELb0ELb1EEEE21_M_deallocate_bucketsEv
FN:1528,_ZNSt10_HashtableIiSt4pairIKiSt8functionIFbvEEESaIS5_ENSt8__detail10_Select1stESt8equal_toIiESt4hashIiENS7_18_Mod_range_hashingENS7_20_Default_ranged_hashENS7_20_Prime_rehash_policyENS7_17_Hashtable_traitsILb0ELb0ELb1EEEED2Ev
FNDA:0,_ZNSt10_HashtableIiSt4pairIKiSt8functionIFbvEEESaIS5_ENSt8__detail10_Select1stESt8equal_toIiESt4hashIiENS7_18_Mod_range_hashingENS7_20_Default_ranged_hashENS7_20_Prime_rehash_policyENS7_17_Hashtable_traitsILb0ELb0ELb1EEEED2Ev
FN:1528,_ZNSt10_HashtableIiSt4pairIKiSt8functionIFbR5WorldRKN2sf8Vector2iEEEESaISB_ENSt8__detail10_Select1stESt8equal_toIiESt4hashIiENSD_18_Mod_range_hashingENSD_20_Default_ranged_hashENSD_20_Prime_rehash_policyENSD_17_Hashtable_traitsILb0ELb0ELb1EEEED2Ev
FNDA:0,_ZNSt10_HashtableIiSt4pairIKiSt8functionIFbR5WorldRKN2sf8Vector2iEEEESaISB_ENSt8__detail10_Select1stESt8equal_toIiESt4hashIiENSD_18_Mod_range_hashingENSD_20_Default_ranged_hashENSD_20_Prime_rehash_policyENSD_17_Hashtable_traitsILb0ELb0ELb1EEEED2Ev
FN:1528,_ZNSt10_HashtableINSt7__cxx1112basic_stringIcSt11char_traitsIcESaIcEEESt4pairIKS5_N2sf11SoundBufferEESaISA_ENSt8__detail10_Select1stESt8equal_toIS5_ESt4hashIS5_ENSC_18_Mod_range_hashingENSC_20_Default_ranged_hashENSC_20_Prime_rehash_policyENSC_17_Hashtable_traitsILb1ELb0ELb1EEEED2Ev
FNDA:0,_ZNSt10_HashtableINSt7__cxx1112basic_stringIcSt11char_traitsIcESaIcEEESt4pairIKS5_N2sf11SoundBufferEESaISA_ENSt8__detail10_Select1stESt8equal_toIS5_ESt4hashIS5_ENSC_18_Mod_range_hashingENSC_20_Default_ranged_hashENSC_20_Prime_rehash_policyENSC_17_Hashtable_traitsILb1ELb0ELb1EEEED2Ev
FN:1528,_ZNSt10_HashtableINSt7__cxx1112basic_stringIcSt11char_traitsIcESaIcEEESt4pairIKS5_S5_ESaIS8_ENSt8__detail10_Select1stESt8equal_toIS5_ESt4hashIS5_ENSA_18_Mod_range_hashingENSA_20_Default_ranged_hashENSA_20_Prime_rehash_policyENSA_17_Hashtable_traitsILb1ELb0ELb1EEEED2Ev
FNDA:0,_ZNSt10_HashtableINSt7__cxx1112basic_stringIcSt11char_traitsIcESaIcEEESt4pairIKS5_S5_ESaIS8_ENSt8__detail10_Select1stESt8equal_toIS5_ESt4hashIS5_ENSA_18_Mod_range_hashingENSA_20_Default_ranged_hashENSA_20_Prime_rehash_policyENSA_17_Hashtable_traitsILb1ELb0ELb1EEEED2Ev
FN:2316,_ZNSt10_HashtableIiSt4pairIKiSt8functionIFbvEEESaIS5_ENSt8__detail10_Select1stESt8equal_toIiESt4hashIiENS7_18_Mod_range_hashingENS7_20_Default_ranged_hashENS7_20_Prime_rehash_policyENS7_17_Hashtable_traitsILb0ELb0ELb1EEEE5clearEv
FNDA:0,_ZNSt10_HashtableIiSt4pairIKiSt8functionIFbvEEESaIS5_ENSt8__detail10_Select1stESt8equal_toIiESt4hashIiENS7_18_Mod_range_hashingENS7_20_Default_ranged_hashENS7_20_Prime_rehash_policyENS7_17_Hashtable_traitsILb0ELb0ELb1EEEE5clearEv
FN:2316,_ZNSt10_HashtableIiSt4pairIKiSt8functionIFbR5WorldRKN2sf8Vector2iEEEESaISB_ENSt8__detail10_Select1stESt8equal_toIiESt4hashIiENSD_18_Mod_range_hashingENSD_20_Default_ranged_hashENSD_20_Prime_rehash_policyENSD_17_Hashtable_traitsILb0ELb0ELb1EEEE5clearEv
FNDA:0,_ZNSt10_HashtableIiSt4pairIKiSt8functionIFbR5WorldRKN2sf8Vector2iEEEESaISB_ENSt8__detail10_Select1stESt8equal_toIiESt4hashIiENSD_18_Mod_range_hashingENSD_20_Default_ranged_hashENSD_20_Prime_rehash_policyENSD_17_Hashtable_traitsILb0ELb0ELb1EEEE5clearEv
FN:2316,_ZNSt10_HashtableINSt7__cxx1112basic_stringIcSt11char_traitsIcESaIcEEESt4pairIKS5_N2sf11SoundBufferEESaISA_ENSt8__detail10_Select1stESt8equal_toIS5_ESt4hashIS5_ENSC_18_Mod_range_hashingENSC_20_Default_ranged_hashENSC_20_Prime_rehash_policyENSC_17_Hashtable_traitsILb1ELb0ELb1EEEE5clearEv
FNDA:0,_ZNSt10_HashtableINSt7__cxx1112basic_stringIcSt11char_traitsIcESaIcEEESt4pairIKS5_N2sf11SoundBufferEESaISA_ENSt8__detail10_Select1stESt8equal_toIS5_ESt4hashIS5_ENSC_18_Mod_range_hashingENSC_20_Default_ranged_hashENSC_20_Prime_rehash_policyENSC_17_Hashtable_traitsILb1ELb0ELb1EEEE5clearEv
FN:2316,_ZNSt10_HashtableINSt7__cxx1112basic_stringIcSt11char_traitsIcESaIcEEESt4pairIKS5_S5_ESaIS8_ENSt8__detail10_Select1stESt8equal_toIS5_ESt4hashIS5_ENSA_18_Mod_range_hashingENSA_20_Default_ranged_hashENSA_20_Prime_rehash_policyENSA_17_Hashtable_traitsILb1ELb0ELb1EEEE5clearEv
FNDA:0,_ZNSt10_HashtableINSt7__cxx1112basic_stringIcSt11char_traitsIcESaIcEEESt4pairIKS5_S5_ESaIS8_ENSt8__detail10_Select1stESt8equal_toIS5_ESt4hashIS5_ENSA_18_Mod_range_hashingENSA_20_Default_ranged_hashENSA_20_Prime_rehash_policyENSA_17_Hashtable_traitsILb1ELb0ELb1EEEE5clearEv
DA:421,0
DA:422,0
DA:444,0
DA:446,0
DA:449,0
DA:453,0
DA:454,0
DA:453,0
DA:454,0
DA:453,0
DA:454,0
DA:453,0
DA:454,0
DA:462,0
DA:463,0
DA:528,2
DA:1528,0
DA:1532,0
DA:1533,0
DA:1534,0
DA:1528,0
DA:1532,0
DA:1533,0
DA:1534,0
DA:1528,0
DA:1532,0
DA:1533,0
DA:1534,0
DA:1528,0
DA:1532,0
DA:1533,0
DA:1534,0
DA:2316,0
DA:2320,0
DA:2321,0
DA:2322,0
DA:2323,0
DA:2324,0
DA:2325,0
DA:2316,0
DA:2320,0
DA:2321,0
DA:2322,0
DA:2323,0
DA:2324,0
DA:2325,0
DA:2316,0
DA:2320,0
DA:2321,0
DA:2322,0
DA:2323,0
DA:2324,0
DA:2325,0
DA:2316,0
DA:2320,0
DA:2321,0
DA:2322,0
DA:2323,0
DA:2324,0
DA:2325,0
end_of_record
TN:
SF:/mnt/c/users/gabci/desktop/nhf2/src/fake_sfml/fake_sfml.h
DA:209,3
end_of_record
SF:/usr/include/c++/11/ext/new_allocator.h
DA:82,751
DA:89,755
end_of_record
SF:/usr/include/c++/11/bits/basic_string.tcc
FN:1169,_ZStplIcSt11char_traitsIcESaIcEENSt7__cxx1112basic_stringIT_T0_T1_EEPKS5_RKS8_
FNDA:751,_ZStplIcSt11char_traitsIcESaIcEENSt7__cxx1112basic_stringIT_T0_T1_EEPKS5_RKS8_
DA:1169,751
DA:1178,751
DA:1179,751
DA:1181,751
DA:1182,751
DA:1183,751
DA:1184,751
DA:1185,0
end_of_record
SF:/mnt/c/users/gabci/desktop/nhf2/src/exceptions/SimulationException.h
FN:20,_ZN19SimulationExceptionC2ERKNSt7__cxx1112basic_stringIcSt11char_traitsIcESaIcEEE
FNDA:3,_ZN19SimulationExceptionC2ERKNSt7__cxx1112basic_stringIcSt11char_traitsIcESaIcEEE
DA:20,6
end_of_record
SF:/usr/include/c++/11/bits/char_traits.h
DA:356,751
DA:357,751
DA:393,751
DA:396,751
DA:399,751
end_of_record
SF:/mnt/c/users/gabci/desktop/nhf2/src/MusicPlayer.cpp
FN:3,_ZN11MusicPlayerC2Ev
FNDA:3,_ZN11MusicPlayerC2Ev
FN:8,_ZN11MusicPlayer10load_musicERKNSt7__cxx1112basic_stringIcSt11char_traitsIcESaIcEEE
FNDA:4,_ZN11MusicPlayer10load_musicERKNSt7__cxx1112basic_stringIcSt11char_traitsIcESaIcEEE
FN:23,_ZN11MusicPlayer12toggle_musicEv
FNDA:0,_ZN11MusicPlayer12toggle_musicEv
FN:36,_ZN11MusicPlayer10set_volumeEf
FNDA:2,_ZN11MusicPlayer10set_volumeEf
FN:41,_ZN11MusicPlayerD2Ev
FNDA:3,_ZN11MusicPlayerD2Ev
DA:3,3
DA:4,3
DA:5,3
DA:6,3
DA:8,4
DA:9,4
DA:10,0
DA:13,4
DA:14,2
DA:18,3
DA:19,3
DA:20,3
DA:23,0
DA:24,0
DA:28,0
DA:29,0
DA:30,0
DA:32,0
DA:36,2
DA:37,2
DA:38,2
DA:40,2
DA:41,3
DA:42,3
DA:43,3
DA:46,3
end_of_record
SF:/usr/include/c++/11/bits/alloc_traits.h
DA:562,751
DA:563,751
end_of_record
SF:/usr/include/c++/11/iostream
end_of_record
SF:/usr/include/c++/11/bits/basic_string.h
DA:158,7
DA:164,751
DA:165,751
DA:190,751
DA:191,751
DA:194,751
DA:195,751
DA:198,751
DA:201,751
DA:222,751
DA:224,751
DA:225,751
DA:299,751
DA:448,751
DA:449,751
DA:450,751
DA:671,7
DA:672,7
DA:920,1502
DA:921,751
DA:1213,751
DA:1214,751
DA:2351,751
DA:2352,751
end_of_record
SF:/usr/include/c++/11/ext/alloc_traits.h
DA:97,751
DA:98,751
end_of_record
SF:/usr/include/c++/11/bits/allocator.h
DA:159,751
DA:160,751
DA:174,755
end_of_record
SF:/mnt/c/users/gabci/desktop/nhf2/src/exceptions/MusicLoadException.h
DA:19,1
end_of_record
TN:
SF:/usr/include/c++/11/bits/basic_string.tcc
FN:206,_ZNSt7__cxx1112basic_stringIcSt11char_traitsIcESaIcEE12_M_constructIPKcEEvT_S8_St20forward_iterator_tag
FNDA:0,_ZNSt7__cxx1112basic_stringIcSt11char_traitsIcESaIcEE12_M_constructIPKcEEvT_S8_St20forward_iterator_tag
DA:206,0
DA:211,0
DA:212,0
DA:215,0
DA:217,0
DA:219,0
DA:220,0
DA:225,0
DA:232,0
DA:233,0
end_of_record
SF:/usr/include/c++/11/bits/char_traits.h
DA:356,0
DA:357,0
DA:393,15
DA:396,15
DA:399,15
end_of_record
SF:/mnt/c/users/gabci/desktop/nhf2/src/fake_sfml/fake_sfml.h
end_of_record
SF:/usr/include/c++/11/ext/new_allocator.h
DA:79,15
DA:82,15
DA:89,15
end_of_record
SF:/usr/include/c++/11/bits/basic_string.h
FN:533,_ZNSt7__cxx1112basic_stringIcSt11char_traitsIcESaIcEEC2IS3_EEPKcRKS3_
FNDA:15,_ZNSt7__cxx1112basic_stringIcSt11char_traitsIcESaIcEEC2IS3_EEPKcRKS3_
DA:158,15
DA:164,15
DA:165,15
DA:186,0
DA:187,0
DA:190,0
DA:191,0
DA:194,0
DA:195,0
DA:198,15
DA:201,15
DA:218,0
DA:219,0
DA:222,0
DA:224,0
DA:225,0
DA:404,0
DA:406,0
DA:533,15
DA:534,15
DA:536,15
DA:539,15
DA:540,15
DA:671,15
DA:672,15
end_of_record
SF:/usr/include/c++/11/bits/allocator.h
DA:156,15
DA:159,15
DA:160,15
DA:174,15
end_of_record
SF:/usr/include/c++/11/bits/stl_iterator_base_funcs.h
DA:98,0
DA:104,0
DA:138,0
DA:141,0
end_of_record
SF:/usr/include/c++/11/iostream
end_of_record
SF:/mnt/c/users/gabci/desktop/nhf2/src/PostProcesser.cpp
FN:3,_ZN13PostProcesserC2Ev
FNDA:5,_ZN13PostProcesserC2Ev
FN:14,_ZN13PostProcesser15toggle_vignetteEb
FNDA:9,_ZN13PostProcesser15toggle_vignetteEb
FN:18,_ZN13PostProcesser12toggle_noiseEb
FNDA:7,_ZN13PostProcesser12toggle_noiseEb
FN:21,_ZN13PostProcesser27toggle_chromatic_aberrationEb
FNDA:7,_ZN13PostProcesser27toggle_chromatic_aberrationEb
FN:25,_ZN13PostProcesser13setTextureForERN2sf6SpriteERKNSt7__cxx1112basic_stringIcSt11char_traitsIcESaIcEEE
FNDA:15,_ZN13PostProcesser13setTextureForERN2sf6SpriteERKNSt7__cxx1112basic_stringIcSt11char_traitsIcESaIcEEE
FN:36,_ZN13PostProcesser13setRenderSizeEdd
FNDA:6,_ZN13PostProcesser13setRenderSizeEdd
FN:46,_ZN13PostProcesser15setColorOverlayEiiii
FNDA:4,_ZN13PostProcesser15setColorOverlayEiiii
FN:55,_ZN13PostProcesser4drawERN2sf12RenderWindowE
FNDA:10,_ZN13PostProcesser4drawERN2sf12RenderWindowE
DA:3,5
DA:4,5
DA:5,5
DA:6,5
DA:8,5
DA:9,5
DA:10,5
DA:11,5
DA:12,5
DA:14,9
DA:15,9
DA:16,9
DA:18,7
DA:19,7
DA:20,7
DA:21,7
DA:22,7
DA:23,7
DA:25,15
DA:26,15
DA:28,15
DA:32,15
DA:33,15
DA:36,6
DA:37,6
DA:38,2
DA:40,4
DA:41,4
DA:42,4
DA:43,4
DA:44,4
DA:46,4
DA:47,4
DA:48,3
DA:50,1
DA:52,4
DA:53,4
DA:55,10
DA:56,10
DA:57,0
DA:59,10
DA:60,10
DA:62,10
DA:63,10
DA:65,10
DA:66,0
DA:68,10
end_of_record
TN:
SF:/usr/include/c++/11/ext/new_allocator.h
DA:79,191
DA:82,191
DA:89,259
end_of_record
SF:/usr/include/c++/11/bits/char_traits.h
DA:356,53
DA:357,53
DA:393,138
DA:396,138
DA:399,138
end_of_record
SF:/usr/include/c++/11/bits/basic_string.tcc
FN:206,_ZNSt7__cxx1112basic_stringIcSt11char_traitsIcESaIcEE12_M_constructIPcEEvT_S7_St20forward_iterator_tag
FNDA:0,_ZNSt7__cxx1112basic_stringIcSt11char_traitsIcESaIcEE12_M_constructIPcEEvT_S7_St20forward_iterator_tag
FN:206,_ZNSt7__cxx1112basic_stringIcSt11char_traitsIcESaIcEE12_M_constructIPKcEEvT_S8_St20forward_iterator_tag
FNDA:0,_ZNSt7__cxx1112basic_stringIcSt11char_traitsIcESaIcEE12_M_constructIPKcEEvT_S8_St20forward_iterator_tag
DA:206,0
DA:211,0
DA:212,0
DA:215,0
DA:217,0
DA:219,0
DA:220,0
DA:225,0
DA:232,0
DA:233,0
DA:206,0
DA:211,0
DA:212,0
DA:215,0
DA:217,0
DA:219,0
DA:220,0
DA:225,0
DA:232,0
DA:233,0
end_of_record
SF:/mnt/c/users/gabci/desktop/nhf2/src/Textureable.h
DA:26,53
end_of_record
SF:/mnt/c/users/gabci/desktop/nhf2/src/Profession.h
end_of_record
SF:/usr/include/c++/11/iostream
end_of_record
SF:/usr/include/c++/11/bits/move.h
DA:104,53
end_of_record
SF:/usr/include/c++/11/bits/stl_iterator_base_funcs.h
DA:98,0
DA:104,0
DA:138,0
DA:141,0
end_of_record
SF:/mnt/c/users/gabci/desktop/nhf2/src/Profession.cpp
FN:4,_ZN10Profession10setTextureERKNSt7__cxx1112basic_stringIcSt11char_traitsIcESaIcEEE
FNDA:70,_ZN10Profession10setTextureERKNSt7__cxx1112basic_stringIcSt11char_traitsIcESaIcEEE
FN:17,_ZN10Profession11setPositionEdd
FNDA:21,_ZN10Profession11setPositionEdd
FN:22,_ZN10Profession4drawERN2sf12RenderWindowE
FNDA:20,_ZN10Profession4drawERN2sf12RenderWindowE
FN:27,_ZN10Profession15load_professionERKNSt7__cxx1112basic_stringIcSt11char_traitsIcESaIcEEE
FNDA:68,_ZN10Profession15load_professionERKNSt7__cxx1112basic_stringIcSt11char_traitsIcESaIcEEE
FN:37,_ZN10ProfessionC2ERKNSt7__cxx1112basic_stringIcSt11char_traitsIcESaIcEEE
FNDA:53,_ZN10ProfessionC2ERKNSt7__cxx1112basic_stringIcSt11char_traitsIcESaIcEEE
FN:41,_ZN10Profession9to_stringB5cxx11Ev
FNDA:6,_ZN10Profession9to_stringB5cxx11Ev
DA:4,70
DA:5,70
DA:6,70
DA:8,70
DA:12,67
DA:13,67
DA:14,67
DA:17,21
DA:18,21
DA:19,21
DA:20,21
DA:22,20
DA:23,20
DA:24,20
DA:25,20
DA:27,68
DA:28,68
DA:29,68
DA:30,68
DA:32,68
DA:33,68
DA:35,68
DA:36,68
DA:37,53
DA:38,53
DA:39,53
DA:41,6
DA:42,6
end_of_record
SF:/usr/include/c++/11/bits/allocator.h
DA:156,191
DA:159,191
DA:160,138
DA:174,259
end_of_record
SF:/usr/include/c++/11/bits/basic_string.h
FN:533,_ZNSt7__cxx1112basic_stringIcSt11char_traitsIcESaIcEEC2IS3_EEPKcRKS3_
FNDA:138,_ZNSt7__cxx1112basic_stringIcSt11char_traitsIcESaIcEEC2IS3_EEPKcRKS3_
DA:158,206
DA:164,138
DA:165,138
DA:167,53
DA:168,53
DA:186,0
DA:187,0
DA:190,53
DA:191,53
DA:194,68
DA:195,0
DA:198,191
DA:201,53
DA:218,0
DA:219,0
DA:222,53
DA:224,53
DA:225,53
DA:400,0
DA:401,0
DA:404,0
DA:406,0
DA:439,53
DA:441,53
DA:442,53
DA:533,138
DA:534,138
DA:536,138
DA:539,138
DA:540,138
DA:671,68
DA:672,138
DA:679,68
DA:681,68
DA:920,68
DA:921,68
DA:1160,68
DA:1161,68
DA:1169,68
DA:1170,68
DA:1213,68
DA:1214,68
DA:1356,68
DA:1387,68
end_of_record
TN:
SF:/usr/include/c++/11/bits/basic_string.tcc
FN:206,_ZNSt7__cxx1112basic_stringIcSt11char_traitsIcESaIcEE12_M_constructIPKcEEvT_S8_St20forward_iterator_tag
FNDA:1,_ZNSt7__cxx1112basic_stringIcSt11char_traitsIcESaIcEE12_M_constructIPKcEEvT_S8_St20forward_iterator_tag
DA:206,1
DA:211,1
DA:212,0
DA:215,1
DA:217,1
DA:219,0
DA:220,1
DA:225,1
DA:232,1
DA:233,1
end_of_record
SF:/usr/include/c++/11/bits/uniform_int_dist.h
FN:246,_ZNSt24uniform_int_distributionIiE5_S_ndImSt23mersenne_twister_engineImLm32ELm624ELm397ELm31ELm2567483615ELm11ELm4294967295ELm7ELm2636928640ELm15ELm4022730752ELm18ELm1812433253EEjEET1_RT0_S4_
FNDA:3233,_ZNSt24uniform_int_distributionIiE5_S_ndImSt23mersenne_twister_engineImLm32ELm624ELm397ELm31ELm2567483615ELm11ELm4294967295ELm7ELm2636928640ELm15ELm4022730752ELm18ELm1812433253EEjEET1_RT0_S4_
FN:276,_ZNSt24uniform_int_distributionIiEclISt23mersenne_twister_engineImLm32ELm624ELm397ELm31ELm2567483615ELm11ELm4294967295ELm7ELm2636928640ELm15ELm4022730752ELm18ELm1812433253EEEEiRT_RKNS0_10param_typeE
FNDA:3233,_ZNSt24uniform_int_distributionIiEclISt23mersenne_twister_engineImLm32ELm624ELm397ELm31ELm2567483615ELm11ELm4294967295ELm7ELm2636928640ELm15ELm4022730752ELm18ELm1812433253EEEEiRT_RKNS0_10param_typeE
DA:93,3233
DA:95,3233
DA:97,3233
DA:101,6466
DA:102,6466
DA:105,3233
DA:106,3233
DA:131,3233
DA:134,3233
DA:192,3233
DA:193,3233
DA:246,3233
DA:258,3233
DA:259,3233
DA:260,3233
DA:262,0
DA:263,0
DA:265,0
DA:266,0
DA:269,3233
DA:276,3233
DA:284,3233
DA:285,3233
DA:288,3233
DA:290,3233
DA:291,3233
DA:294,3233
DA:298,3233
DA:315,3233
DA:316,3233
DA:330,0
DA:350,0
DA:351,0
DA:352,0
DA:353,0
DA:355,0
DA:358,0
DA:360,3233
end_of_record
SF:/usr/include/c++/11/bits/char_traits.h
DA:356,1
DA:357,1
DA:393,1
DA:396,1
DA:399,1
end_of_record
SF:/usr/include/x86_64-linux-gnu/c++/11/bits/gthr-default.h
DA:746,3233
DA:748,3233
DA:749,3233
DA:776,3233
DA:778,3233
DA:779,3233
end_of_record
SF:/usr/include/c++/11/ext/new_allocator.h
DA:79,1
DA:82,1
DA:89,1
end_of_record
SF:/usr/include/c++/11/bits/std_mutex.h
FN:98,_ZNSt5mutex4lockEv
FNDA:3233,_ZNSt5mutex4lockEv
DA:65,1
DA:91,1
DA:98,3233
DA:100,3233
DA:103,3233
DA:104,0
DA:105,3233
DA:115,3233
DA:118,6466
DA:228,3233
DA:229,3233
DA:234,3233
DA:235,3233
end_of_record
SF:/mnt/c/users/gabci/desktop/nhf2/src/Random_Gen.h
FN:28,_ZN15RandomGeneratorC2Ev
FNDA:1,_ZN15RandomGeneratorC2Ev
DA:28,1
end_of_record
SF:/mnt/c/users/gabci/desktop/nhf2/src/Random_Gen.cpp
FN:2,_ZN15RandomGenerator12get_instanceEv
FNDA:3233,_ZN15RandomGenerator12get_instanceEv
FN:7,_ZN15RandomGenerator14get_random_intEi
FNDA:3233,_ZN15RandomGenerator14get_random_intEi
DA:2,3233
DA:3,3233
DA:4,3233
DA:7,3233
DA:9,3233
DA:11,3233
DA:12,3233
DA:13,3233
end_of_record
SF:/usr/include/c++/11/chrono
DA:223,2
DA:227,2
DA:267,2
DA:276,2
DA:521,2
DA:537,2
DA:898,2
DA:899,1
end_of_record
SF:/usr/include/c++/11/bits/basic_string.h
FN:533,_ZNSt7__cxx1112basic_stringIcSt11char_traitsIcESaIcEEC2IS3_EEPKcRKS3_
FNDA:1,_ZNSt7__cxx1112basic_stringIcSt11char_traitsIcESaIcEEC2IS3_EEPKcRKS3_
DA:158,1
DA:164,1
DA:165,1
DA:186,0
DA:187,0
DA:190,1
DA:191,1
DA:194,2
DA:195,1
DA:198,1
DA:201,1
DA:218,0
DA:219,0
DA:222,1
DA:224,1
DA:225,1
DA:404,1
DA:406,1
DA:533,1
DA:534,1
DA:536,1
DA:539,1
DA:540,1
DA:671,1
DA:672,1
end_of_record
SF:/usr/include/c++/11/bits/allocator.h
DA:156,1
DA:159,1
DA:160,1
DA:174,1
end_of_record
SF:/usr/include/c++/11/bits/stl_iterator_base_funcs.h
DA:98,1
DA:104,1
DA:138,1
DA:141,1
end_of_record
SF:/usr/include/c++/11/bits/random.tcc
FN:323,_ZNSt23mersenne_twister_engineImLm32ELm624ELm397ELm31ELm2567483615ELm11ELm4294967295ELm7ELm2636928640ELm15ELm4022730752ELm18ELm1812433253EE4seedEm
FNDA:1,_ZNSt23mersenne_twister_engineImLm32ELm624ELm397ELm31ELm2567483615ELm11ELm4294967295ELm7ELm2636928640ELm15ELm4022730752ELm18ELm1812433253EE4seedEm
FN:394,_ZNSt23mersenne_twister_engineImLm32ELm624ELm397ELm31ELm2567483615ELm11ELm4294967295ELm7ELm2636928640ELm15ELm4022730752ELm18ELm1812433253EE11_M_gen_randEv
FNDA:6,_ZNSt23mersenne_twister_engineImLm32ELm624ELm397ELm31ELm2567483615ELm11ELm4294967295ELm7ELm2636928640ELm15ELm4022730752ELm18ELm1812433253EE11_M_gen_randEv
FN:450,_ZNSt23mersenne_twister_engineImLm32ELm624ELm397ELm31ELm2567483615ELm11ELm4294967295ELm7ELm2636928640ELm15ELm4022730752ELm18ELm1812433253EEclEv
FNDA:3233,_ZNSt23mersenne_twister_engineImLm32ELm624ELm397ELm31ELm2567483615ELm11ELm4294967295ELm7ELm2636928640ELm15ELm4022730752ELm18ELm1812433253EEclEv
DA:323,1
DA:327,1
DA:328,1
DA:330,624
DA:332,623
DA:333,623
DA:334,623
DA:335,623
DA:336,623
DA:337,623
DA:339,1
DA:340,1
DA:394,6
DA:398,6
DA:399,6
DA:401,1368
DA:403,1362
DA:404,1362
DA:405,2724
DA:406,2034
DA:409,2382
DA:411,2376
DA:412,2376
DA:413,4752
DA:414,3571
DA:417,6
DA:418,6
DA:419,12
DA:420,6
DA:421,6
DA:422,6
DA:450,3233
DA:455,3233
DA:456,6
DA:459,3233
DA:460,3233
DA:461,3233
DA:462,3233
DA:463,3233
DA:465,3233
end_of_record
SF:/usr/include/c++/11/bits/random.h
FN:1618,_ZNSt13random_deviceC2Ev
FNDA:1,_ZNSt13random_deviceC2Ev
DA:136,624
DA:138,624
DA:140,624
DA:147,624
DA:154,624
DA:155,624
DA:530,1
DA:531,1
DA:1618,2
DA:1624,0
DA:1625,0
DA:1647,1
DA:1648,1
end_of_record
SF:/usr/include/c++/11/iostream
end_of_record
TN:
SF:/usr/include/c++/11/ext/new_allocator.h
FN:103,_ZN9__gnu_cxx13new_allocatorINSt8__detail10_Hash_nodeISt4pairIKNSt7__cxx1112basic_stringIcSt11char_traitsIcESaIcEEESt8functionIFPN8minerals17ResourceStructureEiiEEELb1EEEE8allocateEmPKv
FNDA:4,_ZN9__gnu_cxx13new_allocatorINSt8__detail10_Hash_nodeISt4pairIKNSt7__cxx1112basic_stringIcSt11char_traitsIcESaIcEEESt8functionIFPN8minerals17ResourceStructureEiiEEELb1EEEE8allocateEmPKv
FN:103,_ZN9__gnu_cxx13new_allocatorINSt8__detail10_Hash_nodeISt4pairIKNSt7__cxx1112basic_stringIcSt11char_traitsIcESaIcEEESt8functionIFPN8creature5HumanEiiNSC_13ENTITY_GENDEREEEELb1EEEE8allocateEmPKv
FNDA:10,_ZN9__gnu_cxx13new_allocatorINSt8__detail10_Hash_nodeISt4pairIKNSt7__cxx1112basic_stringIcSt11char_traitsIcESaIcEEESt8functionIFPN8creature5HumanEiiNSC_13ENTITY_GENDEREEEELb1EEEE8allocateEmPKv
FN:103,_ZN9__gnu_cxx13new_allocatorINSt8__detail10_Hash_nodeISt4pairIKNSt7__cxx1112basic_stringIcSt11char_traitsIcESaIcEEESt8functionIFPN8creature6LivingEiiEEELb1EEEE8allocateEmPKv
FNDA:4,_ZN9__gnu_cxx13new_allocatorINSt8__detail10_Hash_nodeISt4pairIKNSt7__cxx1112basic_stringIcSt11char_traitsIcESaIcEEESt8functionIFPN8creature6LivingEiiEEELb1EEEE8allocateEmPKv
FN:103,_ZN9__gnu_cxx13new_allocatorIPNSt8__detail15_Hash_node_baseEE8allocateEmPKv
FNDA:3,_ZN9__gnu_cxx13new_allocatorIPNSt8__detail15_Hash_node_baseEE8allocateEmPKv
FN:103,_ZN9__gnu_cxx13new_allocatorI10RoleOptionE8allocateEmPKv
FNDA:1,_ZN9__gnu_cxx13new_allocatorI10RoleOptionE8allocateEmPKv
FN:103,_ZN9__gnu_cxx13new_allocatorISt4pairINSt7__cxx1112basic_stringIcSt11char_traitsIcESaIcEEEiEE8allocateEmPKv
FNDA:14,_ZN9__gnu_cxx13new_allocatorISt4pairINSt7__cxx1112basic_stringIcSt11char_traitsIcESaIcEEEiEE8allocateEmPKv
DA:79,53
DA:82,70
DA:89,108
DA:103,4
DA:111,4
DA:115,0
DA:116,0
DA:117,0
DA:127,4
DA:103,10
DA:111,10
DA:115,0
DA:116,0
DA:117,0
DA:127,10
DA:103,4
DA:111,4
DA:115,0
DA:116,0
DA:117,0
DA:127,4
DA:103,3
DA:111,3
DA:115,0
DA:116,0
DA:117,0
DA:127,3
DA:103,1
DA:111,1
DA:115,0
DA:116,0
DA:117,0
DA:127,1
DA:103,14
DA:111,14
DA:115,0
DA:116,0
DA:117,0
DA:127,14
DA:132,36
DA:145,36
DA:160,18
DA:162,18
DA:166,18
DA:168,18
end_of_record
SF:/mnt/c/users/gabci/desktop/nhf2/src/SaveHelpers.h
DA:48,7
end_of_record
SF:/usr/include/c++/11/bits/unordered_map.h
end_of_record
SF:/usr/include/c++/11/ext/aligned_buffer.h
DA:102,18
DA:104,36
DA:110,25
DA:114,18
DA:115,36
end_of_record
SF:/usr/include/c++/11/bits/basic_string.tcc
FN:206,_ZNSt7__cxx1112basic_stringIcSt11char_traitsIcESaIcEE12_M_constructIPcEEvT_S7_St20forward_iterator_tag
FNDA:0,_ZNSt7__cxx1112basic_stringIcSt11char_traitsIcESaIcEE12_M_constructIPcEEvT_S7_St20forward_iterator_tag
FN:206,_ZNSt7__cxx1112basic_stringIcSt11char_traitsIcESaIcEE12_M_constructIPKcEEvT_S8_St20forward_iterator_tag
FNDA:0,_ZNSt7__cxx1112basic_stringIcSt11char_traitsIcESaIcEE12_M_constructIPKcEEvT_S8_St20forward_iterator_tag
DA:206,0
DA:211,0
DA:212,0
DA:215,0
DA:217,0
DA:219,0
DA:220,0
DA:225,0
DA:232,0
DA:233,0
DA:206,0
DA:211,0
DA:212,0
DA:215,0
DA:217,0
DA:219,0
DA:220,0
DA:225,0
DA:232,0
DA:233,0
end_of_record
SF:/usr/include/c++/11/bits/stl_pair.h
FN:314,_ZNSt4pairIKNSt7__cxx1112basic_stringIcSt11char_traitsIcESaIcEEESt8functionIFPN8minerals17ResourceStructureEiiEEEC2ERKSD_
FNDA:4,_ZNSt4pairIKNSt7__cxx1112basic_stringIcSt11char_traitsIcESaIcEEESt8functionIFPN8minerals17ResourceStructureEiiEEEC2ERKSD_
FN:314,_ZNSt4pairIKNSt7__cxx1112basic_stringIcSt11char_traitsIcESaIcEEESt8functionIFPN8creature5HumanEiiNS8_13ENTITY_GENDEREEEEC2ERKSE_
FNDA:10,_ZNSt4pairIKNSt7__cxx1112basic_stringIcSt11char_traitsIcESaIcEEESt8functionIFPN8creature5HumanEiiNS8_13ENTITY_GENDEREEEEC2ERKSE_
FN:314,_ZNSt4pairIKNSt7__cxx1112basic_stringIcSt11char_traitsIcESaIcEEESt8functionIFPN8creature6LivingEiiEEEC2ERKSD_
FNDA:4,_ZNSt4pairIKNSt7__cxx1112basic_stringIcSt11char_traitsIcESaIcEEESt8functionIFPN8creature6LivingEiiEEEC2ERKSD_
DA:211,46
DA:314,4
DA:314,10
DA:314,4
DA:314,28
DA:352,18
DA:353,18
end_of_record
SF:/usr/include/c++/11/bits/char_traits.h
DA:356,0
DA:357,0
DA:372,25
DA:374,25
DA:377,25
DA:389,25
DA:393,44
DA:396,44
DA:399,44
end_of_record
SF:/usr/include/c++/11/bits/stl_iterator.h
DA:1027,7
DA:1028,7
DA:1052,14
DA:1054,14
DA:1179,21
DA:1182,21
end_of_record
SF:/usr/include/c++/11/initializer_list
DA:71,11
DA:75,11
DA:79,11
end_of_record
SF:/usr/include/c++/11/bits/hashtable_policy.h
FN:1870,_ZNSt8__detail16_Hashtable_allocISaINS_10_Hash_nodeISt4pairIKNSt7__cxx1112basic_stringIcSt11char_traitsIcESaIcEEESt8functionIFPN8creature5HumanEiiNSB_13ENTITY_GENDEREEEELb1EEEEE16_M_allocate_nodeIJRKSH_EEEPSI_DpOT_
FNDA:10,_ZNSt8__detail16_Hashtable_allocISaINS_10_Hash_nodeISt4pairIKNSt7__cxx1112basic_stringIcSt11char_traitsIcESaIcEEESt8functionIFPN8creature5HumanEiiNSB_13ENTITY_GENDEREEEELb1EEEEE16_M_allocate_nodeIJRKSH_EEEPSI_DpOT_
FN:1870,_ZNSt8__detail16_Hashtable_allocISaINS_10_Hash_nodeISt4pairIKNSt7__cxx1112basic_stringIcSt11char_traitsIcESaIcEEESt8functionIFPN8creature6LivingEiiEEELb1EEEEE16_M_allocate_nodeIJRKSG_EEEPSH_DpOT_
FNDA:4,_ZNSt8__detail16_Hashtable_allocISaINS_10_Hash_nodeISt4pairIKNSt7__cxx1112basic_stringIcSt11char_traitsIcESaIcEEESt8functionIFPN8creature6LivingEiiEEELb1EEEEE16_M_allocate_nodeIJRKSG_EEEPSH_DpOT_
FN:1870,_ZNSt8__detail16_Hashtable_allocISaINS_10_Hash_nodeISt4pairIKNSt7__cxx1112basic_stringIcSt11char_traitsIcESaIcEEESt8functionIFPN8minerals17ResourceStructureEiiEEELb1EEEEE16_M_allocate_nodeIJRKSG_EEEPSH_DpOT_
FNDA:4,_ZNSt8__detail16_Hashtable_allocISaINS_10_Hash_nodeISt4pairIKNSt7__cxx1112basic_stringIcSt11char_traitsIcESaIcEEESt8functionIFPN8minerals17ResourceStructureEiiEEELb1EEEEE16_M_allocate_nodeIJRKSG_EEEPSH_DpOT_
FN:1892,_ZNSt8__detail16_Hashtable_allocISaINS_10_Hash_nodeISt4pairIKNSt7__cxx1112basic_stringIcSt11char_traitsIcESaIcEEESt8functionIFPN8creature6LivingEiiEEELb1EEEEE18_M_deallocate_nodeEPSH_
FNDA:4,_ZNSt8__detail16_Hashtable_allocISaINS_10_Hash_nodeISt4pairIKNSt7__cxx1112basic_stringIcSt11char_traitsIcESaIcEEESt8functionIFPN8creature6LivingEiiEEELb1EEEEE18_M_deallocate_nodeEPSH_
FN:1892,_ZNSt8__detail16_Hashtable_allocISaINS_10_Hash_nodeISt4pairIKNSt7__cxx1112basic_stringIcSt11char_traitsIcESaIcEEESt8functionIFPN8minerals17ResourceStructureEiiEEELb1EEEEE18_M_deallocate_nodeEPSH_
FNDA:4,_ZNSt8__detail16_Hashtable_allocISaINS_10_Hash_nodeISt4pairIKNSt7__cxx1112basic_stringIcSt11char_traitsIcESaIcEEESt8functionIFPN8minerals17ResourceStructureEiiEEELb1EEEEE18_M_deallocate_nodeEPSH_
FN:1892,_ZNSt8__detail16_Hashtable_allocISaINS_10_Hash_nodeISt4pairIKNSt7__cxx1112basic_stringIcSt11char_traitsIcESaIcEEESt8functionIFPN8creature5HumanEiiNSB_13ENTITY_GENDEREEEELb1EEEEE18_M_deallocate_nodeEPSI_
FNDA:10,_ZNSt8__detail16_Hashtable_allocISaINS_10_Hash_nodeISt4pairIKNSt7__cxx1112basic_stringIcSt11char_traitsIcESaIcEEESt8functionIFPN8creature5HumanEiiNSB_13ENTITY_GENDEREEEELb1EEEEE18_M_deallocate_nodeEPSI_
FN:1900,_ZNSt8__detail16_Hashtable_allocISaINS_10_Hash_nodeISt4pairIKNSt7__cxx1112basic_stringIcSt11char_traitsIcESaIcEEESt8functionIFPN8minerals17ResourceStructureEiiEEELb1EEEEE22_M_deallocate_node_ptrEPSH_
FNDA:4,_ZNSt8__detail16_Hashtable_allocISaINS_10_Hash_nodeISt4pairIKNSt7__cxx1112basic_stringIcSt11char_traitsIcESaIcEEESt8functionIFPN8minerals17ResourceStructureEiiEEELb1EEEEE22_M_deallocate_node_ptrEPSH_
FN:1900,_ZNSt8__detail16_Hashtable_allocISaINS_10_Hash_nodeISt4pairIKNSt7__cxx1112basic_stringIcSt11char_traitsIcESaIcEEESt8functionIFPN8creature5HumanEiiNSB_13ENTITY_GENDEREEEELb1EEEEE22_M_deallocate_node_ptrEPSI_
FNDA:10,_ZNSt8__detail16_Hashtable_allocISaINS_10_Hash_nodeISt4pairIKNSt7__cxx1112basic_stringIcSt11char_traitsIcESaIcEEESt8functionIFPN8creature5HumanEiiNSB_13ENTITY_GENDEREEEELb1EEEEE22_M_deallocate_node_ptrEPSI_
FN:1900,_ZNSt8__detail16_Hashtable_allocISaINS_10_Hash_nodeISt4pairIKNSt7__cxx1112basic_stringIcSt11char_traitsIcESaIcEEESt8functionIFPN8creature6LivingEiiEEELb1EEEEE22_M_deallocate_node_ptrEPSH_
FNDA:4,_ZNSt8__detail16_Hashtable_allocISaINS_10_Hash_nodeISt4pairIKNSt7__cxx1112basic_stringIcSt11char_traitsIcESaIcEEESt8functionIFPN8creature6LivingEiiEEELb1EEEEE22_M_deallocate_node_ptrEPSH_
FN:1910,_ZNSt8__detail16_Hashtable_allocISaINS_10_Hash_nodeISt4pairIKNSt7__cxx1112basic_stringIcSt11char_traitsIcESaIcEEESt8functionIFPN8creature6LivingEiiEEELb1EEEEE19_M_deallocate_nodesEPSH_
FNDA:1,_ZNSt8__detail16_Hashtable_allocISaINS_10_Hash_nodeISt4pairIKNSt7__cxx1112basic_stringIcSt11char_traitsIcESaIcEEESt8functionIFPN8creature6LivingEiiEEELb1EEEEE19_M_deallocate_nodesEPSH_
FN:1910,_ZNSt8__detail16_Hashtable_allocISaINS_10_Hash_nodeISt4pairIKNSt7__cxx1112basic_stringIcSt11char_traitsIcESaIcEEESt8functionIFPN8creature5HumanEiiNSB_13ENTITY_GENDEREEEELb1EEEEE19_M_deallocate_nodesEPSI_
FNDA:1,_ZNSt8__detail16_Hashtable_allocISaINS_10_Hash_nodeISt4pairIKNSt7__cxx1112basic_stringIcSt11char_traitsIcESaIcEEESt8functionIFPN8creature5HumanEiiNSB_13ENTITY_GENDEREEEELb1EEEEE19_M_deallocate_nodesEPSI_
FN:1910,_ZNSt8__detail16_Hashtable_allocISaINS_10_Hash_nodeISt4pairIKNSt7__cxx1112basic_stringIcSt11char_traitsIcESaIcEEESt8functionIFPN8minerals17ResourceStructureEiiEEELb1EEEEE19_M_deallocate_nodesEPSH_
FNDA:1,_ZNSt8__detail16_Hashtable_allocISaINS_10_Hash_nodeISt4pairIKNSt7__cxx1112basic_stringIcSt11char_traitsIcESaIcEEESt8functionIFPN8minerals17ResourceStructureEiiEEELb1EEEEE19_M_deallocate_nodesEPSH_
FN:1922,_ZNSt8__detail16_Hashtable_allocISaINS_10_Hash_nodeISt4pairIKNSt7__cxx1112basic_stringIcSt11char_traitsIcESaIcEEESt8functionIFPN8creature6LivingEiiEEELb1EEEEE19_M_allocate_bucketsEm
FNDA:1,_ZNSt8__detail16_Hashtable_allocISaINS_10_Hash_nodeISt4pairIKNSt7__cxx1112basic_stringIcSt11char_traitsIcESaIcEEESt8functionIFPN8creature6LivingEiiEEELb1EEEEE19_M_allocate_bucketsEm
FN:1922,_ZNSt8__detail16_Hashtable_allocISaINS_10_Hash_nodeISt4pairIKNSt7__cxx1112basic_stringIcSt11char_traitsIcESaIcEEESt8functionIFPN8creature5HumanEiiNSB_13ENTITY_GENDEREEEELb1EEEEE19_M_allocate_bucketsEm
FNDA:1,_ZNSt8__detail16_Hashtable_allocISaINS_10_Hash_nodeISt4pairIKNSt7__cxx1112basic_stringIcSt11char_traitsIcESaIcEEESt8functionIFPN8creature5HumanEiiNSB_13ENTITY_GENDEREEEELb1EEEEE19_M_allocate_bucketsEm
FN:1922,_ZNSt8__detail16_Hashtable_allocISaINS_10_Hash_nodeISt4pairIKNSt7__cxx1112basic_stringIcSt11char_traitsIcESaIcEEESt8functionIFPN8minerals17ResourceStructureEiiEEELb1EEEEE19_M_allocate_bucketsEm
FNDA:1,_ZNSt8__detail16_Hashtable_allocISaINS_10_Hash_nodeISt4pairIKNSt7__cxx1112basic_stringIcSt11char_traitsIcESaIcEEESt8functionIFPN8minerals17ResourceStructureEiiEEELb1EEEEE19_M_allocate_bucketsEm
FN:1935,_ZNSt8__detail16_Hashtable_allocISaINS_10_Hash_nodeISt4pairIKNSt7__cxx1112basic_stringIcSt11char_traitsIcESaIcEEESt8functionIFPN8creature5HumanEiiNSB_13ENTITY_GENDEREEEELb1EEEEE21_M_deallocate_bucketsEPPNS_15_Hash_node_baseEm
FNDA:1,_ZNSt8__detail16_Hashtable_allocISaINS_10_Hash_nodeISt4pairIKNSt7__cxx1112basic_stringIcSt11char_traitsIcESaIcEEESt8functionIFPN8creature5HumanEiiNSB_13ENTITY_GENDEREEEELb1EEEEE21_M_deallocate_bucketsEPPNS_15_Hash_node_baseEm
FN:1935,_ZNSt8__detail16_Hashtable_allocISaINS_10_Hash_nodeISt4pairIKNSt7__cxx1112basic_stringIcSt11char_traitsIcESaIcEEESt8functionIFPN8creature6LivingEiiEEELb1EEEEE21_M_deallocate_bucketsEPPNS_15_Hash_node_baseEm
FNDA:1,_ZNSt8__detail16_Hashtable_allocISaINS_10_Hash_nodeISt4pairIKNSt7__cxx1112basic_stringIcSt11char_traitsIcESaIcEEESt8functionIFPN8creature6LivingEiiEEELb1EEEEE21_M_deallocate_bucketsEPPNS_15_Hash_node_baseEm
FN:1935,_ZNSt8__detail16_Hashtable_allocISaINS_10_Hash_nodeISt4pairIKNSt7__cxx1112basic_stringIcSt11char_traitsIcESaIcEEESt8functionIFPN8minerals17ResourceStructureEiiEEELb1EEEEE21_M_deallocate_bucketsEPPNS_15_Hash_node_baseEm
FNDA:1,_ZNSt8__detail16_Hashtable_allocISaINS_10_Hash_nodeISt4pairIKNSt7__cxx1112basic_stringIcSt11char_traitsIcESaIcEEESt8functionIFPN8minerals17ResourceStructureEiiEEELb1EEEEE21_M_deallocate_bucketsEPPNS_15_Hash_node_baseEm
DA:93,43
DA:95,43
DA:162,18
DA:163,18
DA:167,18
DA:168,18
DA:219,21
DA:237,18
DA:238,36
DA:242,25
DA:277,18
DA:282,18
DA:283,0
DA:295,18
DA:338,18
DA:339,0
DA:428,41
DA:430,41
DA:446,3
DA:447,3
DA:473,18
DA:474,18
DA:481,0
DA:482,0
DA:840,18
DA:842,18
DA:843,18
DA:844,18
DA:1124,3
DA:1130,3
DA:1131,3
DA:1212,3
DA:1215,18
DA:1219,18
DA:1232,21
DA:1233,21
DA:1247,20
DA:1251,20
DA:1263,18
DA:1264,18
DA:1595,33
DA:1596,33
DA:1606,3
DA:1607,3
DA:1611,33
DA:1617,33
DA:1802,3
DA:1828,3
DA:1829,3
DA:1870,4
DA:1873,4
DA:1874,4
DA:1877,4
DA:1878,4
DA:1881,4
DA:1883,0
DA:1885,0
DA:1886,0
DA:1870,10
DA:1873,10
DA:1874,10
DA:1877,10
DA:1878,10
DA:1881,10
DA:1883,0
DA:1885,0
DA:1886,0
DA:1870,4
DA:1873,4
DA:1874,4
DA:1877,4
DA:1878,4
DA:1881,4
DA:1883,0
DA:1885,0
DA:1886,0
DA:1892,4
DA:1894,4
DA:1895,4
DA:1896,4
DA:1892,10
DA:1894,10
DA:1895,10
DA:1896,10
DA:1892,4
DA:1894,4
DA:1895,4
DA:1896,4
DA:1900,4
DA:1903,4
DA:1904,4
DA:1905,4
DA:1906,4
DA:1900,10
DA:1903,10
DA:1904,10
DA:1905,10
DA:1906,10
DA:1900,4
DA:1903,4
DA:1904,4
DA:1905,4
DA:1906,4
DA:1910,1
DA:1912,5
DA:1914,4
DA:1915,4
DA:1916,4
DA:1918,1
DA:1910,1
DA:1912,11
DA:1914,10
DA:1915,10
DA:1916,10
DA:1918,1
DA:1910,1
DA:1912,5
DA:1914,4
DA:1915,4
DA:1916,4
DA:1918,1
DA:1922,1
DA:1925,1
DA:1927,1
DA:1928,1
DA:1929,1
DA:1930,1
DA:1931,1
DA:1922,1
DA:1925,1
DA:1927,1
DA:1928,1
DA:1929,1
DA:1930,1
DA:1931,1
DA:1922,1
DA:1925,1
DA:1927,1
DA:1928,1
DA:1929,1
DA:1930,1
DA:1931,1
DA:1935,1
DA:1940,1
DA:1941,1
DA:1942,1
DA:1943,1
DA:1935,1
DA:1940,1
DA:1941,1
DA:1942,1
DA:1943,1
DA:1935,1
DA:1940,1
DA:1941,1
DA:1942,1
DA:1943,1
end_of_record
SF:/usr/include/c++/11/bits/functional_hash.h
DA:196,18
DA:198,18
end_of_record
SF:/usr/include/c++/11/bits/alloc_traits.h
DA:463,36
DA:464,36
DA:495,36
DA:496,15
DA:511,18
DA:516,36
DA:520,18
DA:531,18
DA:535,18
DA:562,7
DA:563,7
DA:845,15
DA:848,1
end_of_record
SF:/usr/include/c++/11/bits/stl_iterator_base_funcs.h
DA:98,8
DA:104,8
DA:138,8
DA:141,8
end_of_record
SF:/mnt/c/users/gabci/desktop/nhf2/src/SaveHelpers.cpp
FN:4,_ZN8minerals17mineral_to_stringB5cxx11ENS_12MINERAL_TYPEE
FNDA:40,_ZN8minerals17mineral_to_stringB5cxx11ENS_12MINERAL_TYPEE
FN:29,_ZNK10SaveHelperUliiE_clEii
FNDA:0,_ZNK10SaveHelperUliiE_clEii
FN:34,_ZNK10SaveHelperUliiE0_clEii
FNDA:0,_ZNK10SaveHelperUliiE0_clEii
FN:39,_ZNK10SaveHelperUliiE1_clEii
FNDA:4,_ZNK10SaveHelperUliiE1_clEii
FN:44,_ZNK10SaveHelperUliiE2_clEii
FNDA:0,_ZNK10SaveHelperUliiE2_clEii
FN:52,_ZNK10SaveHelperUliiN8creature13ENTITY_GENDEREE3_clEiiS1_
FNDA:1,_ZNK10SaveHelperUliiN8creature13ENTITY_GENDEREE3_clEiiS1_
FN:53,_ZNK10SaveHelperUliiN8creature13ENTITY_GENDEREE4_clEiiS1_
FNDA:0,_ZNK10SaveHelperUliiN8creature13ENTITY_GENDEREE4_clEiiS1_
FN:54,_ZNK10SaveHelperUliiN8creature13ENTITY_GENDEREE5_clEiiS1_
FNDA:0,_ZNK10SaveHelperUliiN8creature13ENTITY_GENDEREE5_clEiiS1_
FN:55,_ZNK10SaveHelperUliiN8creature13ENTITY_GENDEREE6_clEiiS1_
FNDA:0,_ZNK10SaveHelperUliiN8creature13ENTITY_GENDEREE6_clEiiS1_
FN:56,_ZNK10SaveHelperUliiN8creature13ENTITY_GENDEREE7_clEiiS1_
FNDA:0,_ZNK10SaveHelperUliiN8creature13ENTITY_GENDEREE7_clEiiS1_
FN:57,_ZNK10SaveHelperUliiN8creature13ENTITY_GENDEREE8_clEiiS1_
FNDA:0,_ZNK10SaveHelperUliiN8creature13ENTITY_GENDEREE8_clEiiS1_
FN:58,_ZNK10SaveHelperUliiN8creature13ENTITY_GENDEREE9_clEiiS1_
FNDA:0,_ZNK10SaveHelperUliiN8creature13ENTITY_GENDEREE9_clEiiS1_
FN:59,_ZNK10SaveHelperUliiN8creature13ENTITY_GENDEREE10_clEiiS1_
FNDA:0,_ZNK10SaveHelperUliiN8creature13ENTITY_GENDEREE10_clEiiS1_
FN:60,_ZNK10SaveHelperUliiN8creature13ENTITY_GENDEREE11_clEiiS1_
FNDA:0,_ZNK10SaveHelperUliiN8creature13ENTITY_GENDEREE11_clEiiS1_
FN:61,_ZNK10SaveHelperUliiN8creature13ENTITY_GENDEREE12_clEiiS1_
FNDA:0,_ZNK10SaveHelperUliiN8creature13ENTITY_GENDEREE12_clEiiS1_
FN:65,_ZNK10SaveHelperUliiE13_clEii
FNDA:8,_ZNK10SaveHelperUliiE13_clEii
FN:66,_ZNK10SaveHelperUliiE14_clEii
FNDA:4,_ZNK10SaveHelperUliiE14_clEii
FN:67,_ZNK10SaveHelperUliiE15_clEii
FNDA:4,_ZNK10SaveHelperUliiE15_clEii
FN:68,_ZNK10SaveHelperUliiE16_clEii
FNDA:4,_ZNK10SaveHelperUliiE16_clEii
FN:72,_ZNK10SaveHelperUliiT_E17_clIN8creature13ENTITY_GENDEREEEDaiiS0_
FNDA:0,_ZNK10SaveHelperUliiT_E17_clIN8creature13ENTITY_GENDEREEEDaiiS0_
FN:73,_ZNK10SaveHelperUliiT_E18_clIN8creature13ENTITY_GENDEREEEDaiiS0_
FNDA:1,_ZNK10SaveHelperUliiT_E18_clIN8creature13ENTITY_GENDEREEEDaiiS0_
FN:74,_ZNK10SaveHelperUliiT_E19_clIN8creature13ENTITY_GENDEREEEDaiiS0_
FNDA:0,_ZNK10SaveHelperUliiT_E19_clIN8creature13ENTITY_GENDEREEEDaiiS0_
FN:75,_ZNK10SaveHelperUliiT_E20_clIN8creature13ENTITY_GENDEREEEDaiiS0_
FNDA:0,_ZNK10SaveHelperUliiT_E20_clIN8creature13ENTITY_GENDEREEEDaiiS0_
FN:76,_ZNK10SaveHelperUliiT_E21_clIN8creature13ENTITY_GENDEREEEDaiiS0_
FNDA:2,_ZNK10SaveHelperUliiT_E21_clIN8creature13ENTITY_GENDEREEEDaiiS0_
FN:77,_ZNK10SaveHelperUliiT_E22_clIN8creature13ENTITY_GENDEREEEDaiiS0_
FNDA:0,_ZNK10SaveHelperUliiT_E22_clIN8creature13ENTITY_GENDEREEEDaiiS0_
FN:78,_ZNK10SaveHelperUliiT_E23_clIN8creature13ENTITY_GENDEREEEDaiiS0_
FNDA:0,_ZNK10SaveHelperUliiT_E23_clIN8creature13ENTITY_GENDEREEEDaiiS0_
FN:81,_ZN10SaveHelper18getCreatureFactoryB5cxx11Ev
FNDA:8,_ZN10SaveHelper18getCreatureFactoryB5cxx11Ev
FN:85,_ZN10SaveHelper15getHumanFactoryB5cxx11Ev
FNDA:2,_ZN10SaveHelper15getHumanFactoryB5cxx11Ev
FN:89,_ZN10SaveHelper18getResourceFactoryB5cxx11Ev
FNDA:40,_ZN10SaveHelper18getResourceFactoryB5cxx11Ev
FN:92,_ZN10SaveHelper9get_rolesEv
FNDA:10,_ZN10SaveHelper9get_rolesEv
FN:96,_ZN10SaveHelper13trim_bracketsERKNSt7__cxx1112basic_stringIcSt11char_traitsIcESaIcEEE
FNDA:25,_ZN10SaveHelper13trim_bracketsERKNSt7__cxx1112basic_stringIcSt11char_traitsIcESaIcEEE
DA:4,40
DA:5,40
DA:6,8
DA:7,8
DA:8,8
DA:9,8
DA:10,8
DA:11,8
DA:12,16
DA:13,16
DA:14,0
DA:15,0
DA:16,0
DA:17,0
DA:18,0
DA:19,0
DA:29,0
DA:30,0
DA:31,0
DA:32,0
DA:34,0
DA:35,0
DA:36,0
DA:37,0
DA:39,4
DA:40,4
DA:41,4
DA:42,4
DA:44,0
DA:45,0
DA:46,0
DA:47,0
DA:52,1
DA:53,0
DA:54,0
DA:55,0
DA:56,0
DA:57,0
DA:58,0
DA:59,0
DA:60,0
DA:61,0
DA:65,8
DA:66,4
DA:67,4
DA:68,4
DA:72,0
DA:73,1
DA:74,0
DA:75,0
DA:76,2
DA:77,0
DA:78,0
DA:81,8
DA:82,8
DA:85,2
DA:86,2
DA:89,40
DA:90,40
DA:92,10
DA:93,10
DA:96,25
DA:97,25
end_of_record
SF:/usr/include/c++/11/bits/stl_construct.h
FN:160,_ZNSt12_Destroy_auxILb0EE9__destroyIP10RoleOptionEEvT_S4_
FNDA:1,_ZNSt12_Destroy_auxILb0EE9__destroyIP10RoleOptionEEvT_S4_
DA:109,35
DA:119,35
DA:120,7
DA:146,35
DA:151,35
DA:160,1
DA:162,50
DA:163,42
DA:164,1
DA:182,0
DA:196,1
end_of_record
SF:/usr/include/c++/11/bits/hashtable.h
FN:308,_ZNSt10_HashtableINSt7__cxx1112basic_stringIcSt11char_traitsIcESaIcEEESt4pairIKS5_St8functionIFPN8creature6LivingEiiEEESaISE_ENSt8__detail10_Select1stESt8equal_toIS5_ESt4hashIS5_ENSG_18_Mod_range_hashingENSG_20_Default_ranged_hashENSG_20_Prime_rehash_policyENSG_17_Hashtable_traitsILb1ELb0ELb1EEEE12_Scoped_nodeD2Ev
FNDA:4,_ZNSt10_HashtableINSt7__cxx1112basic_stringIcSt11char_traitsIcESaIcEEESt4pairIKS5_St8functionIFPN8creature6LivingEiiEEESaISE_ENSt8__detail10_Select1stESt8equal_toIS5_ESt4hashIS5_ENSG_18_Mod_range_hashingENSG_20_Default_ranged_hashENSG_20_Prime_rehash_policyENSG_17_Hashtable_traitsILb1ELb0ELb1EEEE12_Scoped_nodeD2Ev
FN:308,_ZNSt10_HashtableINSt7__cxx1112basic_stringIcSt11char_traitsIcESaIcEEESt4pairIKS5_St8functionIFPN8creature5HumanEiiNS9_13ENTITY_GENDEREEEESaISF_ENSt8__detail10_Select1stESt8equal_toIS5_ESt4hashIS5_ENSH_18_Mod_range_hashingENSH_20_Default_ranged_hashENSH_20_Prime_rehash_policyENSH_17_Hashtable_traitsILb1ELb0ELb1EEEE12_Scoped_nodeD2Ev
FNDA:10,_ZNSt10_HashtableINSt7__cxx1112basic_stringIcSt11char_traitsIcESaIcEEESt4pairIKS5_St8functionIFPN8creature5HumanEiiNS9_13ENTITY_GENDEREEEESaISF_ENSt8__detail10_Select1stESt8equal_toIS5_ESt4hashIS5_ENSH_18_Mod_range_hashingENSH_20_Default_ranged_hashENSH_20_Prime_rehash_policyENSH_17_Hashtable_traitsILb1ELb0ELb1EEEE12_Scoped_nodeD2Ev
FN:308,_ZNSt10_HashtableINSt7__cxx1112basic_stringIcSt11char_traitsIcESaIcEEESt4pairIKS5_St8functionIFPN8minerals17ResourceStructureEiiEEESaISE_ENSt8__detail10_Select1stESt8equal_toIS5_ESt4hashIS5_ENSG_18_Mod_range_hashingENSG_20_Default_ranged_hashENSG_20_Prime_rehash_policyENSG_17_Hashtable_traitsILb1ELb0ELb1EEEE12_Scoped_nodeD2Ev
FNDA:4,_ZNSt10_HashtableINSt7__cxx1112basic_stringIcSt11char_traitsIcESaIcEEESt4pairIKS5_St8functionIFPN8minerals17ResourceStructureEiiEEESaISE_ENSt8__detail10_Select1stESt8equal_toIS5_ESt4hashIS5_ENSG_18_Mod_range_hashingENSG_20_Default_ranged_hashENSG_20_Prime_rehash_policyENSG_17_Hashtable_traitsILb1ELb0ELb1EEEE12_Scoped_nodeD2Ev
FN:453,_ZNSt10_HashtableINSt7__cxx1112basic_stringIcSt11char_traitsIcESaIcEEESt4pairIKS5_St8functionIFPN8creature5HumanEiiNS9_13ENTITY_GENDEREEEESaISF_ENSt8__detail10_Select1stESt8equal_toIS5_ESt4hashIS5_ENSH_18_Mod_range_hashingENSH_20_Default_ranged_hashENSH_20_Prime_rehash_policyENSH_17_Hashtable_traitsILb1ELb0ELb1EEEE21_M_deallocate_bucketsEv
FNDA:2,_ZNSt10_HashtableINSt7__cxx1112basic_stringIcSt11char_traitsIcESaIcEEESt4pairIKS5_St8functionIFPN8creature5HumanEiiNS9_13ENTITY_GENDEREEEESaISF_ENSt8__detail10_Select1stESt8equal_toIS5_ESt4hashIS5_ENSH_18_Mod_range_hashingENSH_20_Default_ranged_hashENSH_20_Prime_rehash_policyENSH_17_Hashtable_traitsILb1ELb0ELb1EEEE21_M_deallocate_bucketsEv
FN:453,_ZNSt10_HashtableINSt7__cxx1112basic_stringIcSt11char_traitsIcESaIcEEESt4pairIKS5_St8functionIFPN8minerals17ResourceStructureEiiEEESaISE_ENSt8__detail10_Select1stESt8equal_toIS5_ESt4hashIS5_ENSG_18_Mod_range_hashingENSG_20_Default_ranged_hashENSG_20_Prime_rehash_policyENSG_17_Hashtable_traitsILb1ELb0ELb1EEEE21_M_deallocate_bucketsEv
FNDA:2,_ZNSt10_HashtableINSt7__cxx1112basic_stringIcSt11char_traitsIcESaIcEEESt4pairIKS5_St8functionIFPN8minerals17ResourceStructureEiiEEESaISE_ENSt8__detail10_Select1stESt8equal_toIS5_ESt4hashIS5_ENSG_18_Mod_range_hashingENSG_20_Default_ranged_hashENSG_20_Prime_rehash_policyENSG_17_Hashtable_traitsILb1ELb0ELb1EEEE21_M_deallocate_bucketsEv
FN:453,_ZNSt10_HashtableINSt7__cxx1112basic_stringIcSt11char_traitsIcESaIcEEESt4pairIKS5_St8functionIFPN8creature6LivingEiiEEESaISE_ENSt8__detail10_Select1stESt8equal_toIS5_ESt4hashIS5_ENSG_18_Mod_range_hashingENSG_20_Default_ranged_hashENSG_20_Prime_rehash_policyENSG_17_Hashtable_traitsILb1ELb0ELb1EEEE21_M_deallocate_bucketsEv
FNDA:2,_ZNSt10_HashtableINSt7__cxx1112basic_stringIcSt11char_traitsIcESaIcEEESt4pairIKS5_St8functionIFPN8creature6LivingEiiEEESaISE_ENSt8__detail10_Select1stESt8equal_toIS5_ESt4hashIS5_ENSG_18_Mod_range_hashingENSG_20_Default_ranged_hashENSG_20_Prime_rehash_policyENSG_17_Hashtable_traitsILb1ELb0ELb1EEEE21_M_deallocate_bucketsEv
FN:569,_ZNSt10_HashtableINSt7__cxx1112basic_stringIcSt11char_traitsIcESaIcEEESt4pairIKS5_St8functionIFPN8creature6LivingEiiEEESaISE_ENSt8__detail10_Select1stESt8equal_toIS5_ESt4hashIS5_ENSG_18_Mod_range_hashingENSG_20_Default_ranged_hashENSG_20_Prime_rehash_policyENSG_17_Hashtable_traitsILb1ELb0ELb1EEEEC2ESt16initializer_listISE_EmRKSL_RKSJ_RKSF_
FNDA:1,_ZNSt10_HashtableINSt7__cxx1112basic_stringIcSt11char_traitsIcESaIcEEESt4pairIKS5_St8functionIFPN8creature6LivingEiiEEESaISE_ENSt8__detail10_Select1stESt8equal_toIS5_ESt4hashIS5_ENSG_18_Mod_range_hashingENSG_20_Default_ranged_hashENSG_20_Prime_rehash_policyENSG_17_Hashtable_traitsILb1ELb0ELb1EEEEC2ESt16initializer_listISE_EmRKSL_RKSJ_RKSF_
FN:569,_ZNSt10_HashtableINSt7__cxx1112basic_stringIcSt11char_traitsIcESaIcEEESt4pairIKS5_St8functionIFPN8minerals17ResourceStructureEiiEEESaISE_ENSt8__detail10_Select1stESt8equal_toIS5_ESt4hashIS5_ENSG_18_Mod_range_hashingENSG_20_Default_ranged_hashENSG_20_Prime_rehash_policyENSG_17_Hashtable_traitsILb1ELb0ELb1EEEEC2ESt16initializer_listISE_EmRKSL_RKSJ_RKSF_
FNDA:1,_ZNSt10_HashtableINSt7__cxx1112basic_stringIcSt11char_traitsIcESaIcEEESt4pairIKS5_St8functionIFPN8minerals17ResourceStructureEiiEEESaISE_ENSt8__detail10_Select1stESt8equal_toIS5_ESt4hashIS5_ENSG_18_Mod_range_hashingENSG_20_Default_ranged_hashENSG_20_Prime_rehash_policyENSG_17_Hashtable_traitsILb1ELb0ELb1EEEEC2ESt16initializer_listISE_EmRKSL_RKSJ_RKSF_
FN:569,_ZNSt10_HashtableINSt7__cxx1112basic_stringIcSt11char_traitsIcESaIcEEESt4pairIKS5_St8functionIFPN8creature5HumanEiiNS9_13ENTITY_GENDEREEEESaISF_ENSt8__detail10_Select1stESt8equal_toIS5_ESt4hashIS5_ENSH_18_Mod_range_hashingENSH_20_Default_ranged_hashENSH_20_Prime_rehash_policyENSH_17_Hashtable_traitsILb1ELb0ELb1EEEEC2ESt16initializer_listISF_EmRKSM_RKSK_RKSG_
FNDA:1,_ZNSt10_HashtableINSt7__cxx1112basic_stringIcSt11char_traitsIcESaIcEEESt4pairIKS5_St8functionIFPN8creature5HumanEiiNS9_13ENTITY_GENDEREEEESaISF_ENSt8__detail10_Select1stESt8equal_toIS5_ESt4hashIS5_ENSH_18_Mod_range_hashingENSH_20_Default_ranged_hashENSH_20_Prime_rehash_policyENSH_17_Hashtable_traitsILb1ELb0ELb1EEEEC2ESt16initializer_listISF_EmRKSM_RKSK_RKSG_
FN:1120,_ZNSt10_HashtableINSt7__cxx1112basic_stringIcSt11char_traitsIcESaIcEEESt4pairIKS5_St8functionIFPN8creature6LivingEiiEEESaISE_ENSt8__detail10_Select1stESt8equal_toIS5_ESt4hashIS5_ENSG_18_Mod_range_hashingENSG_20_Default_ranged_hashENSG_20_Prime_rehash_policyENSG_17_Hashtable_traitsILb1ELb0ELb1EEEEC2EmRKSL_RKSJ_RKSF_
FNDA:1,_ZNSt10_HashtableINSt7__cxx1112basic_stringIcSt11char_traitsIcESaIcEEESt4pairIKS5_St8functionIFPN8creature6LivingEiiEEESaISE_ENSt8__detail10_Select1stESt8equal_toIS5_ESt4hashIS5_ENSG_18_Mod_range_hashingENSG_20_Default_ranged_hashENSG_20_Prime_rehash_policyENSG_17_Hashtable_traitsILb1ELb0ELb1EEEEC2EmRKSL_RKSJ_RKSF_
FN:1120,_ZNSt10_HashtableINSt7__cxx1112basic_stringIcSt11char_traitsIcESaIcEEESt4pairIKS5_St8functionIFPN8creature5HumanEiiNS9_13ENTITY_GENDEREEEESaISF_ENSt8__detail10_Select1stESt8equal_toIS5_ESt4hashIS5_ENSH_18_Mod_range_hashingENSH_20_Default_ranged_hashENSH_20_Prime_rehash_policyENSH_17_Hashtable_traitsILb1ELb0ELb1EEEEC2EmRKSM_RKSK_RKSG_
FNDA:1,_ZNSt10_HashtableINSt7__cxx1112basic_stringIcSt11char_traitsIcESaIcEEESt4pairIKS5_St8functionIFPN8creature5HumanEiiNS9_13ENTITY_GENDEREEEESaISF_ENSt8__detail10_Select1stESt8equal_toIS5_ESt4hashIS5_ENSH_18_Mod_range_hashingENSH_20_Default_ranged_hashENSH_20_Prime_rehash_policyENSH_17_Hashtable_traitsILb1ELb0ELb1EEEEC2EmRKSM_RKSK_RKSG_
FN:1120,_ZNSt10_HashtableINSt7__cxx1112basic_stringIcSt11char_traitsIcESaIcEEESt4pairIKS5_St8functionIFPN8minerals17ResourceStructureEiiEEESaISE_ENSt8__detail10_Select1stESt8equal_toIS5_ESt4hashIS5_ENSG_18_Mod_range_hashingENSG_20_Default_ranged_hashENSG_20_Prime_rehash_policyENSG_17_Hashtable_traitsILb1ELb0ELb1EEEEC2EmRKSL_RKSJ_RKSF_
FNDA:1,_ZNSt10_HashtableINSt7__cxx1112basic_stringIcSt11char_traitsIcESaIcEEESt4pairIKS5_St8functionIFPN8minerals17ResourceStructureEiiEEESaISE_ENSt8__detail10_Select1stESt8equal_toIS5_ESt4hashIS5_ENSG_18_Mod_range_hashingENSG_20_Default_ranged_hashENSG_20_Prime_rehash_policyENSG_17_Hashtable_traitsILb1ELb0ELb1EEEEC2EmRKSL_RKSJ_RKSF_
FN:1139,_ZNSt10_HashtableINSt7__cxx1112basic_stringIcSt11char_traitsIcESaIcEEESt4pairIKS5_St8functionIFPN8minerals17ResourceStructureEiiEEESaISE_ENSt8__detail10_Select1stESt8equal_toIS5_ESt4hashIS5_ENSG_18_Mod_range_hashingENSG_20_Default_ranged_hashENSG_20_Prime_rehash_policyENSG_17_Hashtable_traitsILb1ELb0ELb1EEEEC2IPKSE_EET_SV_mRKSL_RKSJ_RKSF_St17integral_constantIbLb1EE
FNDA:1,_ZNSt10_HashtableINSt7__cxx1112basic_stringIcSt11char_traitsIcESaIcEEESt4pairIKS5_St8functionIFPN8minerals17ResourceStructureEiiEEESaISE_ENSt8__detail10_Select1stESt8equal_toIS5_ESt4hashIS5_ENSG_18_Mod_range_hashingENSG_20_Default_ranged_hashENSG_20_Prime_rehash_policyENSG_17_Hashtable_traitsILb1ELb0ELb1EEEEC2IPKSE_EET_SV_mRKSL_RKSJ_RKSF_St17integral_constantIbLb1EE
FN:1139,_ZNSt10_HashtableINSt7__cxx1112basic_stringIcSt11char_traitsIcESaIcEEESt4pairIKS5_St8functionIFPN8creature5HumanEiiNS9_13ENTITY_GENDEREEEESaISF_ENSt8__detail10_Select1stESt8equal_toIS5_ESt4hashIS5_ENSH_18_Mod_range_hashingENSH_20_Default_ranged_hashENSH_20_Prime_rehash_policyENSH_17_Hashtable_traitsILb1ELb0ELb1EEEEC2IPKSF_EET_SW_mRKSM_RKSK_RKSG_St17integral_constantIbLb1EE
FNDA:1,_ZNSt10_HashtableINSt7__cxx1112basic_stringIcSt11char_traitsIcESaIcEEESt4pairIKS5_St8functionIFPN8creature5HumanEiiNS9_13ENTITY_GENDEREEEESaISF_ENSt8__detail10_Select1stESt8equal_toIS5_ESt4hashIS5_ENSH_18_Mod_range_hashingENSH_20_Default_ranged_hashENSH_20_Prime_rehash_policyENSH_17_Hashtable_traitsILb1ELb0ELb1EEEEC2IPKSF_EET_SW_mRKSM_RKSK_RKSG_St17integral_constantIbLb1EE
FN:1139,_ZNSt10_HashtableINSt7__cxx1112basic_stringIcSt11char_traitsIcESaIcEEESt4pairIKS5_St8functionIFPN8creature6LivingEiiEEESaISE_ENSt8__detail10_Select1stESt8equal_toIS5_ESt4hashIS5_ENSG_18_Mod_range_hashingENSG_20_Default_ranged_hashENSG_20_Prime_rehash_policyENSG_17_Hashtable_traitsILb1ELb0ELb1EEEEC2IPKSE_EET_SV_mRKSL_RKSJ_RKSF_St17integral_constantIbLb1EE
FNDA:1,_ZNSt10_HashtableINSt7__cxx1112basic_stringIcSt11char_traitsIcESaIcEEESt4pairIKS5_St8functionIFPN8creature6LivingEiiEEESaISE_ENSt8__detail10_Select1stESt8equal_toIS5_ESt4hashIS5_ENSG_18_Mod_range_hashingENSG_20_Default_ranged_hashENSG_20_Prime_rehash_policyENSG_17_Hashtable_traitsILb1ELb0ELb1EEEEC2IPKSE_EET_SV_mRKSL_RKSJ_RKSF_St17integral_constantIbLb1EE
FN:1528,_ZNSt10_HashtableINSt7__cxx1112basic_stringIcSt11char_traitsIcESaIcEEESt4pairIKS5_St8functionIFPN8creature5HumanEiiNS9_13ENTITY_GENDEREEEESaISF_ENSt8__detail10_Select1stESt8equal_toIS5_ESt4hashIS5_ENSH_18_Mod_range_hashingENSH_20_Default_ranged_hashENSH_20_Prime_rehash_policyENSH_17_Hashtable_traitsILb1ELb0ELb1EEEED2Ev
FNDA:1,_ZNSt10_HashtableINSt7__cxx1112basic_stringIcSt11char_traitsIcESaIcEEESt4pairIKS5_St8functionIFPN8creature5HumanEiiNS9_13ENTITY_GENDEREEEESaISF_ENSt8__detail10_Select1stESt8equal_toIS5_ESt4hashIS5_ENSH_18_Mod_range_hashingENSH_20_Default_ranged_hashENSH_20_Prime_rehash_policyENSH_17_Hashtable_traitsILb1ELb0ELb1EEEED2Ev
FN:1528,_ZNSt10_HashtableINSt7__cxx1112basic_stringIcSt11char_traitsIcESaIcEEESt4pairIKS5_St8functionIFPN8creature6LivingEiiEEESaISE_ENSt8__detail10_Select1stESt8equal_toIS5_ESt4hashIS5_ENSG_18_Mod_range_hashingENSG_20_Default_ranged_hashENSG_20_Prime_rehash_policyENSG_17_Hashtable_traitsILb1ELb0ELb1EEEED2Ev
FNDA:1,_ZNSt10_HashtableINSt7__cxx1112basic_stringIcSt11char_traitsIcESaIcEEESt4pairIKS5_St8functionIFPN8creature6LivingEiiEEESaISE_ENSt8__detail10_Select1stESt8equal_toIS5_ESt4hashIS5_ENSG_18_Mod_range_hashingENSG_20_Default_ranged_hashENSG_20_Prime_rehash_policyENSG_17_Hashtable_traitsILb1ELb0ELb1EEEED2Ev
FN:1528,_ZNSt10_HashtableINSt7__cxx1112basic_stringIcSt11char_traitsIcESaIcEEESt4pairIKS5_St8functionIFPN8minerals17ResourceStructureEiiEEESaISE_ENSt8__detail10_Select1stESt8equal_toIS5_ESt4hashIS5_ENSG_18_Mod_range_hashingENSG_20_Default_ranged_hashENSG_20_Prime_rehash_policyENSG_17_Hashtable_traitsILb1ELb0ELb1EEEED2Ev
FNDA:1,_ZNSt10_HashtableINSt7__cxx1112basic_stringIcSt11char_traitsIcESaIcEEESt4pairIKS5_St8functionIFPN8minerals17ResourceStructureEiiEEESaISE_ENSt8__detail10_Select1stESt8equal_toIS5_ESt4hashIS5_ENSG_18_Mod_range_hashingENSG_20_Default_ranged_hashENSG_20_Prime_rehash_policyENSG_17_Hashtable_traitsILb1ELb0ELb1EEEED2Ev
FN:1827,_ZNKSt10_HashtableINSt7__cxx1112basic_stringIcSt11char_traitsIcESaIcEEESt4pairIKS5_St8functionIFPN8creature5HumanEiiNS9_13ENTITY_GENDEREEEESaISF_ENSt8__detail10_Select1stESt8equal_toIS5_ESt4hashIS5_ENSH_18_Mod_range_hashingENSH_20_Default_ranged_hashENSH_20_Prime_rehash_policyENSH_17_Hashtable_traitsILb1ELb0ELb1EEEE19_M_find_before_nodeEmRS7_m
FNDA:11,_ZNKSt10_HashtableINSt7__cxx1112basic_stringIcSt11char_traitsIcESaIcEEESt4pairIKS5_St8functionIFPN8creature5HumanEiiNS9_13ENTITY_GENDEREEEESaISF_ENSt8__detail10_Select1stESt8equal_toIS5_ESt4hashIS5_ENSH_18_Mod_range_hashingENSH_20_Default_ranged_hashENSH_20_Prime_rehash_policyENSH_17_Hashtable_traitsILb1ELb0ELb1EEEE19_M_find_before_nodeEmRS7_m
FN:1827,_ZNKSt10_HashtableINSt7__cxx1112basic_stringIcSt11char_traitsIcESaIcEEESt4pairIKS5_St8functionIFPN8creature6LivingEiiEEESaISE_ENSt8__detail10_Select1stESt8equal_toIS5_ESt4hashIS5_ENSG_18_Mod_range_hashingENSG_20_Default_ranged_hashENSG_20_Prime_rehash_policyENSG_17_Hashtable_traitsILb1ELb0ELb1EEEE19_M_find_before_nodeEmRS7_m
FNDA:8,_ZNKSt10_HashtableINSt7__cxx1112basic_stringIcSt11char_traitsIcESaIcEEESt4pairIKS5_St8functionIFPN8creature6LivingEiiEEESaISE_ENSt8__detail10_Select1stESt8equal_toIS5_ESt4hashIS5_ENSG_18_Mod_range_hashingENSG_20_Default_ranged_hashENSG_20_Prime_rehash_policyENSG_17_Hashtable_traitsILb1ELb0ELb1EEEE19_M_find_before_nodeEmRS7_m
FN:1827,_ZNKSt10_HashtableINSt7__cxx1112basic_stringIcSt11char_traitsIcESaIcEEESt4pairIKS5_St8functionIFPN8minerals17ResourceStructureEiiEEESaISE_ENSt8__detail10_Select1stESt8equal_toIS5_ESt4hashIS5_ENSG_18_Mod_range_hashingENSG_20_Default_ranged_hashENSG_20_Prime_rehash_policyENSG_17_Hashtable_traitsILb1ELb0ELb1EEEE19_M_find_before_nodeEmRS7_m
FNDA:24,_ZNKSt10_HashtableINSt7__cxx1112basic_stringIcSt11char_traitsIcESaIcEEESt4pairIKS5_St8functionIFPN8minerals17ResourceStructureEiiEEESaISE_ENSt8__detail10_Select1stESt8equal_toIS5_ESt4hashIS5_ENSG_18_Mod_range_hashingENSG_20_Default_ranged_hashENSG_20_Prime_rehash_policyENSG_17_Hashtable_traitsILb1ELb0ELb1EEEE19_M_find_before_nodeEmRS7_m
FN:1886,_ZNSt10_HashtableINSt7__cxx1112basic_stringIcSt11char_traitsIcESaIcEEESt4pairIKS5_St8functionIFPN8creature6LivingEiiEEESaISE_ENSt8__detail10_Select1stESt8equal_toIS5_ESt4hashIS5_ENSG_18_Mod_range_hashingENSG_20_Default_ranged_hashENSG_20_Prime_rehash_policyENSG_17_Hashtable_traitsILb1ELb0ELb1EEEE22_M_insert_bucket_beginEmPNSG_10_Hash_nodeISE_Lb1EEE
FNDA:4,_ZNSt10_HashtableINSt7__cxx1112basic_stringIcSt11char_traitsIcESaIcEEESt4pairIKS5_St8functionIFPN8creature6LivingEiiEEESaISE_ENSt8__detail10_Select1stESt8equal_toIS5_ESt4hashIS5_ENSG_18_Mod_range_hashingENSG_20_Default_ranged_hashENSG_20_Prime_rehash_policyENSG_17_Hashtable_traitsILb1ELb0ELb1EEEE22_M_insert_bucket_beginEmPNSG_10_Hash_nodeISE_Lb1EEE
FN:1886,_ZNSt10_HashtableINSt7__cxx1112basic_stringIcSt11char_traitsIcESaIcEEESt4pairIKS5_St8functionIFPN8minerals17ResourceStructureEiiEEESaISE_ENSt8__detail10_Select1stESt8equal_toIS5_ESt4hashIS5_ENSG_18_Mod_range_hashingENSG_20_Default_ranged_hashENSG_20_Prime_rehash_policyENSG_17_Hashtable_traitsILb1ELb0ELb1EEEE22_M_insert_bucket_beginEmPNSG_10_Hash_nodeISE_Lb1EEE
FNDA:4,_ZNSt10_HashtableINSt7__cxx1112basic_stringIcSt11char_traitsIcESaIcEEESt4pairIKS5_St8functionIFPN8minerals17ResourceStructureEiiEEESaISE_ENSt8__detail10_Select1stESt8equal_toIS5_ESt4hashIS5_ENSG_18_Mod_range_hashingENSG_20_Default_ranged_hashENSG_20_Prime_rehash_policyENSG_17_Hashtable_traitsILb1ELb0ELb1EEEE22_M_insert_bucket_beginEmPNSG_10_Hash_nodeISE_Lb1EEE
FN:1886,_ZNSt10_HashtableINSt7__cxx1112basic_stringIcSt11char_traitsIcESaIcEEESt4pairIKS5_St8functionIFPN8creature5HumanEiiNS9_13ENTITY_GENDEREEEESaISF_ENSt8__detail10_Select1stESt8equal_toIS5_ESt4hashIS5_ENSH_18_Mod_range_hashingENSH_20_Default_ranged_hashENSH_20_Prime_rehash_policyENSH_17_Hashtable_traitsILb1ELb0ELb1EEEE22_M_insert_bucket_beginEmPNSH_10_Hash_nodeISF_Lb1EEE
FNDA:10,_ZNSt10_HashtableINSt7__cxx1112basic_stringIcSt11char_traitsIcESaIcEEESt4pairIKS5_St8functionIFPN8creature5HumanEiiNS9_13ENTITY_GENDEREEEESaISF_ENSt8__detail10_Select1stESt8equal_toIS5_ESt4hashIS5_ENSH_18_Mod_range_hashingENSH_20_Default_ranged_hashENSH_20_Prime_rehash_policyENSH_17_Hashtable_traitsILb1ELb0ELb1EEEE22_M_insert_bucket_beginEmPNSH_10_Hash_nodeISF_Lb1EEE
FN:2008,_ZNSt10_HashtableINSt7__cxx1112basic_stringIcSt11char_traitsIcESaIcEEESt4pairIKS5_St8functionIFPN8creature6LivingEiiEEESaISE_ENSt8__detail10_Select1stESt8equal_toIS5_ESt4hashIS5_ENSG_18_Mod_range_hashingENSG_20_Default_ranged_hashENSG_20_Prime_rehash_policyENSG_17_Hashtable_traitsILb1ELb0ELb1EEEE21_M_insert_unique_nodeEmmPNSG_10_Hash_nodeISE_Lb1EEEm
FNDA:4,_ZNSt10_HashtableINSt7__cxx1112basic_stringIcSt11char_traitsIcESaIcEEESt4pairIKS5_St8functionIFPN8creature6LivingEiiEEESaISE_ENSt8__detail10_Select1stESt8equal_toIS5_ESt4hashIS5_ENSG_18_Mod_range_hashingENSG_20_Default_ranged_hashENSG_20_Prime_rehash_policyENSG_17_Hashtable_traitsILb1ELb0ELb1EEEE21_M_insert_unique_nodeEmmPNSG_10_Hash_nodeISE_Lb1EEEm
FN:2008,_ZNSt10_HashtableINSt7__cxx1112basic_stringIcSt11char_traitsIcESaIcEEESt4pairIKS5_St8functionIFPN8creature5HumanEiiNS9_13ENTITY_GENDEREEEESaISF_ENSt8__detail10_Select1stESt8equal_toIS5_ESt4hashIS5_ENSH_18_Mod_range_hashingENSH_20_Default_ranged_hashENSH_20_Prime_rehash_policyENSH_17_Hashtable_traitsILb1ELb0ELb1EEEE21_M_insert_unique_nodeEmmPNSH_10_Hash_nodeISF_Lb1EEEm
FNDA:10,_ZNSt10_HashtableINSt7__cxx1112basic_stringIcSt11char_traitsIcESaIcEEESt4pairIKS5_St8functionIFPN8creature5HumanEiiNS9_13ENTITY_GENDEREEEESaISF_ENSt8__detail10_Select1stESt8equal_toIS5_ESt4hashIS5_ENSH_18_Mod_range_hashingENSH_20_Default_ranged_hashENSH_20_Prime_rehash_policyENSH_17_Hashtable_traitsILb1ELb0ELb1EEEE21_M_insert_unique_nodeEmmPNSH_10_Hash_nodeISF_Lb1EEEm
FN:2008,_ZNSt10_HashtableINSt7__cxx1112basic_stringIcSt11char_traitsIcESaIcEEESt4pairIKS5_St8functionIFPN8minerals17ResourceStructureEiiEEESaISE_ENSt8__detail10_Select1stESt8equal_toIS5_ESt4hashIS5_ENSG_18_Mod_range_hashingENSG_20_Default_ranged_hashENSG_20_Prime_rehash_policyENSG_17_Hashtable_traitsILb1ELb0ELb1EEEE21_M_insert_unique_nodeEmmPNSG_10_Hash_nodeISE_Lb1EEEm
FNDA:4,_ZNSt10_HashtableINSt7__cxx1112basic_stringIcSt11char_traitsIcESaIcEEESt4pairIKS5_St8functionIFPN8minerals17ResourceStructureEiiEEESaISE_ENSt8__detail10_Select1stESt8equal_toIS5_ESt4hashIS5_ENSG_18_Mod_range_hashingENSG_20_Default_ranged_hashENSG_20_Prime_rehash_policyENSG_17_Hashtable_traitsILb1ELb0ELb1EEEE21_M_insert_unique_nodeEmmPNSG_10_Hash_nodeISE_Lb1EEEm
FN:2095,_ZNSt10_HashtableINSt7__cxx1112basic_stringIcSt11char_traitsIcESaIcEEESt4pairIKS5_St8functionIFPN8creature5HumanEiiNS9_13ENTITY_GENDEREEEESaISF_ENSt8__detail10_Select1stESt8equal_toIS5_ESt4hashIS5_ENSH_18_Mod_range_hashingENSH_20_Default_ranged_hashENSH_20_Prime_rehash_policyENSH_17_Hashtable_traitsILb1ELb0ELb1EEEE9_M_insertIRKSF_NSH_10_AllocNodeISaINSH_10_Hash_nodeISF_Lb1EEEEEEEES6_INSH_14_Node_iteratorISF_Lb0ELb1EEEbEOT_RKT0_St17integral_constantIbLb1EE
FNDA:10,_ZNSt10_HashtableINSt7__cxx1112basic_stringIcSt11char_traitsIcESaIcEEESt4pairIKS5_St8functionIFPN8creature5HumanEiiNS9_13ENTITY_GENDEREEEESaISF_ENSt8__detail10_Select1stESt8equal_toIS5_ESt4hashIS5_ENSH_18_Mod_range_hashingENSH_20_Default_ranged_hashENSH_20_Prime_rehash_policyENSH_17_Hashtable_traitsILb1ELb0ELb1EEEE9_M_insertIRKSF_NSH_10_AllocNodeISaINSH_10_Hash_nodeISF_Lb1EEEEEEEES6_INSH_14_Node_iteratorISF_Lb0ELb1EEEbEOT_RKT0_St17integral_constantIbLb1EE
FN:2095,_ZNSt10_HashtableINSt7__cxx1112basic_stringIcSt11char_traitsIcESaIcEEESt4pairIKS5_St8functionIFPN8creature6LivingEiiEEESaISE_ENSt8__detail10_Select1stESt8equal_toIS5_ESt4hashIS5_ENSG_18_Mod_range_hashingENSG_20_Default_ranged_hashENSG_20_Prime_rehash_policyENSG_17_Hashtable_traitsILb1ELb0ELb1EEEE9_M_insertIRKSE_NSG_10_AllocNodeISaINSG_10_Hash_nodeISE_Lb1EEEEEEEES6_INSG_14_Node_iteratorISE_Lb0ELb1EEEbEOT_RKT0_St17integral_constantIbLb1EE
FNDA:4,_ZNSt10_HashtableINSt7__cxx1112basic_stringIcSt11char_traitsIcESaIcEEESt4pairIKS5_St8functionIFPN8creature6LivingEiiEEESaISE_ENSt8__detail10_Select1stESt8equal_toIS5_ESt4hashIS5_ENSG_18_Mod_range_hashingENSG_20_Default_ranged_hashENSG_20_Prime_rehash_policyENSG_17_Hashtable_traitsILb1ELb0ELb1EEEE9_M_insertIRKSE_NSG_10_AllocNodeISaINSG_10_Hash_nodeISE_Lb1EEEEEEEES6_INSG_14_Node_iteratorISE_Lb0ELb1EEEbEOT_RKT0_St17integral_constantIbLb1EE
FN:2095,_ZNSt10_HashtableINSt7__cxx1112basic_stringIcSt11char_traitsIcESaIcEEESt4pairIKS5_St8functionIFPN8minerals17ResourceStructureEiiEEESaISE_ENSt8__detail10_Select1stESt8equal_toIS5_ESt4hashIS5_ENSG_18_Mod_range_hashingENSG_20_Default_ranged_hashENSG_20_Prime_rehash_policyENSG_17_Hashtable_traitsILb1ELb0ELb1EEEE9_M_insertIRKSE_NSG_10_AllocNodeISaINSG_10_Hash_nodeISE_Lb1EEEEEEEES6_INSG_14_Node_iteratorISE_Lb0ELb1EEEbEOT_RKT0_St17integral_constantIbLb1EE
FNDA:4,_ZNSt10_HashtableINSt7__cxx1112basic_stringIcSt11char_traitsIcESaIcEEESt4pairIKS5_St8functionIFPN8minerals17ResourceStructureEiiEEESaISE_ENSt8__detail10_Select1stESt8equal_toIS5_ESt4hashIS5_ENSG_18_Mod_range_hashingENSG_20_Default_ranged_hashENSG_20_Prime_rehash_policyENSG_17_Hashtable_traitsILb1ELb0ELb1EEEE9_M_insertIRKSE_NSG_10_AllocNodeISaINSG_10_Hash_nodeISE_Lb1EEEEEEEES6_INSG_14_Node_iteratorISE_Lb0ELb1EEEbEOT_RKT0_St17integral_constantIbLb1EE
FN:2316,_ZNSt10_HashtableINSt7__cxx1112basic_stringIcSt11char_traitsIcESaIcEEESt4pairIKS5_St8functionIFPN8creature5HumanEiiNS9_13ENTITY_GENDEREEEESaISF_ENSt8__detail10_Select1stESt8equal_toIS5_ESt4hashIS5_ENSH_18_Mod_range_hashingENSH_20_Default_ranged_hashENSH_20_Prime_rehash_policyENSH_17_Hashtable_traitsILb1ELb0ELb1EEEE5clearEv
FNDA:1,_ZNSt10_HashtableINSt7__cxx1112basic_stringIcSt11char_traitsIcESaIcEEESt4pairIKS5_St8functionIFPN8creature5HumanEiiNS9_13ENTITY_GENDEREEEESaISF_ENSt8__detail10_Select1stESt8equal_toIS5_ESt4hashIS5_ENSH_18_Mod_range_hashingENSH_20_Default_ranged_hashENSH_20_Prime_rehash_policyENSH_17_Hashtable_traitsILb1ELb0ELb1EEEE5clearEv
FN:2316,_ZNSt10_HashtableINSt7__cxx1112basic_stringIcSt11char_traitsIcESaIcEEESt4pairIKS5_St8functionIFPN8minerals17ResourceStructureEiiEEESaISE_ENSt8__detail10_Select1stESt8equal_toIS5_ESt4hashIS5_ENSG_18_Mod_range_hashingENSG_20_Default_ranged_hashENSG_20_Prime_rehash_policyENSG_17_Hashtable_traitsILb1ELb0ELb1EEEE5clearEv
FNDA:1,_ZNSt10_HashtableINSt7__cxx1112basic_stringIcSt11char_traitsIcESaIcEEESt4pairIKS5_St8functionIFPN8minerals17ResourceStructureEiiEEESaISE_ENSt8__detail10_Select1stESt8equal_toIS5_ESt4hashIS5_ENSG_18_Mod_range_hashingENSG_20_Default_ranged_hashENSG_20_Prime_rehash_policyENSG_17_Hashtable_traitsILb1ELb0ELb1EEEE5clearEv
FN:2316,_ZNSt10_HashtableINSt7__cxx1112basic_stringIcSt11char_traitsIcESaIcEEESt4pairIKS5_St8functionIFPN8creature6LivingEiiEEESaISE_ENSt8__detail10_Select1stESt8equal_toIS5_ESt4hashIS5_ENSG_18_Mod_range_hashingENSG_20_Default_ranged_hashENSG_20_Prime_rehash_policyENSG_17_Hashtable_traitsILb1ELb0ELb1EEEE5clearEv
FNDA:1,_ZNSt10_HashtableINSt7__cxx1112basic_stringIcSt11char_traitsIcESaIcEEESt4pairIKS5_St8functionIFPN8creature6LivingEiiEEESaISE_ENSt8__detail10_Select1stESt8equal_toIS5_ESt4hashIS5_ENSG_18_Mod_range_hashingENSG_20_Default_ranged_hashENSG_20_Prime_rehash_policyENSG_17_Hashtable_traitsILb1ELb0ELb1EEEE5clearEv
FN:2355,_ZNSt10_HashtableINSt7__cxx1112basic_stringIcSt11char_traitsIcESaIcEEESt4pairIKS5_St8functionIFPN8creature6LivingEiiEEESaISE_ENSt8__detail10_Select1stESt8equal_toIS5_ESt4hashIS5_ENSG_18_Mod_range_hashingENSG_20_Default_ranged_hashENSG_20_Prime_rehash_policyENSG_17_Hashtable_traitsILb1ELb0ELb1EEEE9_M_rehashEmRKm
FNDA:1,_ZNSt10_HashtableINSt7__cxx1112basic_stringIcSt11char_traitsIcESaIcEEESt4pairIKS5_St8functionIFPN8creature6LivingEiiEEESaISE_ENSt8__detail10_Select1stESt8equal_toIS5_ESt4hashIS5_ENSG_18_Mod_range_hashingENSG_20_Default_ranged_hashENSG_20_Prime_rehash_policyENSG_17_Hashtable_traitsILb1ELb0ELb1EEEE9_M_rehashEmRKm
FN:2355,_ZNSt10_HashtableINSt7__cxx1112basic_stringIcSt11char_traitsIcESaIcEEESt4pairIKS5_St8functionIFPN8creature5HumanEiiNS9_13ENTITY_GENDEREEEESaISF_ENSt8__detail10_Select1stESt8equal_toIS5_ESt4hashIS5_ENSH_18_Mod_range_hashingENSH_20_Default_ranged_hashENSH_20_Prime_rehash_policyENSH_17_Hashtable_traitsILb1ELb0ELb1EEEE9_M_rehashEmRKm
FNDA:1,_ZNSt10_HashtableINSt7__cxx1112basic_stringIcSt11char_traitsIcESaIcEEESt4pairIKS5_St8functionIFPN8creature5HumanEiiNS9_13ENTITY_GENDEREEEESaISF_ENSt8__detail10_Select1stESt8equal_toIS5_ESt4hashIS5_ENSH_18_Mod_range_hashingENSH_20_Default_ranged_hashENSH_20_Prime_rehash_policyENSH_17_Hashtable_traitsILb1ELb0ELb1EEEE9_M_rehashEmRKm
FN:2355,_ZNSt10_HashtableINSt7__cxx1112basic_stringIcSt11char_traitsIcESaIcEEESt4pairIKS5_St8functionIFPN8minerals17ResourceStructureEiiEEESaISE_ENSt8__detail10_Select1stESt8equal_toIS5_ESt4hashIS5_ENSG_18_Mod_range_hashingENSG_20_Default_ranged_hashENSG_20_Prime_rehash_policyENSG_17_Hashtable_traitsILb1ELb0ELb1EEEE9_M_rehashEmRKm
FNDA:1,_ZNSt10_HashtableINSt7__cxx1112basic_stringIcSt11char_traitsIcESaIcEEESt4pairIKS5_St8functionIFPN8minerals17ResourceStructureEiiEEESaISE_ENSt8__detail10_Select1stESt8equal_toIS5_ESt4hashIS5_ENSG_18_Mod_range_hashingENSG_20_Default_ranged_hashENSG_20_Prime_rehash_policyENSG_17_Hashtable_traitsILb1ELb0ELb1EEEE9_M_rehashEmRKm
FN:2378,_ZNSt10_HashtableINSt7__cxx1112basic_stringIcSt11char_traitsIcESaIcEEESt4pairIKS5_St8functionIFPN8minerals17ResourceStructureEiiEEESaISE_ENSt8__detail10_Select1stESt8equal_toIS5_ESt4hashIS5_ENSG_18_Mod_range_hashingENSG_20_Default_ranged_hashENSG_20_Prime_rehash_policyENSG_17_Hashtable_traitsILb1ELb0ELb1EEEE13_M_rehash_auxEmSt17integral_constantIbLb1EE
FNDA:1,_ZNSt10_HashtableINSt7__cxx1112basic_stringIcSt11char_traitsIcESaIcEEESt4pairIKS5_St8functionIFPN8minerals17ResourceStructureEiiEEESaISE_ENSt8__detail10_Select1stESt8equal_toIS5_ESt4hashIS5_ENSG_18_Mod_range_hashingENSG_20_Default_ranged_hashENSG_20_Prime_rehash_policyENSG_17_Hashtable_traitsILb1ELb0ELb1EEEE13_M_rehash_auxEmSt17integral_constantIbLb1EE
FN:2378,_ZNSt10_HashtableINSt7__cxx1112basic_stringIcSt11char_traitsIcESaIcEEESt4pairIKS5_St8functionIFPN8creature6LivingEiiEEESaISE_ENSt8__detail10_Select1stESt8equal_toIS5_ESt4hashIS5_ENSG_18_Mod_range_hashingENSG_20_Default_ranged_hashENSG_20_Prime_rehash_policyENSG_17_Hashtable_traitsILb1ELb0ELb1EEEE13_M_rehash_auxEmSt17integral_constantIbLb1EE
FNDA:1,_ZNSt10_HashtableINSt7__cxx1112basic_stringIcSt11char_traitsIcESaIcEEESt4pairIKS5_St8functionIFPN8creature6LivingEiiEEESaISE_ENSt8__detail10_Select1stESt8equal_toIS5_ESt4hashIS5_ENSG_18_Mod_range_hashingENSG_20_Default_ranged_hashENSG_20_Prime_rehash_policyENSG_17_Hashtable_traitsILb1ELb0ELb1EEEE13_M_rehash_auxEmSt17integral_constantIbLb1EE
FN:2378,_ZNSt10_HashtableINSt7__cxx1112basic_stringIcSt11char_traitsIcESaIcEEESt4pairIKS5_St8functionIFPN8creature5HumanEiiNS9_13ENTITY_GENDEREEEESaISF_ENSt8__detail10_Select1stESt8equal_toIS5_ESt4hashIS5_ENSH_18_Mod_range_hashingENSH_20_Default_ranged_hashENSH_20_Prime_rehash_policyENSH_17_Hashtable_traitsILb1ELb0ELb1EEEE13_M_rehash_auxEmSt17integral_constantIbLb1EE
FNDA:1,_ZNSt10_HashtableINSt7__cxx1112basic_stringIcSt11char_traitsIcESaIcEEESt4pairIKS5_St8functionIFPN8creature5HumanEiiNS9_13ENTITY_GENDEREEEESaISF_ENSt8__detail10_Select1stESt8equal_toIS5_ESt4hashIS5_ENSH_18_Mod_range_hashingENSH_20_Default_ranged_hashENSH_20_Prime_rehash_policyENSH_17_Hashtable_traitsILb1ELb0ELb1EEEE13_M_rehash_auxEmSt17integral_constantIbLb1EE
DA:297,18
DA:298,18
DA:308,4
DA:308,10
DA:308,4
DA:421,6
DA:422,6
DA:432,3
DA:434,0
DA:436,0
DA:437,0
DA:440,3
DA:444,6
DA:446,6
DA:449,3
DA:453,2
DA:454,2
DA:453,2
DA:454,2
DA:453,2
DA:454,2
DA:462,6
DA:463,6
DA:484,3
DA:487,3
DA:488,3
DA:569,1
DA:575,1
DA:576,1
DA:569,1
DA:575,1
DA:576,1
DA:569,1
DA:575,1
DA:576,1
DA:790,20
DA:791,20
DA:794,21
DA:795,3
DA:807,18
DA:810,36
DA:811,18
DA:812,0
DA:1120,1
DA:1124,1
DA:1126,1
DA:1127,1
DA:1129,0
DA:1130,0
DA:1132,1
DA:1120,1
DA:1124,1
DA:1126,1
DA:1127,1
DA:1129,0
DA:1130,0
DA:1132,1
DA:1120,1
DA:1124,1
DA:1126,1
DA:1127,1
DA:1129,0
DA:1130,0
DA:1132,1
DA:1139,1
DA:1145,1
DA:1147,5
DA:1148,4
DA:1149,1
DA:1139,1
DA:1145,1
DA:1147,11
DA:1148,10
DA:1149,1
DA:1139,1
DA:1145,1
DA:1147,5
DA:1148,4
DA:1149,1
DA:1528,1
DA:1532,1
DA:1533,1
DA:1534,1
DA:1528,1
DA:1532,1
DA:1533,1
DA:1534,1
DA:1528,1
DA:1532,1
DA:1533,1
DA:1534,1
DA:1827,24
DA:1833,24
DA:1834,24
DA:1837,21
DA:1840,25
DA:1843,5
DA:1827,11
DA:1833,11
DA:1834,11
DA:1837,3
DA:1840,4
DA:1843,3
DA:1827,8
DA:1833,8
DA:1834,8
DA:1837,4
DA:1840,4
DA:1843,0
DA:1886,4
DA:1890,4
DA:1894,1
DA:1895,1
DA:1902,3
DA:1903,3
DA:1905,3
DA:1908,2
DA:1910,3
DA:1912,4
DA:1886,10
DA:1890,10
DA:1894,2
DA:1895,2
DA:1902,8
DA:1903,8
DA:1905,8
DA:1908,7
DA:1910,8
DA:1912,10
DA:1886,4
DA:1890,4
DA:1894,0
DA:1895,0
DA:1902,4
DA:1903,4
DA:1905,4
DA:1908,3
DA:1910,4
DA:1912,4
DA:2008,4
DA:2014,4
DA:2016,4
DA:2019,4
DA:2021,1
DA:2022,1
DA:2025,4
DA:2028,4
DA:2029,4
DA:2030,4
DA:2008,10
DA:2014,10
DA:2016,10
DA:2019,10
DA:2021,1
DA:2022,1
DA:2025,10
DA:2028,10
DA:2029,10
DA:2030,10
DA:2008,4
DA:2014,4
DA:2016,4
DA:2019,4
DA:2021,1
DA:2022,1
DA:2025,4
DA:2028,4
DA:2029,4
DA:2030,4
DA:2095,4
DA:2101,4
DA:2102,4
DA:2103,4
DA:2105,0
DA:2106,0
DA:2108,4
DA:2110,4
DA:2111,4
DA:2112,4
DA:2113,4
DA:2095,10
DA:2101,10
DA:2102,10
DA:2103,10
DA:2105,0
DA:2106,0
DA:2108,10
DA:2110,10
DA:2111,10
DA:2112,10
DA:2113,10
DA:2095,4
DA:2101,4
DA:2102,4
DA:2103,4
DA:2105,0
DA:2106,0
DA:2108,4
DA:2110,4
DA:2111,4
DA:2112,4
DA:2113,4
DA:2316,1
DA:2320,1
DA:2321,1
DA:2322,1
DA:2323,1
DA:2324,1
DA:2325,1
DA:2316,1
DA:2320,1
DA:2321,1
DA:2322,1
DA:2323,1
DA:2324,1
DA:2325,1
DA:2316,1
DA:2320,1
DA:2321,1
DA:2322,1
DA:2323,1
DA:2324,1
DA:2325,1
DA:2355,1
DA:2361,1
DA:2363,0
DA:2367,0
DA:2368,0
DA:2370,1
DA:2355,1
DA:2361,1
DA:2363,0
DA:2367,0
DA:2368,0
DA:2370,1
DA:2355,1
DA:2361,1
DA:2363,0
DA:2367,0
DA:2368,0
DA:2370,1
DA:2378,1
DA:2382,1
DA:2383,1
DA:2384,1
DA:2385,1
DA:2386,1
DA:2388,0
DA:2390,0
DA:2391,0
DA:2393,0
DA:2394,0
DA:2395,0
DA:2396,0
DA:2397,0
DA:2402,0
DA:2403,0
DA:2409,1
DA:2410,1
DA:2411,1
DA:2412,1
DA:2378,1
DA:2382,1
DA:2383,1
DA:2384,1
DA:2385,1
DA:2386,1
DA:2388,0
DA:2390,0
DA:2391,0
DA:2393,0
DA:2394,0
DA:2395,0
DA:2396,0
DA:2397,0
DA:2402,0
DA:2403,0
DA:2409,1
DA:2410,1
DA:2411,1
DA:2412,1
DA:2378,1
DA:2382,1
DA:2383,1
DA:2384,1
DA:2385,1
DA:2386,1
DA:2388,0
DA:2390,0
DA:2391,0
DA:2393,0
DA:2394,0
DA:2395,0
DA:2396,0
DA:2397,0
DA:2402,0
DA:2403,0
DA:2409,1
DA:2410,1
DA:2411,1
DA:2412,1
end_of_record
SF:/usr/include/c++/11/iostream
end_of_record
SF:/usr/include/c++/11/bits/enable_special_members.h
DA:67,3
end_of_record
SF:/usr/include/c++/11/bits/move.h
DA:77,18
end_of_record
SF:/usr/include/c++/11/bits/basic_string.h
FN:533,_ZNSt7__cxx1112basic_stringIcSt11char_traitsIcESaIcEEC2IS3_EEPKcRKS3_
FNDA:44,_ZNSt7__cxx1112basic_stringIcSt11char_traitsIcESaIcEEC2IS3_EEPKcRKS3_
FN:6234,_ZSteqIcEN9__gnu_cxx11__enable_ifIXsrSt9__is_charIT_E7__valueEbE6__typeERKNSt7__cxx1112basic_stringIS3_St11char_traitsIS3_ESaIS3_EEESE_
FNDA:25,_ZSteqIcEN9__gnu_cxx11__enable_ifIXsrSt9__is_charIT_E7__valueEbE6__typeERKNSt7__cxx1112basic_stringIS3_St11char_traitsIS3_ESaIS3_EEESE_
DA:158,50
DA:164,44
DA:165,44
DA:186,0
DA:187,0
DA:190,0
DA:191,0
DA:194,68
DA:195,0
DA:198,44
DA:201,44
DA:218,0
DA:219,0
DA:222,0
DA:224,0
DA:225,0
DA:400,0
DA:401,0
DA:404,0
DA:406,0
DA:533,44
DA:534,44
DA:536,44
DA:539,44
DA:540,44
DA:671,50
DA:672,50
DA:920,50
DA:921,25
DA:926,18
DA:927,18
DA:1038,50
DA:1040,50
DA:1041,50
DA:1124,25
DA:1126,25
DA:1127,25
DA:1146,25
DA:1148,25
DA:1149,25
DA:2332,43
DA:2333,43
DA:6234,25
DA:6236,25
DA:6237,25
DA:6238,25
DA:6875,18
DA:6876,18
end_of_record
SF:/usr/include/c++/11/utility
DA:188,43
DA:189,43
DA:233,43
DA:234,43
end_of_record
SF:/usr/include/c++/11/ext/alloc_traits.h
DA:97,7
DA:98,7
end_of_record
SF:/usr/include/c++/11/bits/stl_uninitialized.h
FN:85,_ZNSt20__uninitialized_copyILb0EE13__uninit_copyIN9__gnu_cxx17__normal_iteratorIPKSt4pairINSt7__cxx1112basic_stringIcSt11char_traitsIcESaIcEEEiESt6vectorISB_SaISB_EEEEPSB_EET0_T_SK_SJ_
FNDA:7,_ZNSt20__uninitialized_copyILb0EE13__uninit_copyIN9__gnu_cxx17__normal_iteratorIPKSt4pairINSt7__cxx1112basic_stringIcSt11char_traitsIcESaIcEEEiESt6vectorISB_SaISB_EEEEPSB_EET0_T_SK_SJ_
FN:85,_ZNSt20__uninitialized_copyILb0EE13__uninit_copyIPK10RoleOptionPS2_EET0_T_S7_S6_
FNDA:1,_ZNSt20__uninitialized_copyILb0EE13__uninit_copyIPK10RoleOptionPS2_EET0_T_S7_S6_
FN:85,_ZNSt20__uninitialized_copyILb0EE13__uninit_copyIPKSt4pairINSt7__cxx1112basic_stringIcSt11char_traitsIcESaIcEEEiEPS9_EET0_T_SE_SD_
FNDA:7,_ZNSt20__uninitialized_copyILb0EE13__uninit_copyIPKSt4pairINSt7__cxx1112basic_stringIcSt11char_traitsIcESaIcEEEiEPS9_EET0_T_SE_SD_
DA:85,7
DA:88,7
DA:91,21
DA:92,14
DA:93,7
DA:95,0
DA:97,0
DA:98,0
DA:85,1
DA:88,1
DA:91,8
DA:92,14
DA:93,1
DA:95,0
DA:97,0
DA:98,0
DA:85,7
DA:88,7
DA:91,21
DA:92,14
DA:93,7
DA:95,0
DA:97,0
DA:98,0
DA:126,15
DA:145,15
DA:151,15
DA:331,15
DA:333,7
end_of_record
SF:/usr/include/c++/11/bits/stl_vector.h
FN:333,_ZNSt12_Vector_baseI10RoleOptionSaIS0_EED2Ev
FNDA:1,_ZNSt12_Vector_baseI10RoleOptionSaIS0_EED2Ev
FN:333,_ZNSt12_Vector_baseISt4pairINSt7__cxx1112basic_stringIcSt11char_traitsIcESaIcEEEiESaIS7_EED2Ev
FNDA:14,_ZNSt12_Vector_baseISt4pairINSt7__cxx1112basic_stringIcSt11char_traitsIcESaIcEEEiESaIS7_EED2Ev
FN:359,_ZNSt12_Vector_baseISt4pairINSt7__cxx1112basic_stringIcSt11char_traitsIcESaIcEEEiESaIS7_EE17_M_create_storageEm
FNDA:7,_ZNSt12_Vector_baseISt4pairINSt7__cxx1112basic_stringIcSt11char_traitsIcESaIcEEEiESaIS7_EE17_M_create_storageEm
FN:553,_ZNSt6vectorISt4pairINSt7__cxx1112basic_stringIcSt11char_traitsIcESaIcEEEiESaIS7_EEC2ERKS9_
FNDA:7,_ZNSt6vectorISt4pairINSt7__cxx1112basic_stringIcSt11char_traitsIcESaIcEEEiESaIS7_EEC2ERKS9_
FN:625,_ZNSt6vectorI10RoleOptionSaIS0_EEC2ESt16initializer_listIS0_ERKS1_
FNDA:1,_ZNSt6vectorI10RoleOptionSaIS0_EEC2ESt16initializer_listIS0_ERKS1_
FN:625,_ZNSt6vectorISt4pairINSt7__cxx1112basic_stringIcSt11char_traitsIcESaIcEEEiESaIS7_EEC2ESt16initializer_listIS7_ERKS8_
FNDA:7,_ZNSt6vectorISt4pairINSt7__cxx1112basic_stringIcSt11char_traitsIcESaIcEEEiESaIS7_EEC2ESt16initializer_listIS7_ERKS8_
FN:678,_ZNSt6vectorI10RoleOptionSaIS0_EED2Ev
FNDA:1,_ZNSt6vectorI10RoleOptionSaIS0_EED2Ev
FN:678,_ZNSt6vectorISt4pairINSt7__cxx1112basic_stringIcSt11char_traitsIcESaIcEEEiESaIS7_EED2Ev
FNDA:14,_ZNSt6vectorISt4pairINSt7__cxx1112basic_stringIcSt11char_traitsIcESaIcEEEiESaIS7_EED2Ev
FN:1577,_ZNSt6vectorI10RoleOptionSaIS0_EE19_M_range_initializeIPKS0_EEvT_S6_St20forward_iterator_tag
FNDA:1,_ZNSt6vectorI10RoleOptionSaIS0_EE19_M_range_initializeIPKS0_EEvT_S6_St20forward_iterator_tag
FN:1577,_ZNSt6vectorISt4pairINSt7__cxx1112basic_stringIcSt11char_traitsIcESaIcEEEiESaIS7_EE19_M_range_initializeIPKS7_EEvT_SD_St20forward_iterator_tag
FNDA:7,_ZNSt6vectorISt4pairINSt7__cxx1112basic_stringIcSt11char_traitsIcESaIcEEEiESaIS7_EE19_M_range_initializeIPKS7_EEvT_SD_St20forward_iterator_tag
DA:97,15
DA:98,15
DA:128,15
DA:136,15
DA:137,15
DA:276,30
DA:277,30
DA:280,7
DA:281,7
DA:293,8
DA:294,8
DA:303,7
DA:304,7
DA:305,7
DA:333,1
DA:335,2
DA:336,1
DA:337,1
DA:333,14
DA:335,28
DA:336,14
DA:337,14
DA:343,15
DA:346,15
DA:350,15
DA:353,15
DA:354,15
DA:359,7
DA:361,7
DA:362,7
DA:363,7
DA:364,7
DA:553,7
DA:555,7
DA:557,7
DA:558,14
DA:560,7
DA:561,7
DA:625,1
DA:627,1
DA:629,1
DA:630,1
DA:631,1
DA:625,7
DA:627,7
DA:629,7
DA:630,7
DA:631,7
DA:678,1
DA:680,2
DA:681,1
DA:683,1
DA:678,14
DA:680,28
DA:681,14
DA:683,14
DA:820,7
DA:821,7
DA:838,7
DA:839,7
DA:918,7
DA:919,7
DA:1577,1
DA:1580,1
DA:1582,1
DA:1583,1
DA:1584,1
DA:1585,2
DA:1587,1
DA:1588,1
DA:1577,7
DA:1580,7
DA:1582,7
DA:1583,7
DA:1584,7
DA:1585,14
DA:1587,7
DA:1588,7
DA:1767,8
DA:1769,8
DA:1770,0
end_of_record
SF:/usr/include/c++/11/bits/stl_function.h
DA:369,25
DA:370,25
end_of_record
SF:/usr/include/c++/11/bits/invoke.h
FN:104,_ZSt10__invoke_rIPN8creature5HumanERN10SaveHelperUliiT_E23_EJiiNS0_13ENTITY_GENDEREEENSt9enable_ifIX16is_invocable_r_vIS4_T0_DpT1_EES4_E4typeEOS9_DpOSA_
FNDA:0,_ZSt10__invoke_rIPN8creature5HumanERN10SaveHelperUliiT_E23_EJiiNS0_13ENTITY_GENDEREEENSt9enable_ifIX16is_invocable_r_vIS4_T0_DpT1_EES4_E4typeEOS9_DpOSA_
FN:104,_ZSt10__invoke_rIPN8creature5HumanERN10SaveHelperUliiT_E20_EJiiNS0_13ENTITY_GENDEREEENSt9enable_ifIX16is_invocable_r_vIS4_T0_DpT1_EES4_E4typeEOS9_DpOSA_
FNDA:0,_ZSt10__invoke_rIPN8creature5HumanERN10SaveHelperUliiT_E20_EJiiNS0_13ENTITY_GENDEREEENSt9enable_ifIX16is_invocable_r_vIS4_T0_DpT1_EES4_E4typeEOS9_DpOSA_
FN:104,_ZSt10__invoke_rIPN8creature5HumanERN10SaveHelperUliiT_E18_EJiiNS0_13ENTITY_GENDEREEENSt9enable_ifIX16is_invocable_r_vIS4_T0_DpT1_EES4_E4typeEOS9_DpOSA_
FNDA:1,_ZSt10__invoke_rIPN8creature5HumanERN10SaveHelperUliiT_E18_EJiiNS0_13ENTITY_GENDEREEENSt9enable_ifIX16is_invocable_r_vIS4_T0_DpT1_EES4_E4typeEOS9_DpOSA_
FN:104,_ZSt10__invoke_rIPN8creature5HumanERN10SaveHelperUliiNS0_13ENTITY_GENDEREE10_EJiiS4_EENSt9enable_ifIX16is_invocable_r_vIT_T0_DpT1_EES8_E4typeEOS9_DpOSA_
FNDA:0,_ZSt10__invoke_rIPN8creature5HumanERN10SaveHelperUliiNS0_13ENTITY_GENDEREE10_EJiiS4_EENSt9enable_ifIX16is_invocable_r_vIT_T0_DpT1_EES8_E4typeEOS9_DpOSA_
FN:104,_ZSt10__invoke_rIPN8creature5HumanERN10SaveHelperUliiNS0_13ENTITY_GENDEREE9_EJiiS4_EENSt9enable_ifIX16is_invocable_r_vIT_T0_DpT1_EES8_E4typeEOS9_DpOSA_
FNDA:0,_ZSt10__invoke_rIPN8creature5HumanERN10SaveHelperUliiNS0_13ENTITY_GENDEREE9_EJiiS4_EENSt9enable_ifIX16is_invocable_r_vIT_T0_DpT1_EES8_E4typeEOS9_DpOSA_
FN:104,_ZSt10__invoke_rIPN8creature5HumanERN10SaveHelperUliiNS0_13ENTITY_GENDEREE8_EJiiS4_EENSt9enable_ifIX16is_invocable_r_vIT_T0_DpT1_EES8_E4typeEOS9_DpOSA_
FNDA:0,_ZSt10__invoke_rIPN8creature5HumanERN10SaveHelperUliiNS0_13ENTITY_GENDEREE8_EJiiS4_EENSt9enable_ifIX16is_invocable_r_vIT_T0_DpT1_EES8_E4typeEOS9_DpOSA_
DA:60,28
DA:61,28
DA:104,0
DA:114,0
DA:116,0
DA:104,0
DA:114,0
DA:116,0
DA:104,1
DA:114,1
DA:116,1
DA:104,0
DA:114,0
DA:116,0
DA:104,0
DA:114,0
DA:116,0
DA:104,0
DA:114,0
DA:116,0
DA:104,27
DA:114,27
end_of_record
SF:/usr/include/c++/11/bits/std_function.h
FN:241,_ZNSt14_Function_baseD2Ev
FNDA:25,_ZNSt14_Function_baseD2Ev
FN:267,_ZNSt17_Function_handlerIFPN8minerals17ResourceStructureEiiEN10SaveHelperUliiE15_EE10_M_managerERSt9_Any_dataRKS7_St18_Manager_operation
FNDA:3,_ZNSt17_Function_handlerIFPN8minerals17ResourceStructureEiiEN10SaveHelperUliiE15_EE10_M_managerERSt9_Any_dataRKS7_St18_Manager_operation
FN:267,_ZNSt17_Function_handlerIFPN8creature5HumanEiiNS0_13ENTITY_GENDEREEN10SaveHelperUliiS3_E11_EE10_M_managerERSt9_Any_dataRKS8_St18_Manager_operation
FNDA:3,_ZNSt17_Function_handlerIFPN8creature5HumanEiiNS0_13ENTITY_GENDEREEN10SaveHelperUliiS3_E11_EE10_M_managerERSt9_Any_dataRKS8_St18_Manager_operation
FN:267,_ZNSt17_Function_handlerIFPN8minerals17ResourceStructureEiiEN10SaveHelperUliiE14_EE10_M_managerERSt9_Any_dataRKS7_St18_Manager_operation
FNDA:3,_ZNSt17_Function_handlerIFPN8minerals17ResourceStructureEiiEN10SaveHelperUliiE14_EE10_M_managerERSt9_Any_dataRKS7_St18_Manager_operation
FN:267,_ZNSt17_Function_handlerIFPN8minerals17ResourceStructureEiiEN10SaveHelperUliiE13_EE10_M_managerERSt9_Any_dataRKS7_St18_Manager_operation
FNDA:3,_ZNSt17_Function_handlerIFPN8minerals17ResourceStructureEiiEN10SaveHelperUliiE13_EE10_M_managerERSt9_Any_dataRKS7_St18_Manager_operation
FN:267,_ZNSt17_Function_handlerIFPN8creature5HumanEiiNS0_13ENTITY_GENDEREEN10SaveHelperUliiS3_E12_EE10_M_managerERSt9_Any_dataRKS8_St18_Manager_operation
FNDA:3,_ZNSt17_Function_handlerIFPN8creature5HumanEiiNS0_13ENTITY_GENDEREEN10SaveHelperUliiS3_E12_EE10_M_managerERSt9_Any_dataRKS8_St18_Manager_operation
FN:267,_ZNSt17_Function_handlerIFPN8creature5HumanEiiNS0_13ENTITY_GENDEREEN10SaveHelperUliiS3_E10_EE10_M_managerERSt9_Any_dataRKS8_St18_Manager_operation
FNDA:3,_ZNSt17_Function_handlerIFPN8creature5HumanEiiNS0_13ENTITY_GENDEREEN10SaveHelperUliiS3_E10_EE10_M_managerERSt9_Any_dataRKS8_St18_Manager_operation
FN:267,_ZNSt17_Function_handlerIFPN8creature5HumanEiiNS0_13ENTITY_GENDEREEN10SaveHelperUliiS3_E9_EE10_M_managerERSt9_Any_dataRKS8_St18_Manager_operation
FNDA:3,_ZNSt17_Function_handlerIFPN8creature5HumanEiiNS0_13ENTITY_GENDEREEN10SaveHelperUliiS3_E9_EE10_M_managerERSt9_Any_dataRKS8_St18_Manager_operation
FN:267,_ZNSt17_Function_handlerIFPN8creature5HumanEiiNS0_13ENTITY_GENDEREEN10SaveHelperUliiS3_E8_EE10_M_managerERSt9_Any_dataRKS8_St18_Manager_operation
FNDA:3,_ZNSt17_Function_handlerIFPN8creature5HumanEiiNS0_13ENTITY_GENDEREEN10SaveHelperUliiS3_E8_EE10_M_managerERSt9_Any_dataRKS8_St18_Manager_operation
FN:267,_ZNSt17_Function_handlerIFPN8creature5HumanEiiNS0_13ENTITY_GENDEREEN10SaveHelperUliiS3_E7_EE10_M_managerERSt9_Any_dataRKS8_St18_Manager_operation
FNDA:3,_ZNSt17_Function_handlerIFPN8creature5HumanEiiNS0_13ENTITY_GENDEREEN10SaveHelperUliiS3_E7_EE10_M_managerERSt9_Any_dataRKS8_St18_Manager_operation
FN:267,_ZNSt17_Function_handlerIFPN8creature5HumanEiiNS0_13ENTITY_GENDEREEN10SaveHelperUliiS3_E6_EE10_M_managerERSt9_Any_dataRKS8_St18_Manager_operation
FNDA:3,_ZNSt17_Function_handlerIFPN8creature5HumanEiiNS0_13ENTITY_GENDEREEN10SaveHelperUliiS3_E6_EE10_M_managerERSt9_Any_dataRKS8_St18_Manager_operation
FN:267,_ZNSt17_Function_handlerIFPN8creature5HumanEiiNS0_13ENTITY_GENDEREEN10SaveHelperUliiS3_E5_EE10_M_managerERSt9_Any_dataRKS8_St18_Manager_operation
FNDA:3,_ZNSt17_Function_handlerIFPN8creature5HumanEiiNS0_13ENTITY_GENDEREEN10SaveHelperUliiS3_E5_EE10_M_managerERSt9_Any_dataRKS8_St18_Manager_operation
FN:267,_ZNSt17_Function_handlerIFPN8creature5HumanEiiNS0_13ENTITY_GENDEREEN10SaveHelperUliiS3_E4_EE10_M_managerERSt9_Any_dataRKS8_St18_Manager_operation
FNDA:3,_ZNSt17_Function_handlerIFPN8creature5HumanEiiNS0_13ENTITY_GENDEREEN10SaveHelperUliiS3_E4_EE10_M_managerERSt9_Any_dataRKS8_St18_Manager_operation
FN:267,_ZNSt17_Function_handlerIFPN8creature5HumanEiiNS0_13ENTITY_GENDEREEN10SaveHelperUliiS3_E3_EE10_M_managerERSt9_Any_dataRKS8_St18_Manager_operation
FNDA:3,_ZNSt17_Function_handlerIFPN8creature5HumanEiiNS0_13ENTITY_GENDEREEN10SaveHelperUliiS3_E3_EE10_M_managerERSt9_Any_dataRKS8_St18_Manager_operation
FN:267,_ZNSt17_Function_handlerIFPN8creature6LivingEiiEN10SaveHelperUliiE2_EE10_M_managerERSt9_Any_dataRKS7_St18_Manager_operation
FNDA:3,_ZNSt17_Function_handlerIFPN8creature6LivingEiiEN10SaveHelperUliiE2_EE10_M_managerERSt9_Any_dataRKS7_St18_Manager_operation
FN:267,_ZNSt17_Function_handlerIFPN8creature6LivingEiiEN10SaveHelperUliiE1_EE10_M_managerERSt9_Any_dataRKS7_St18_Manager_operation
FNDA:3,_ZNSt17_Function_handlerIFPN8creature6LivingEiiEN10SaveHelperUliiE1_EE10_M_managerERSt9_Any_dataRKS7_St18_Manager_operation
FN:267,_ZNSt17_Function_handlerIFPN8creature6LivingEiiEN10SaveHelperUliiE0_EE10_M_managerERSt9_Any_dataRKS7_St18_Manager_operation
FNDA:3,_ZNSt17_Function_handlerIFPN8creature6LivingEiiEN10SaveHelperUliiE0_EE10_M_managerERSt9_Any_dataRKS7_St18_Manager_operation
FN:267,_ZNSt17_Function_handlerIFPN8creature6LivingEiiEN10SaveHelperUliiE_EE10_M_managerERSt9_Any_dataRKS7_St18_Manager_operation
FNDA:3,_ZNSt17_Function_handlerIFPN8creature6LivingEiiEN10SaveHelperUliiE_EE10_M_managerERSt9_Any_dataRKS7_St18_Manager_operation
FN:267,_ZNSt17_Function_handlerIFPN8minerals17ResourceStructureEiiEN10SaveHelperUliiE16_EE10_M_managerERSt9_Any_dataRKS7_St18_Manager_operation
FNDA:3,_ZNSt17_Function_handlerIFPN8minerals17ResourceStructureEiiEN10SaveHelperUliiE16_EE10_M_managerERSt9_Any_dataRKS7_St18_Manager_operation
FN:267,_ZNSt17_Function_handlerIFPN8creature5HumanEiiNS0_13ENTITY_GENDEREEN10SaveHelperUliiT_E20_EE10_M_managerERSt9_Any_dataRKS9_St18_Manager_operation
FNDA:3,_ZNSt17_Function_handlerIFPN8creature5HumanEiiNS0_13ENTITY_GENDEREEN10SaveHelperUliiT_E20_EE10_M_managerERSt9_Any_dataRKS9_St18_Manager_operation
FN:267,_ZNSt17_Function_handlerIFPN8creature5HumanEiiNS0_13ENTITY_GENDEREEN10SaveHelperUliiT_E19_EE10_M_managerERSt9_Any_dataRKS9_St18_Manager_operation
FNDA:3,_ZNSt17_Function_handlerIFPN8creature5HumanEiiNS0_13ENTITY_GENDEREEN10SaveHelperUliiT_E19_EE10_M_managerERSt9_Any_dataRKS9_St18_Manager_operation
FN:267,_ZNSt17_Function_handlerIFPN8creature5HumanEiiNS0_13ENTITY_GENDEREEN10SaveHelperUliiT_E21_EE10_M_managerERSt9_Any_dataRKS9_St18_Manager_operation
FNDA:3,_ZNSt17_Function_handlerIFPN8creature5HumanEiiNS0_13ENTITY_GENDEREEN10SaveHelperUliiT_E21_EE10_M_managerERSt9_Any_dataRKS9_St18_Manager_operation
FN:267,_ZNSt17_Function_handlerIFPN8creature5HumanEiiNS0_13ENTITY_GENDEREEN10SaveHelperUliiT_E18_EE10_M_managerERSt9_Any_dataRKS9_St18_Manager_operation
FNDA:3,_ZNSt17_Function_handlerIFPN8creature5HumanEiiNS0_13ENTITY_GENDEREEN10SaveHelperUliiT_E18_EE10_M_managerERSt9_Any_dataRKS9_St18_Manager_operation
FN:267,_ZNSt17_Function_handlerIFPN8creature5HumanEiiNS0_13ENTITY_GENDEREEN10SaveHelperUliiT_E22_EE10_M_managerERSt9_Any_dataRKS9_St18_Manager_operation
FNDA:3,_ZNSt17_Function_handlerIFPN8creature5HumanEiiNS0_13ENTITY_GENDEREEN10SaveHelperUliiT_E22_EE10_M_managerERSt9_Any_dataRKS9_St18_Manager_operation
FN:267,_ZNSt17_Function_handlerIFPN8creature5HumanEiiNS0_13ENTITY_GENDEREEN10SaveHelperUliiT_E17_EE10_M_managerERSt9_Any_dataRKS9_St18_Manager_operation
FNDA:3,_ZNSt17_Function_handlerIFPN8creature5HumanEiiNS0_13ENTITY_GENDEREEN10SaveHelperUliiT_E17_EE10_M_managerERSt9_Any_dataRKS9_St18_Manager_operation
FN:267,_ZNSt17_Function_handlerIFPN8creature5HumanEiiNS0_13ENTITY_GENDEREEN10SaveHelperUliiT_E23_EE10_M_managerERSt9_Any_dataRKS9_St18_Manager_operation
FNDA:3,_ZNSt17_Function_handlerIFPN8creature5HumanEiiNS0_13ENTITY_GENDEREEN10SaveHelperUliiT_E23_EE10_M_managerERSt9_Any_dataRKS9_St18_Manager_operation
FN:288,_ZNSt17_Function_handlerIFPN8creature6LivingEiiEN10SaveHelperUliiE1_EE9_M_invokeERKSt9_Any_dataOiSA_
FNDA:4,_ZNSt17_Function_handlerIFPN8creature6LivingEiiEN10SaveHelperUliiE1_EE9_M_invokeERKSt9_Any_dataOiSA_
FN:288,_ZNSt17_Function_handlerIFPN8creature5HumanEiiNS0_13ENTITY_GENDEREEN10SaveHelperUliiT_E23_EE9_M_invokeERKSt9_Any_dataOiSC_OS3_
FNDA:0,_ZNSt17_Function_handlerIFPN8creature5HumanEiiNS0_13ENTITY_GENDEREEN10SaveHelperUliiT_E23_EE9_M_invokeERKSt9_Any_dataOiSC_OS3_
FN:288,_ZNSt17_Function_handlerIFPN8creature6LivingEiiEN10SaveHelperUliiE2_EE9_M_invokeERKSt9_Any_dataOiSA_
FNDA:0,_ZNSt17_Function_handlerIFPN8creature6LivingEiiEN10SaveHelperUliiE2_EE9_M_invokeERKSt9_Any_dataOiSA_
FN:288,_ZNSt17_Function_handlerIFPN8creature5HumanEiiNS0_13ENTITY_GENDEREEN10SaveHelperUliiS3_E3_EE9_M_invokeERKSt9_Any_dataOiSB_OS3_
FNDA:1,_ZNSt17_Function_handlerIFPN8creature5HumanEiiNS0_13ENTITY_GENDEREEN10SaveHelperUliiS3_E3_EE9_M_invokeERKSt9_Any_dataOiSB_OS3_
FN:288,_ZNSt17_Function_handlerIFPN8creature5HumanEiiNS0_13ENTITY_GENDEREEN10SaveHelperUliiT_E22_EE9_M_invokeERKSt9_Any_dataOiSC_OS3_
FNDA:0,_ZNSt17_Function_handlerIFPN8creature5HumanEiiNS0_13ENTITY_GENDEREEN10SaveHelperUliiT_E22_EE9_M_invokeERKSt9_Any_dataOiSC_OS3_
FN:288,_ZNSt17_Function_handlerIFPN8creature5HumanEiiNS0_13ENTITY_GENDEREEN10SaveHelperUliiS3_E4_EE9_M_invokeERKSt9_Any_dataOiSB_OS3_
FNDA:0,_ZNSt17_Function_handlerIFPN8creature5HumanEiiNS0_13ENTITY_GENDEREEN10SaveHelperUliiS3_E4_EE9_M_invokeERKSt9_Any_dataOiSB_OS3_
FN:288,_ZNSt17_Function_handlerIFPN8creature6LivingEiiEN10SaveHelperUliiE0_EE9_M_invokeERKSt9_Any_dataOiSA_
FNDA:0,_ZNSt17_Function_handlerIFPN8creature6LivingEiiEN10SaveHelperUliiE0_EE9_M_invokeERKSt9_Any_dataOiSA_
FN:288,_ZNSt17_Function_handlerIFPN8creature6LivingEiiEN10SaveHelperUliiE_EE9_M_invokeERKSt9_Any_dataOiSA_
FNDA:0,_ZNSt17_Function_handlerIFPN8creature6LivingEiiEN10SaveHelperUliiE_EE9_M_invokeERKSt9_Any_dataOiSA_
FN:288,_ZNSt17_Function_handlerIFPN8creature5HumanEiiNS0_13ENTITY_GENDEREEN10SaveHelperUliiS3_E5_EE9_M_invokeERKSt9_Any_dataOiSB_OS3_
FNDA:0,_ZNSt17_Function_handlerIFPN8creature5HumanEiiNS0_13ENTITY_GENDEREEN10SaveHelperUliiS3_E5_EE9_M_invokeERKSt9_Any_dataOiSB_OS3_
FN:288,_ZNSt17_Function_handlerIFPN8creature5HumanEiiNS0_13ENTITY_GENDEREEN10SaveHelperUliiT_E21_EE9_M_invokeERKSt9_Any_dataOiSC_OS3_
FNDA:2,_ZNSt17_Function_handlerIFPN8creature5HumanEiiNS0_13ENTITY_GENDEREEN10SaveHelperUliiT_E21_EE9_M_invokeERKSt9_Any_dataOiSC_OS3_
FN:288,_ZNSt17_Function_handlerIFPN8creature5HumanEiiNS0_13ENTITY_GENDEREEN10SaveHelperUliiS3_E6_EE9_M_invokeERKSt9_Any_dataOiSB_OS3_
FNDA:0,_ZNSt17_Function_handlerIFPN8creature5HumanEiiNS0_13ENTITY_GENDEREEN10SaveHelperUliiS3_E6_EE9_M_invokeERKSt9_Any_dataOiSB_OS3_
FN:288,_ZNSt17_Function_handlerIFPN8creature5HumanEiiNS0_13ENTITY_GENDEREEN10SaveHelperUliiS3_E7_EE9_M_invokeERKSt9_Any_dataOiSB_OS3_
FNDA:0,_ZNSt17_Function_handlerIFPN8creature5HumanEiiNS0_13ENTITY_GENDEREEN10SaveHelperUliiS3_E7_EE9_M_invokeERKSt9_Any_dataOiSB_OS3_
FN:288,_ZNSt17_Function_handlerIFPN8minerals17ResourceStructureEiiEN10SaveHelperUliiE16_EE9_M_invokeERKSt9_Any_dataOiSA_
FNDA:4,_ZNSt17_Function_handlerIFPN8minerals17ResourceStructureEiiEN10SaveHelperUliiE16_EE9_M_invokeERKSt9_Any_dataOiSA_
FN:288,_ZNSt17_Function_handlerIFPN8creature5HumanEiiNS0_13ENTITY_GENDEREEN10SaveHelperUliiT_E20_EE9_M_invokeERKSt9_Any_dataOiSC_OS3_
FNDA:0,_ZNSt17_Function_handlerIFPN8creature5HumanEiiNS0_13ENTITY_GENDEREEN10SaveHelperUliiT_E20_EE9_M_invokeERKSt9_Any_dataOiSC_OS3_
FN:288,_ZNSt17_Function_handlerIFPN8creature5HumanEiiNS0_13ENTITY_GENDEREEN10SaveHelperUliiS3_E8_EE9_M_invokeERKSt9_Any_dataOiSB_OS3_
FNDA:0,_ZNSt17_Function_handlerIFPN8creature5HumanEiiNS0_13ENTITY_GENDEREEN10SaveHelperUliiS3_E8_EE9_M_invokeERKSt9_Any_dataOiSB_OS3_
FN:288,_ZNSt17_Function_handlerIFPN8creature5HumanEiiNS0_13ENTITY_GENDEREEN10SaveHelperUliiS3_E9_EE9_M_invokeERKSt9_Any_dataOiSB_OS3_
FNDA:0,_ZNSt17_Function_handlerIFPN8creature5HumanEiiNS0_13ENTITY_GENDEREEN10SaveHelperUliiS3_E9_EE9_M_invokeERKSt9_Any_dataOiSB_OS3_
FN:288,_ZNSt17_Function_handlerIFPN8creature5HumanEiiNS0_13ENTITY_GENDEREEN10SaveHelperUliiT_E19_EE9_M_invokeERKSt9_Any_dataOiSC_OS3_
FNDA:0,_ZNSt17_Function_handlerIFPN8creature5HumanEiiNS0_13ENTITY_GENDEREEN10SaveHelperUliiT_E19_EE9_M_invokeERKSt9_Any_dataOiSC_OS3_
FN:288,_ZNSt17_Function_handlerIFPN8creature5HumanEiiNS0_13ENTITY_GENDEREEN10SaveHelperUliiS3_E10_EE9_M_invokeERKSt9_Any_dataOiSB_OS3_
FNDA:0,_ZNSt17_Function_handlerIFPN8creature5HumanEiiNS0_13ENTITY_GENDEREEN10SaveHelperUliiS3_E10_EE9_M_invokeERKSt9_Any_dataOiSB_OS3_
FN:288,_ZNSt17_Function_handlerIFPN8creature5HumanEiiNS0_13ENTITY_GENDEREEN10SaveHelperUliiS3_E11_EE9_M_invokeERKSt9_Any_dataOiSB_OS3_
FNDA:0,_ZNSt17_Function_handlerIFPN8creature5HumanEiiNS0_13ENTITY_GENDEREEN10SaveHelperUliiS3_E11_EE9_M_invokeERKSt9_Any_dataOiSB_OS3_
FN:288,_ZNSt17_Function_handlerIFPN8creature5HumanEiiNS0_13ENTITY_GENDEREEN10SaveHelperUliiS3_E12_EE9_M_invokeERKSt9_Any_dataOiSB_OS3_
FNDA:0,_ZNSt17_Function_handlerIFPN8creature5HumanEiiNS0_13ENTITY_GENDEREEN10SaveHelperUliiS3_E12_EE9_M_invokeERKSt9_Any_dataOiSB_OS3_
FN:288,_ZNSt17_Function_handlerIFPN8creature5HumanEiiNS0_13ENTITY_GENDEREEN10SaveHelperUliiT_E18_EE9_M_invokeERKSt9_Any_dataOiSC_OS3_
FNDA:1,_ZNSt17_Function_handlerIFPN8creature5HumanEiiNS0_13ENTITY_GENDEREEN10SaveHelperUliiT_E18_EE9_M_invokeERKSt9_Any_dataOiSC_OS3_
FN:288,_ZNSt17_Function_handlerIFPN8minerals17ResourceStructureEiiEN10SaveHelperUliiE13_EE9_M_invokeERKSt9_Any_dataOiSA_
FNDA:8,_ZNSt17_Function_handlerIFPN8minerals17ResourceStructureEiiEN10SaveHelperUliiE13_EE9_M_invokeERKSt9_Any_dataOiSA_
FN:288,_ZNSt17_Function_handlerIFPN8minerals17ResourceStructureEiiEN10SaveHelperUliiE14_EE9_M_invokeERKSt9_Any_dataOiSA_
FNDA:4,_ZNSt17_Function_handlerIFPN8minerals17ResourceStructureEiiEN10SaveHelperUliiE14_EE9_M_invokeERKSt9_Any_dataOiSA_
FN:288,_ZNSt17_Function_handlerIFPN8creature5HumanEiiNS0_13ENTITY_GENDEREEN10SaveHelperUliiT_E17_EE9_M_invokeERKSt9_Any_dataOiSC_OS3_
FNDA:0,_ZNSt17_Function_handlerIFPN8creature5HumanEiiNS0_13ENTITY_GENDEREEN10SaveHelperUliiT_E17_EE9_M_invokeERKSt9_Any_dataOiSC_OS3_
FN:288,_ZNSt17_Function_handlerIFPN8minerals17ResourceStructureEiiEN10SaveHelperUliiE15_EE9_M_invokeERKSt9_Any_dataOiSA_
FNDA:4,_ZNSt17_Function_handlerIFPN8minerals17ResourceStructureEiiEN10SaveHelperUliiE15_EE9_M_invokeERKSt9_Any_dataOiSA_
FN:386,_ZNSt8functionIFPN8minerals17ResourceStructureEiiEEC2ERKS4_
FNDA:4,_ZNSt8functionIFPN8minerals17ResourceStructureEiiEEC2ERKS4_
FN:386,_ZNSt8functionIFPN8creature5HumanEiiNS0_13ENTITY_GENDEREEEC2ERKS5_
FNDA:17,_ZNSt8functionIFPN8creature5HumanEiiNS0_13ENTITY_GENDEREEEC2ERKS5_
FN:386,_ZNSt8functionIFPN8creature6LivingEiiEEC2ERKS4_
FNDA:4,_ZNSt8functionIFPN8creature6LivingEiiEEC2ERKS4_
DA:86,28
DA:91,0
DA:95,28
DA:96,28
DA:134,28
DA:138,28
DA:166,50
DA:168,50
DA:180,75
DA:183,75
DA:187,0
DA:191,0
DA:193,0
DA:194,0
DA:195,0
DA:202,50
DA:203,50
DA:204,50
DA:239,25
DA:241,25
DA:243,25
DA:244,25
DA:245,25
DA:247,25
DA:267,3
DA:270,3
DA:273,0
DA:274,0
DA:275,0
DA:277,0
DA:278,0
DA:279,0
DA:281,3
DA:282,3
DA:284,3
DA:267,3
DA:270,3
DA:273,0
DA:274,0
DA:275,0
DA:277,0
DA:278,0
DA:279,0
DA:281,3
DA:282,3
DA:284,3
DA:267,3
DA:270,3
DA:273,0
DA:274,0
DA:275,0
DA:277,0
DA:278,0
DA:279,0
DA:281,3
DA:282,3
DA:284,3
DA:267,3
DA:270,3
DA:273,0
DA:274,0
DA:275,0
DA:277,0
DA:278,0
DA:279,0
DA:281,3
DA:282,3
DA:284,3
DA:267,3
DA:270,3
DA:273,0
DA:274,0
DA:275,0
DA:277,0
DA:278,0
DA:279,0
DA:281,3
DA:282,3
DA:284,3
DA:267,3
DA:270,3
DA:273,0
DA:274,0
DA:275,0
DA:277,0
DA:278,0
DA:279,0
DA:281,3
DA:282,3
DA:284,3
DA:267,3
DA:270,3
DA:273,0
DA:274,0
DA:275,0
DA:277,0
DA:278,0
DA:279,0
DA:281,3
DA:282,3
DA:284,3
DA:267,3
DA:270,3
DA:273,0
DA:274,0
DA:275,0
DA:277,0
DA:278,0
DA:279,0
DA:281,3
DA:282,3
DA:284,3
DA:267,3
DA:270,3
DA:273,0
DA:274,0
DA:275,0
DA:277,0
DA:278,0
DA:279,0
DA:281,3
DA:282,3
DA:284,3
DA:267,3
DA:270,3
DA:273,0
DA:274,0
DA:275,0
DA:277,0
DA:278,0
DA:279,0
DA:281,3
DA:282,3
DA:284,3
DA:267,3
DA:270,3
DA:273,0
DA:274,0
DA:275,0
DA:277,0
DA:278,0
DA:279,0
DA:281,3
DA:282,3
DA:284,3
DA:267,3
DA:270,3
DA:273,0
DA:274,0
DA:275,0
DA:277,0
DA:278,0
DA:279,0
DA:281,3
DA:282,3
DA:284,3
DA:267,3
DA:270,3
DA:273,0
DA:274,0
DA:275,0
DA:277,0
DA:278,0
DA:279,0
DA:281,3
DA:282,3
DA:284,3
DA:267,3
DA:270,3
DA:273,0
DA:274,0
DA:275,0
DA:277,0
DA:278,0
DA:279,0
DA:281,3
DA:282,3
DA:284,3
DA:267,3
DA:270,3
DA:273,0
DA:274,0
DA:275,0
DA:277,0
DA:278,0
DA:279,0
DA:281,3
DA:282,3
DA:284,3
DA:267,3
DA:270,3
DA:273,0
DA:274,0
DA:275,0
DA:277,0
DA:278,0
DA:279,0
DA:281,3
DA:282,3
DA:284,3
DA:267,3
DA:270,3
DA:273,0
DA:274,0
DA:275,0
DA:277,0
DA:278,0
DA:279,0
DA:281,3
DA:282,3
DA:284,3
DA:267,3
DA:270,3
DA:273,0
DA:274,0
DA:275,0
DA:277,0
DA:278,0
DA:279,0
DA:281,3
DA:282,3
DA:284,3
DA:267,3
DA:270,3
DA:273,0
DA:274,0
DA:275,0
DA:277,0
DA:278,0
DA:279,0
DA:281,3
DA:282,3
DA:284,3
DA:267,3
DA:270,3
DA:273,0
DA:274,0
DA:275,0
DA:277,0
DA:278,0
DA:279,0
DA:281,3
DA:282,3
DA:284,3
DA:267,3
DA:270,3
DA:273,0
DA:274,0
DA:275,0
DA:277,0
DA:278,0
DA:279,0
DA:281,3
DA:282,3
DA:284,3
DA:267,3
DA:270,3
DA:273,0
DA:274,0
DA:275,0
DA:277,0
DA:278,0
DA:279,0
DA:281,3
DA:282,3
DA:284,3
DA:267,3
DA:270,3
DA:273,0
DA:274,0
DA:275,0
DA:277,0
DA:278,0
DA:279,0
DA:281,3
DA:282,3
DA:284,3
DA:267,3
DA:270,3
DA:273,0
DA:274,0
DA:275,0
DA:277,0
DA:278,0
DA:279,0
DA:281,3
DA:282,3
DA:284,3
DA:267,3
DA:270,3
DA:273,0
DA:274,0
DA:275,0
DA:277,0
DA:278,0
DA:279,0
DA:281,3
DA:282,3
DA:284,3
DA:288,0
DA:290,0
DA:291,0
DA:288,0
DA:290,0
DA:291,0
DA:288,0
DA:290,0
DA:291,0
DA:288,4
DA:290,4
DA:291,4
DA:288,0
DA:290,0
DA:291,0
DA:288,1
DA:290,1
DA:291,1
DA:288,0
DA:290,0
DA:291,0
DA:288,0
DA:290,0
DA:291,0
DA:288,0
DA:290,0
DA:291,0
DA:288,0
DA:290,0
DA:291,0
DA:288,0
DA:290,0
DA:291,0
DA:288,0
DA:290,0
DA:291,0
DA:288,0
DA:290,0
DA:291,0
DA:288,0
DA:290,0
DA:291,0
DA:288,0
DA:290,0
DA:291,0
DA:288,8
DA:290,8
DA:291,8
DA:288,4
DA:290,4
DA:291,4
DA:288,4
DA:290,4
DA:291,4
DA:288,4
DA:290,4
DA:291,4
DA:288,0
DA:290,0
DA:291,0
DA:288,1
DA:290,1
DA:291,1
DA:288,0
DA:290,0
DA:291,0
DA:288,0
DA:290,0
DA:291,0
DA:288,2
DA:290,2
DA:291,2
DA:288,0
DA:290,0
DA:291,0
DA:334,25
DA:386,4
DA:387,4
DA:389,4
DA:391,4
DA:392,4
DA:393,4
DA:395,4
DA:386,4
DA:387,4
DA:389,4
DA:391,4
DA:392,4
DA:393,4
DA:395,4
DA:386,17
DA:387,17
DA:389,17
DA:391,17
DA:392,17
DA:393,17
DA:395,17
DA:572,25
DA:573,25
end_of_record
SF:/usr/include/c++/11/bits/allocator.h
DA:156,44
DA:159,70
DA:160,67
DA:169,9
DA:174,108
end_of_record
TN:
SF:/usr/include/c++/11/bits/allocator.h
DA:159,0
DA:160,0
DA:174,6
end_of_record
SF:/usr/include/c++/11/ext/alloc_traits.h
DA:97,0
DA:98,0
end_of_record
SF:/usr/include/c++/11/bits/basic_string.h
DA:158,6
DA:164,0
DA:165,0
DA:186,0
DA:187,0
DA:190,0
DA:191,0
DA:194,1
DA:195,0
DA:198,0
DA:201,0
DA:218,0
DA:219,0
DA:222,0
DA:224,0
DA:225,0
DA:299,0
DA:400,0
DA:401,0
DA:448,0
DA:449,0
DA:450,0
DA:671,0
DA:672,6
DA:920,0
DA:921,0
DA:1213,0
DA:1214,0
DA:2320,1
DA:2321,1
DA:2351,0
DA:2352,0
end_of_record
SF:/usr/include/c++/11/bits/ios_base.h
DA:165,2
DA:166,2
end_of_record
SF:/usr/include/c++/11/bits/basic_ios.h
DA:125,2
DA:126,2
DA:137,2
DA:138,2
DA:201,2
DA:202,2
end_of_record
SF:/usr/include/c++/11/iostream
end_of_record
SF:/usr/include/c++/11/bits/stl_iterator_base_funcs.h
DA:98,0
DA:104,0
DA:138,0
DA:141,0
end_of_record
SF:/usr/include/c++/11/bits/alloc_traits.h
DA:562,0
DA:563,0
end_of_record
SF:/mnt/c/users/gabci/desktop/nhf2/src/SaveManager.cpp
FN:3,_ZN11SaveManagerC2ERKNSt7__cxx1112basic_stringIcSt11char_traitsIcESaIcEEE
FNDA:5,_ZN11SaveManagerC2ERKNSt7__cxx1112basic_stringIcSt11char_traitsIcESaIcEEE
FN:5,_ZN11SaveManager8saveFileER5World
FNDA:2,_ZN11SaveManager8saveFileER5World
FN:14,_ZN11SaveManager8loadFileER5World
FNDA:2,_ZN11SaveManager8loadFileER5World
FN:25,_ZN11SaveManager10deleteFileEv
FNDA:1,_ZN11SaveManager10deleteFileEv
DA:3,5
DA:5,2
DA:6,2
DA:7,2
DA:9,2
DA:11,2
DA:12,2
DA:14,2
DA:15,2
DA:16,2
DA:17,2
DA:21,1
DA:22,1
DA:23,2
DA:25,1
DA:26,1
DA:27,0
DA:28,0
DA:29,0
DA:33,2
DA:35,0
end_of_record
SF:/mnt/c/users/gabci/desktop/nhf2/src/exceptions/SimulationException.h
FN:20,_ZN19SimulationExceptionC2ERKNSt7__cxx1112basic_stringIcSt11char_traitsIcESaIcEEE
FNDA:2,_ZN19SimulationExceptionC2ERKNSt7__cxx1112basic_stringIcSt11char_traitsIcESaIcEEE
DA:20,4
end_of_record
SF:/usr/include/c++/11/bits/char_traits.h
DA:356,0
DA:357,0
DA:393,0
DA:396,0
DA:399,0
end_of_record
SF:/mnt/c/users/gabci/desktop/nhf2/src/exceptions/FileExceptions.h
FN:51,_ZN16ReadSaveFileFailC2ERKNSt7__cxx1112basic_stringIcSt11char_traitsIcESaIcEEE
FNDA:2,_ZN16ReadSaveFileFailC2ERKNSt7__cxx1112basic_stringIcSt11char_traitsIcESaIcEEE
DA:51,4
end_of_record
SF:/usr/include/c++/11/bits/basic_string.tcc
FN:206,_ZNSt7__cxx1112basic_stringIcSt11char_traitsIcESaIcEE12_M_constructIPcEEvT_S7_St20forward_iterator_tag
FNDA:0,_ZNSt7__cxx1112basic_stringIcSt11char_traitsIcESaIcEE12_M_constructIPcEEvT_S7_St20forward_iterator_tag
FN:1169,_ZStplIcSt11char_traitsIcESaIcEENSt7__cxx1112basic_stringIT_T0_T1_EEPKS5_RKS8_
FNDA:0,_ZStplIcSt11char_traitsIcESaIcEENSt7__cxx1112basic_stringIT_T0_T1_EEPKS5_RKS8_
DA:206,0
DA:211,0
DA:212,0
DA:215,0
DA:217,0
DA:219,0
DA:220,0
DA:225,0
DA:232,0
DA:233,0
DA:1169,0
DA:1178,0
DA:1179,0
DA:1181,0
DA:1182,0
DA:1183,0
DA:1184,0
DA:1185,0
end_of_record
SF:/usr/include/c++/11/ext/new_allocator.h
DA:82,0
DA:89,6
end_of_record
TN:
SF:/mnt/c/users/gabci/desktop/nhf2/src/Shadowable.cpp
FN:3,_ZN10Shadowable16setShadowTextureERKNSt7__cxx1112basic_stringIcSt11char_traitsIcESaIcEEE
FNDA:570,_ZN10Shadowable16setShadowTextureERKNSt7__cxx1112basic_stringIcSt11char_traitsIcESaIcEEE
FN:19,_ZN10Shadowable9setShadowEff
FNDA:192,_ZN10Shadowable9setShadowEff
FN:31,_ZN10Shadowable22setShadowDayNightCycleEf
FNDA:192,_ZN10Shadowable22setShadowDayNightCycleEf
FN:46,_ZN10Shadowable17setShadowPositionEdd
FNDA:192,_ZN10Shadowable17setShadowPositionEdd
FN:52,_ZN10Shadowable10drawShadowERN2sf12RenderWindowE
FNDA:192,_ZN10Shadowable10drawShadowERN2sf12RenderWindowE
FN:71,_ZNK10Shadowable17get_height_offsetEv
FNDA:1,_ZNK10Shadowable17get_height_offsetEv
FN:74,_ZNK10Shadowable19get_shadow_strengthEv
FNDA:1,_ZNK10Shadowable19get_shadow_strengthEv
FN:77,_ZNK10Shadowable15get_skew_offsetEv
FNDA:1,_ZNK10Shadowable15get_skew_offsetEv
FN:80,_ZN10Shadowable17set_height_offsetEd
FNDA:1,_ZN10Shadowable17set_height_offsetEd
FN:83,_ZN10Shadowable19set_shadow_strengthEi
FNDA:1,_ZN10Shadowable19set_shadow_strengthEi
FN:86,_ZN10Shadowable15set_skew_offsetEf
FNDA:1,_ZN10Shadowable15set_skew_offsetEf
DA:3,570
DA:5,570
DA:7,570
DA:10,570
DA:15,570
DA:16,570
DA:19,192
DA:21,192
DA:23,192
DA:25,192
DA:26,192
DA:28,192
DA:29,192
DA:31,192
DA:32,192
DA:33,192
DA:34,192
DA:36,192
DA:37,192
DA:38,192
DA:39,192
DA:41,0
DA:44,192
DA:46,192
DA:47,192
DA:48,192
DA:49,192
DA:50,192
DA:52,192
DA:53,192
DA:54,384
DA:55,192
DA:60,192
DA:61,192
DA:63,192
DA:64,192
DA:66,192
DA:67,192
DA:69,192
DA:70,192
DA:71,1
DA:72,1
DA:74,1
DA:75,1
DA:77,1
DA:78,1
DA:80,1
DA:81,1
DA:82,1
DA:83,1
DA:84,1
DA:85,1
DA:86,1
DA:87,1
DA:88,1
end_of_record
SF:/usr/include/c++/11/cmath
DA:279,192
DA:280,192
DA:425,192
DA:426,192
end_of_record
SF:/usr/include/c++/11/iostream
end_of_record
TN:
SF:/usr/include/c++/11/bits/basic_string.tcc
FN:206,_ZNSt7__cxx1112basic_stringIcSt11char_traitsIcESaIcEE12_M_constructIPcEEvT_S7_St20forward_iterator_tag
FNDA:0,_ZNSt7__cxx1112basic_stringIcSt11char_traitsIcESaIcEE12_M_constructIPcEEvT_S7_St20forward_iterator_tag
FN:1169,_ZStplIcSt11char_traitsIcESaIcEENSt7__cxx1112basic_stringIT_T0_T1_EEPKS5_RKS8_
FNDA:0,_ZStplIcSt11char_traitsIcESaIcEENSt7__cxx1112basic_stringIT_T0_T1_EEPKS5_RKS8_
DA:206,0
DA:211,0
DA:212,0
DA:215,0
DA:217,0
DA:219,0
DA:220,0
DA:225,0
DA:232,0
DA:233,0
DA:1169,0
DA:1178,0
DA:1179,0
DA:1181,0
DA:1182,0
DA:1183,0
DA:1184,0
DA:1185,0
end_of_record
SF:/usr/include/c++/11/bits/char_traits.h
DA:356,10
DA:357,10
DA:372,5
DA:374,5
DA:377,5
DA:389,5
DA:393,0
DA:396,0
DA:399,0
end_of_record
SF:/usr/include/c++/11/bits/stl_pair.h
DA:211,0
end_of_record
SF:/usr/include/c++/11/bits/hashtable_policy.h
FN:696,_ZNSt8__detail9_Map_baseINSt7__cxx1112basic_stringIcSt11char_traitsIcESaIcEEESt4pairIKS6_N2sf11SoundBufferEESaISB_ENS_10_Select1stESt8equal_toIS6_ESt4hashIS6_ENS_18_Mod_range_hashingENS_20_Default_ranged_hashENS_20_Prime_rehash_policyENS_17_Hashtable_traitsILb1ELb0ELb1EEELb1EEixERS8_
FNDA:5,_ZNSt8__detail9_Map_baseINSt7__cxx1112basic_stringIcSt11char_traitsIcESaIcEEESt4pairIKS6_N2sf11SoundBufferEESaISB_ENS_10_Select1stESt8equal_toIS6_ESt4hashIS6_ENS_18_Mod_range_hashingENS_20_Default_ranged_hashENS_20_Prime_rehash_policyENS_17_Hashtable_traitsILb1ELb0ELb1EEELb1EEixERS8_
FN:1870,_ZNSt8__detail16_Hashtable_allocISaINS_10_Hash_nodeISt4pairIKNSt7__cxx1112basic_stringIcSt11char_traitsIcESaIcEEEN2sf11SoundBufferEELb1EEEEE16_M_allocate_nodeIJRKSt21piecewise_construct_tSt5tupleIJRS9_EESK_IJEEEEEPSD_DpOT_
FNDA:5,_ZNSt8__detail16_Hashtable_allocISaINS_10_Hash_nodeISt4pairIKNSt7__cxx1112basic_stringIcSt11char_traitsIcESaIcEEEN2sf11SoundBufferEELb1EEEEE16_M_allocate_nodeIJRKSt21piecewise_construct_tSt5tupleIJRS9_EESK_IJEEEEEPSD_DpOT_
FN:1892,_ZNSt8__detail16_Hashtable_allocISaINS_10_Hash_nodeISt4pairIKNSt7__cxx1112basic_stringIcSt11char_traitsIcESaIcEEEN2sf11SoundBufferEELb1EEEEE18_M_deallocate_nodeEPSD_
FNDA:0,_ZNSt8__detail16_Hashtable_allocISaINS_10_Hash_nodeISt4pairIKNSt7__cxx1112basic_stringIcSt11char_traitsIcESaIcEEEN2sf11SoundBufferEELb1EEEEE18_M_deallocate_nodeEPSD_
FN:1900,_ZNSt8__detail16_Hashtable_allocISaINS_10_Hash_nodeISt4pairIKNSt7__cxx1112basic_stringIcSt11char_traitsIcESaIcEEEN2sf11SoundBufferEELb1EEEEE22_M_deallocate_node_ptrEPSD_
FNDA:0,_ZNSt8__detail16_Hashtable_allocISaINS_10_Hash_nodeISt4pairIKNSt7__cxx1112basic_stringIcSt11char_traitsIcESaIcEEEN2sf11SoundBufferEELb1EEEEE22_M_deallocate_node_ptrEPSD_
FN:1922,_ZNSt8__detail16_Hashtable_allocISaINS_10_Hash_nodeISt4pairIKNSt7__cxx1112basic_stringIcSt11char_traitsIcESaIcEEEN2sf11SoundBufferEELb1EEEEE19_M_allocate_bucketsEm
FNDA:5,_ZNSt8__detail16_Hashtable_allocISaINS_10_Hash_nodeISt4pairIKNSt7__cxx1112basic_stringIcSt11char_traitsIcESaIcEEEN2sf11SoundBufferEELb1EEEEE19_M_allocate_bucketsEm
FN:1935,_ZNSt8__detail16_Hashtable_allocISaINS_10_Hash_nodeISt4pairIKNSt7__cxx1112basic_stringIcSt11char_traitsIcESaIcEEEN2sf11SoundBufferEELb1EEEEE21_M_deallocate_bucketsEPPNS_15_Hash_node_baseEm
FNDA:0,_ZNSt8__detail16_Hashtable_allocISaINS_10_Hash_nodeISt4pairIKNSt7__cxx1112basic_stringIcSt11char_traitsIcESaIcEEEN2sf11SoundBufferEELb1EEEEE21_M_deallocate_bucketsEPPNS_15_Hash_node_baseEm
DA:93,5
DA:95,5
DA:219,5
DA:238,15
DA:242,5
DA:246,0
DA:277,5
DA:282,0
DA:283,0
DA:295,30
DA:338,30
DA:339,10
DA:346,5
DA:347,5
DA:428,25
DA:430,25
DA:473,5
DA:474,5
DA:481,0
DA:482,0
DA:696,5
DA:701,5
DA:702,5
DA:703,5
DA:704,0
DA:705,0
DA:707,5
DA:710,5
DA:711,5
DA:714,5
DA:715,5
DA:716,5
DA:717,5
DA:1215,20
DA:1219,20
DA:1232,25
DA:1233,25
DA:1247,0
DA:1251,0
DA:1263,5
DA:1264,5
DA:1595,5
DA:1596,5
DA:1611,5
DA:1617,5
DA:1870,5
DA:1873,5
DA:1874,5
DA:1877,5
DA:1878,5
DA:1881,5
DA:1883,0
DA:1885,0
DA:1886,0
DA:1892,0
DA:1894,0
DA:1895,0
DA:1896,0
DA:1900,0
DA:1903,0
DA:1904,0
DA:1905,0
DA:1906,0
DA:1922,5
DA:1925,5
DA:1927,5
DA:1928,5
DA:1929,5
DA:1930,5
DA:1931,5
DA:1935,0
DA:1940,0
DA:1941,0
DA:1942,0
DA:1943,0
end_of_record
SF:/mnt/c/users/gabci/desktop/nhf2/src/fake_sfml/fake_sfml.h
DA:180,15
end_of_record
SF:/usr/include/c++/11/ext/new_allocator.h
FN:103,_ZN9__gnu_cxx13new_allocatorIPNSt8__detail15_Hash_node_baseEE8allocateEmPKv
FNDA:5,_ZN9__gnu_cxx13new_allocatorIPNSt8__detail15_Hash_node_baseEE8allocateEmPKv
FN:103,_ZN9__gnu_cxx13new_allocatorINSt8__detail10_Hash_nodeISt4pairIKNSt7__cxx1112basic_stringIcSt11char_traitsIcESaIcEEEN2sf11SoundBufferEELb1EEEE8allocateEmPKv
FNDA:5,_ZN9__gnu_cxx13new_allocatorINSt8__detail10_Hash_nodeISt4pairIKNSt7__cxx1112basic_stringIcSt11char_traitsIcESaIcEEEN2sf11SoundBufferEELb1EEEE8allocateEmPKv
DA:79,15
DA:82,10
DA:89,15
DA:103,5
DA:111,5
DA:115,0
DA:116,0
DA:117,0
DA:127,5
DA:103,5
DA:111,5
DA:115,0
DA:116,0
DA:117,0
DA:127,5
DA:132,0
DA:145,0
DA:160,5
DA:162,5
DA:166,0
DA:168,0
end_of_record
SF:/usr/include/c++/11/bits/unordered_map.h
DA:347,10
DA:348,10
DA:868,15
DA:869,15
DA:979,5
DA:980,5
end_of_record
SF:/usr/include/c++/11/ext/aligned_buffer.h
DA:104,5
DA:110,5
DA:115,15
end_of_record
SF:/usr/include/c++/11/bits/basic_string.h
FN:6234,_ZSteqIcEN9__gnu_cxx11__enable_ifIXsrSt9__is_charIT_E7__valueEbE6__typeERKNSt7__cxx1112basic_stringIS3_St11char_traitsIS3_ESaIS3_EEESE_
FNDA:5,_ZSteqIcEN9__gnu_cxx11__enable_ifIXsrSt9__is_charIT_E7__valueEbE6__typeERKNSt7__cxx1112basic_stringIS3_St11char_traitsIS3_ESaIS3_EEESE_
DA:158,5
DA:164,0
DA:165,0
DA:167,10
DA:168,10
DA:186,0
DA:187,0
DA:190,10
DA:191,10
DA:194,25
DA:195,0
DA:198,5
DA:201,5
DA:218,0
DA:219,0
DA:222,10
DA:224,10
DA:225,10
DA:299,0
DA:400,0
DA:401,0
DA:439,10
DA:441,10
DA:442,10
DA:448,0
DA:449,0
DA:450,0
DA:671,0
DA:672,5
DA:920,5
DA:921,0
DA:926,20
DA:927,20
DA:1213,0
DA:1214,0
DA:2332,25
DA:2333,25
DA:2351,0
DA:2352,0
DA:6234,5
DA:6236,5
DA:6237,5
DA:6238,5
DA:6875,20
DA:6876,20
end_of_record
SF:/usr/include/c++/11/utility
DA:188,5
DA:189,5
DA:233,5
DA:234,5
end_of_record
SF:/usr/include/c++/11/ext/alloc_traits.h
DA:97,0
DA:98,0
end_of_record
SF:/usr/include/c++/11/bits/stl_function.h
DA:369,5
DA:370,5
end_of_record
SF:/usr/include/c++/11/bits/allocator.h
DA:156,10
DA:159,10
DA:160,0
DA:169,5
DA:174,15
end_of_record
SF:/mnt/c/users/gabci/desktop/nhf2/src/SoundPlayer.cpp
FN:3,_ZN11SoundPlayer10load_soundERKNSt7__cxx1112basic_stringIcSt11char_traitsIcESaIcEEE
FNDA:5,_ZN11SoundPlayer10load_soundERKNSt7__cxx1112basic_stringIcSt11char_traitsIcESaIcEEE
FN:18,_ZN11SoundPlayer10play_soundERKNSt7__cxx1112basic_stringIcSt11char_traitsIcESaIcEEE
FNDA:5,_ZN11SoundPlayer10play_soundERKNSt7__cxx1112basic_stringIcSt11char_traitsIcESaIcEEE
FN:29,_ZN11SoundPlayer10stop_soundEv
FNDA:1,_ZN11SoundPlayer10stop_soundEv
DA:3,5
DA:4,5
DA:5,5
DA:6,5
DA:7,0
DA:8,0
DA:9,0
DA:12,0
DA:14,5
DA:15,5
DA:18,5
DA:19,5
DA:20,5
DA:21,5
DA:23,5
DA:25,5
DA:26,5
DA:27,5
DA:29,1
DA:30,1
DA:31,1
end_of_record
SF:/usr/include/c++/11/tuple
DA:192,5
DA:193,5
DA:233,5
DA:424,5
DA:434,5
DA:435,5
DA:454,5
DA:456,5
DA:727,5
DA:729,5
DA:756,5
DA:1377,5
DA:1378,5
DA:1393,5
DA:1394,5
DA:1804,5
DA:1809,5
DA:1816,5
DA:1819,5
DA:1820,5
end_of_record
SF:/usr/include/c++/11/bits/functional_hash.h
DA:196,20
DA:198,20
end_of_record
SF:/usr/include/c++/11/bits/alloc_traits.h
DA:463,10
DA:464,10
DA:495,0
DA:496,0
DA:511,5
DA:516,5
DA:531,0
DA:535,0
DA:562,0
DA:563,0
end_of_record
SF:/usr/include/c++/11/bits/stl_iterator_base_funcs.h
DA:98,0
DA:104,0
DA:138,0
DA:141,0
end_of_record
SF:/usr/include/c++/11/bits/hashtable.h
FN:308,_ZNSt10_HashtableINSt7__cxx1112basic_stringIcSt11char_traitsIcESaIcEEESt4pairIKS5_N2sf11SoundBufferEESaISA_ENSt8__detail10_Select1stESt8equal_toIS5_ESt4hashIS5_ENSC_18_Mod_range_hashingENSC_20_Default_ranged_hashENSC_20_Prime_rehash_policyENSC_17_Hashtable_traitsILb1ELb0ELb1EEEE12_Scoped_nodeD2Ev
FNDA:5,_ZNSt10_HashtableINSt7__cxx1112basic_stringIcSt11char_traitsIcESaIcEEESt4pairIKS5_N2sf11SoundBufferEESaISA_ENSt8__detail10_Select1stESt8equal_toIS5_ESt4hashIS5_ENSC_18_Mod_range_hashingENSC_20_Default_ranged_hashENSC_20_Prime_rehash_policyENSC_17_Hashtable_traitsILb1ELb0ELb1EEEE12_Scoped_nodeD2Ev
FN:453,_ZNSt10_HashtableINSt7__cxx1112basic_stringIcSt11char_traitsIcESaIcEEESt4pairIKS5_N2sf11SoundBufferEESaISA_ENSt8__detail10_Select1stESt8equal_toIS5_ESt4hashIS5_ENSC_18_Mod_range_hashingENSC_20_Default_ranged_hashENSC_20_Prime_rehash_policyENSC_17_Hashtable_traitsILb1ELb0ELb1EEEE21_M_deallocate_bucketsEv
FNDA:5,_ZNSt10_HashtableINSt7__cxx1112basic_stringIcSt11char_traitsIcESaIcEEESt4pairIKS5_N2sf11SoundBufferEESaISA_ENSt8__detail10_Select1stESt8equal_toIS5_ESt4hashIS5_ENSC_18_Mod_range_hashingENSC_20_Default_ranged_hashENSC_20_Prime_rehash_policyENSC_17_Hashtable_traitsILb1ELb0ELb1EEEE21_M_deallocate_bucketsEv
FN:1588,_ZNSt10_HashtableINSt7__cxx1112basic_stringIcSt11char_traitsIcESaIcEEESt4pairIKS5_N2sf11SoundBufferEESaISA_ENSt8__detail10_Select1stESt8equal_toIS5_ESt4hashIS5_ENSC_18_Mod_range_hashingENSC_20_Default_ranged_hashENSC_20_Prime_rehash_policyENSC_17_Hashtable_traitsILb1ELb0ELb1EEEE4findERS7_
FNDA:15,_ZNSt10_HashtableINSt7__cxx1112basic_stringIcSt11char_traitsIcESaIcEEESt4pairIKS5_N2sf11SoundBufferEESaISA_ENSt8__detail10_Select1stESt8equal_toIS5_ESt4hashIS5_ENSC_18_Mod_range_hashingENSC_20_Default_ranged_hashENSC_20_Prime_rehash_policyENSC_17_Hashtable_traitsILb1ELb0ELb1EEEE4findERS7_
FN:1827,_ZNKSt10_HashtableINSt7__cxx1112basic_stringIcSt11char_traitsIcESaIcEEESt4pairIKS5_N2sf11SoundBufferEESaISA_ENSt8__detail10_Select1stESt8equal_toIS5_ESt4hashIS5_ENSC_18_Mod_range_hashingENSC_20_Default_ranged_hashENSC_20_Prime_rehash_policyENSC_17_Hashtable_traitsILb1ELb0ELb1EEEE19_M_find_before_nodeEmRS7_m
FNDA:20,_ZNKSt10_HashtableINSt7__cxx1112basic_stringIcSt11char_traitsIcESaIcEEESt4pairIKS5_N2sf11SoundBufferEESaISA_ENSt8__detail10_Select1stESt8equal_toIS5_ESt4hashIS5_ENSC_18_Mod_range_hashingENSC_20_Default_ranged_hashENSC_20_Prime_rehash_policyENSC_17_Hashtable_traitsILb1ELb0ELb1EEEE19_M_find_before_nodeEmRS7_m
FN:1886,_ZNSt10_HashtableINSt7__cxx1112basic_stringIcSt11char_traitsIcESaIcEEESt4pairIKS5_N2sf11SoundBufferEESaISA_ENSt8__detail10_Select1stESt8equal_toIS5_ESt4hashIS5_ENSC_18_Mod_range_hashingENSC_20_Default_ranged_hashENSC_20_Prime_rehash_policyENSC_17_Hashtable_traitsILb1ELb0ELb1EEEE22_M_insert_bucket_beginEmPNSC_10_Hash_nodeISA_Lb1EEE
FNDA:5,_ZNSt10_HashtableINSt7__cxx1112basic_stringIcSt11char_traitsIcESaIcEEESt4pairIKS5_N2sf11SoundBufferEESaISA_ENSt8__detail10_Select1stESt8equal_toIS5_ESt4hashIS5_ENSC_18_Mod_range_hashingENSC_20_Default_ranged_hashENSC_20_Prime_rehash_policyENSC_17_Hashtable_traitsILb1ELb0ELb1EEEE22_M_insert_bucket_beginEmPNSC_10_Hash_nodeISA_Lb1EEE
FN:2008,_ZNSt10_HashtableINSt7__cxx1112basic_stringIcSt11char_traitsIcESaIcEEESt4pairIKS5_N2sf11SoundBufferEESaISA_ENSt8__detail10_Select1stESt8equal_toIS5_ESt4hashIS5_ENSC_18_Mod_range_hashingENSC_20_Default_ranged_hashENSC_20_Prime_rehash_policyENSC_17_Hashtable_traitsILb1ELb0ELb1EEEE21_M_insert_unique_nodeEmmPNSC_10_Hash_nodeISA_Lb1EEEm
FNDA:5,_ZNSt10_HashtableINSt7__cxx1112basic_stringIcSt11char_traitsIcESaIcEEESt4pairIKS5_N2sf11SoundBufferEESaISA_ENSt8__detail10_Select1stESt8equal_toIS5_ESt4hashIS5_ENSC_18_Mod_range_hashingENSC_20_Default_ranged_hashENSC_20_Prime_rehash_policyENSC_17_Hashtable_traitsILb1ELb0ELb1EEEE21_M_insert_unique_nodeEmmPNSC_10_Hash_nodeISA_Lb1EEEm
FN:2355,_ZNSt10_HashtableINSt7__cxx1112basic_stringIcSt11char_traitsIcESaIcEEESt4pairIKS5_N2sf11SoundBufferEESaISA_ENSt8__detail10_Select1stESt8equal_toIS5_ESt4hashIS5_ENSC_18_Mod_range_hashingENSC_20_Default_ranged_hashENSC_20_Prime_rehash_policyENSC_17_Hashtable_traitsILb1ELb0ELb1EEEE9_M_rehashEmRKm
FNDA:5,_ZNSt10_HashtableINSt7__cxx1112basic_stringIcSt11char_traitsIcESaIcEEESt4pairIKS5_N2sf11SoundBufferEESaISA_ENSt8__detail10_Select1stESt8equal_toIS5_ESt4hashIS5_ENSC_18_Mod_range_hashingENSC_20_Default_ranged_hashENSC_20_Prime_rehash_policyENSC_17_Hashtable_traitsILb1ELb0ELb1EEEE9_M_rehashEmRKm
FN:2378,_ZNSt10_HashtableINSt7__cxx1112basic_stringIcSt11char_traitsIcESaIcEEESt4pairIKS5_N2sf11SoundBufferEESaISA_ENSt8__detail10_Select1stESt8equal_toIS5_ESt4hashIS5_ENSC_18_Mod_range_hashingENSC_20_Default_ranged_hashENSC_20_Prime_rehash_policyENSC_17_Hashtable_traitsILb1ELb0ELb1EEEE13_M_rehash_auxEmSt17integral_constantIbLb1EE
FNDA:5,_ZNSt10_HashtableINSt7__cxx1112basic_stringIcSt11char_traitsIcESaIcEEESt4pairIKS5_N2sf11SoundBufferEESaISA_ENSt8__detail10_Select1stESt8equal_toIS5_ESt4hashIS5_ENSC_18_Mod_range_hashingENSC_20_Default_ranged_hashENSC_20_Prime_rehash_policyENSC_17_Hashtable_traitsILb1ELb0ELb1EEEE13_M_rehash_auxEmSt17integral_constantIbLb1EE
DA:302,5
DA:303,5
DA:304,5
DA:308,5
DA:421,5
DA:422,5
DA:432,5
DA:434,5
DA:436,0
DA:437,0
DA:440,5
DA:444,5
DA:446,5
DA:449,0
DA:453,5
DA:454,5
DA:462,5
DA:463,5
DA:629,10
DA:630,10
DA:790,0
DA:791,0
DA:794,25
DA:795,10
DA:807,20
DA:810,5
DA:811,20
DA:812,5
DA:1588,15
DA:1593,15
DA:1594,15
DA:1595,15
DA:1827,20
DA:1833,20
DA:1834,20
DA:1837,5
DA:1840,5
DA:1843,0
DA:1886,5
DA:1890,5
DA:1894,0
DA:1895,0
DA:1902,5
DA:1903,5
DA:1905,5
DA:1908,0
DA:1910,5
DA:1912,5
DA:2008,5
DA:2014,5
DA:2016,5
DA:2019,5
DA:2021,5
DA:2022,5
DA:2025,5
DA:2028,5
DA:2029,5
DA:2030,5
DA:2355,5
DA:2361,5
DA:2363,0
DA:2367,0
DA:2368,0
DA:2370,5
DA:2378,5
DA:2382,5
DA:2383,5
DA:2384,5
DA:2385,5
DA:2386,5
DA:2388,0
DA:2390,0
DA:2391,0
DA:2393,0
DA:2394,0
DA:2395,0
DA:2396,0
DA:2397,0
DA:2402,0
DA:2403,0
DA:2409,5
DA:2410,5
DA:2411,5
DA:2412,5
end_of_record
SF:/usr/include/c++/11/iostream
end_of_record
SF:/usr/include/c++/11/bits/move.h
DA:77,10
DA:104,10
end_of_record
TN:
SF:/mnt/c/users/gabci/desktop/nhf2/src/terrain_tiles/Tile.cpp
FN:4,_ZN5tiles4Tile10setTextureERKNSt7__cxx1112basic_stringIcSt11char_traitsIcESaIcEEE
FNDA:32003,_ZN5tiles4Tile10setTextureERKNSt7__cxx1112basic_stringIcSt11char_traitsIcESaIcEEE
FN:15,_ZN5tiles4Tile11setPositionEdd
FNDA:6510,_ZN5tiles4Tile11setPositionEdd
FN:19,_ZN5tiles4Tile4drawERN2sf12RenderWindowE
FNDA:6510,_ZN5tiles4Tile4drawERN2sf12RenderWindowE
FN:23,_ZN5tiles4Tile4initENS_8TILETYPEE
FNDA:32003,_ZN5tiles4Tile4initENS_8TILETYPEE
FN:40,_ZNK5tiles4Tile8get_typeEv
FNDA:1382,_ZNK5tiles4Tile8get_typeEv
DA:4,32003
DA:5,32003
DA:7,32003
DA:11,32003
DA:12,32003
DA:15,6510
DA:16,6510
DA:17,6510
DA:19,6510
DA:20,6510
DA:21,6510
DA:23,32003
DA:24,32003
DA:25,32003
DA:26,17672
DA:27,17672
DA:28,17672
DA:29,4511
DA:30,4511
DA:31,4511
DA:32,9820
DA:33,9820
DA:34,9820
DA:38,32003
DA:40,1382
DA:41,1382
end_of_record
SF:/usr/include/c++/11/ext/new_allocator.h
DA:79,32003
DA:82,32003
DA:89,32003
end_of_record
SF:/mnt/c/users/gabci/desktop/nhf2/src/Textureable.h
end_of_record
SF:/usr/include/c++/11/bits/basic_string.tcc
FN:206,_ZNSt7__cxx1112basic_stringIcSt11char_traitsIcESaIcEE12_M_constructIPKcEEvT_S8_St20forward_iterator_tag
FNDA:0,_ZNSt7__cxx1112basic_stringIcSt11char_traitsIcESaIcEE12_M_constructIPKcEEvT_S8_St20forward_iterator_tag
DA:206,0
DA:211,0
DA:212,0
DA:215,0
DA:217,0
DA:219,0
DA:220,0
DA:225,0
DA:232,0
DA:233,0
end_of_record
SF:/usr/include/c++/11/bits/char_traits.h
DA:356,0
DA:357,0
DA:393,32003
DA:396,32003
DA:399,32003
end_of_record
SF:/mnt/c/users/gabci/desktop/nhf2/src/terrain_tiles/Tile.h
end_of_record
SF:/usr/include/c++/11/bits/stl_iterator_base_funcs.h
DA:98,0
DA:104,0
DA:138,0
DA:141,0
end_of_record
SF:/usr/include/c++/11/iostream
end_of_record
SF:/usr/include/c++/11/bits/basic_string.h
FN:533,_ZNSt7__cxx1112basic_stringIcSt11char_traitsIcESaIcEEC2IS3_EEPKcRKS3_
FNDA:32003,_ZNSt7__cxx1112basic_stringIcSt11char_traitsIcESaIcEEC2IS3_EEPKcRKS3_
DA:158,32003
DA:164,32003
DA:165,32003
DA:186,0
DA:187,0
DA:190,0
DA:191,0
DA:194,0
DA:195,0
DA:198,32003
DA:201,32003
DA:218,0
DA:219,0
DA:222,0
DA:224,0
DA:225,0
DA:404,0
DA:406,0
DA:533,32003
DA:534,32003
DA:536,32003
DA:539,32003
DA:540,32003
DA:671,32003
DA:672,32003
end_of_record
SF:/usr/include/c++/11/bits/allocator.h
DA:156,32003
DA:159,32003
DA:160,32003
DA:174,32003
end_of_record
TN:
SF:/usr/include/c++/11/bits/basic_string.tcc
FN:206,_ZNSt7__cxx1112basic_stringIcSt11char_traitsIcESaIcEE12_M_constructIPcEEvT_S7_St20forward_iterator_tag
FNDA:0,_ZNSt7__cxx1112basic_stringIcSt11char_traitsIcESaIcEE12_M_constructIPcEEvT_S7_St20forward_iterator_tag
FN:1169,_ZStplIcSt11char_traitsIcESaIcEENSt7__cxx1112basic_stringIT_T0_T1_EEPKS5_RKS8_
FNDA:0,_ZStplIcSt11char_traitsIcESaIcEENSt7__cxx1112basic_stringIT_T0_T1_EEPKS5_RKS8_
DA:206,0
DA:211,0
DA:212,0
DA:215,0
DA:217,0
DA:219,0
DA:220,0
DA:225,0
DA:232,0
DA:233,0
DA:1169,0
DA:1178,0
DA:1179,0
DA:1181,0
DA:1182,0
DA:1183,0
DA:1184,0
DA:1185,0
end_of_record
SF:/mnt/c/users/gabci/desktop/nhf2/src/TextureManager.h
FN:39,_ZN14TextureManagerD2Ev
FNDA:1,_ZN14TextureManagerD2Ev
DA:38,1
DA:39,1
end_of_record
SF:/usr/include/c++/11/bits/locale_facets.h
FN:875,_ZNKSt5ctypeIcE5widenEc
FNDA:3,_ZNKSt5ctypeIcE5widenEc
DA:875,3
DA:877,3
DA:878,3
DA:879,0
DA:880,0
end_of_record
SF:/usr/include/c++/11/bits/hashtable_policy.h
FN:696,_ZNSt8__detail9_Map_baseINSt7__cxx1112basic_stringIcSt11char_traitsIcESaIcEEESt4pairIKS6_N2sf7TextureEESaISB_ENS_10_Select1stESt8equal_toIS6_ESt4hashIS6_ENS_18_Mod_range_hashingENS_20_Default_ranged_hashENS_20_Prime_rehash_policyENS_17_Hashtable_traitsILb1ELb0ELb1EEELb1EEixERS8_
FNDA:357,_ZNSt8__detail9_Map_baseINSt7__cxx1112basic_stringIcSt11char_traitsIcESaIcEEESt4pairIKS6_N2sf7TextureEESaISB_ENS_10_Select1stESt8equal_toIS6_ESt4hashIS6_ENS_18_Mod_range_hashingENS_20_Default_ranged_hashENS_20_Prime_rehash_policyENS_17_Hashtable_traitsILb1ELb0ELb1EEELb1EEixERS8_
FN:1870,_ZNSt8__detail16_Hashtable_allocISaINS_10_Hash_nodeISt4pairIKNSt7__cxx1112basic_stringIcSt11char_traitsIcESaIcEEEN2sf7TextureEELb1EEEEE16_M_allocate_nodeIJRKSt21piecewise_construct_tSt5tupleIJRS9_EESK_IJEEEEEPSD_DpOT_
FNDA:357,_ZNSt8__detail16_Hashtable_allocISaINS_10_Hash_nodeISt4pairIKNSt7__cxx1112basic_stringIcSt11char_traitsIcESaIcEEEN2sf7TextureEELb1EEEEE16_M_allocate_nodeIJRKSt21piecewise_construct_tSt5tupleIJRS9_EESK_IJEEEEEPSD_DpOT_
FN:1892,_ZNSt8__detail16_Hashtable_allocISaINS_10_Hash_nodeISt4pairIKNSt7__cxx1112basic_stringIcSt11char_traitsIcESaIcEEEN2sf7TextureEELb1EEEEE18_M_deallocate_nodeEPSD_
FNDA:357,_ZNSt8__detail16_Hashtable_allocISaINS_10_Hash_nodeISt4pairIKNSt7__cxx1112basic_stringIcSt11char_traitsIcESaIcEEEN2sf7TextureEELb1EEEEE18_M_deallocate_nodeEPSD_
FN:1900,_ZNSt8__detail16_Hashtable_allocISaINS_10_Hash_nodeISt4pairIKNSt7__cxx1112basic_stringIcSt11char_traitsIcESaIcEEEN2sf7TextureEELb1EEEEE22_M_deallocate_node_ptrEPSD_
FNDA:357,_ZNSt8__detail16_Hashtable_allocISaINS_10_Hash_nodeISt4pairIKNSt7__cxx1112basic_stringIcSt11char_traitsIcESaIcEEEN2sf7TextureEELb1EEEEE22_M_deallocate_node_ptrEPSD_
FN:1910,_ZNSt8__detail16_Hashtable_allocISaINS_10_Hash_nodeISt4pairIKNSt7__cxx1112basic_stringIcSt11char_traitsIcESaIcEEEN2sf7TextureEELb1EEEEE19_M_deallocate_nodesEPSD_
FNDA:26,_ZNSt8__detail16_Hashtable_allocISaINS_10_Hash_nodeISt4pairIKNSt7__cxx1112basic_stringIcSt11char_traitsIcESaIcEEEN2sf7TextureEELb1EEEEE19_M_deallocate_nodesEPSD_
FN:1922,_ZNSt8__detail16_Hashtable_allocISaINS_10_Hash_nodeISt4pairIKNSt7__cxx1112basic_stringIcSt11char_traitsIcESaIcEEEN2sf7TextureEELb1EEEEE19_M_allocate_bucketsEm
FNDA:3,_ZNSt8__detail16_Hashtable_allocISaINS_10_Hash_nodeISt4pairIKNSt7__cxx1112basic_stringIcSt11char_traitsIcESaIcEEEN2sf7TextureEELb1EEEEE19_M_allocate_bucketsEm
FN:1935,_ZNSt8__detail16_Hashtable_allocISaINS_10_Hash_nodeISt4pairIKNSt7__cxx1112basic_stringIcSt11char_traitsIcESaIcEEEN2sf7TextureEELb1EEEEE21_M_deallocate_bucketsEPPNS_15_Hash_node_baseEm
FNDA:3,_ZNSt8__detail16_Hashtable_allocISaINS_10_Hash_nodeISt4pairIKNSt7__cxx1112basic_stringIcSt11char_traitsIcESaIcEEEN2sf7TextureEELb1EEEEE21_M_deallocate_bucketsEPPNS_15_Hash_node_baseEm
DA:93,32982
DA:95,32982
DA:219,358
DA:237,357
DA:238,34053
DA:242,32982
DA:246,0
DA:277,357
DA:282,399
DA:283,42
DA:295,67035
DA:338,67035
DA:339,33339
DA:346,357
DA:347,32982
DA:428,36805
DA:430,36805
DA:446,1
DA:447,1
DA:473,357
DA:474,357
DA:481,0
DA:482,0
DA:696,357
DA:701,357
DA:702,357
DA:703,357
DA:704,0
DA:705,0
DA:707,357
DA:710,357
DA:711,357
DA:714,357
DA:715,357
DA:716,357
DA:717,357
DA:1124,1
DA:1127,1
DA:1210,1
DA:1215,33696
DA:1219,33696
DA:1232,33699
DA:1233,33699
DA:1247,3106
DA:1251,3106
DA:1263,357
DA:1264,357
DA:1595,35839
DA:1596,35839
DA:1604,1
DA:1611,35839
DA:1617,35839
DA:1802,1
DA:1823,1
DA:1870,357
DA:1873,357
DA:1874,357
DA:1877,357
DA:1878,357
DA:1881,357
DA:1883,0
DA:1885,0
DA:1886,0
DA:1892,357
DA:1894,357
DA:1895,357
DA:1896,357
DA:1900,357
DA:1903,357
DA:1904,357
DA:1905,357
DA:1906,357
DA:1910,26
DA:1912,383
DA:1914,357
DA:1915,357
DA:1916,357
DA:1918,26
DA:1922,3
DA:1925,3
DA:1927,3
DA:1928,3
DA:1929,3
DA:1930,3
DA:1931,3
DA:1935,3
DA:1940,3
DA:1941,3
DA:1942,3
DA:1943,3
end_of_record
SF:/usr/include/c++/11/bits/stl_pair.h
DA:211,357
end_of_record
SF:/usr/include/c++/11/bits/char_traits.h
DA:356,0
DA:357,0
DA:372,32982
DA:374,32982
DA:377,32982
DA:389,32982
DA:393,0
DA:396,0
DA:399,0
end_of_record
SF:/usr/include/c++/11/ext/new_allocator.h
FN:103,_ZN9__gnu_cxx13new_allocatorIPNSt8__detail15_Hash_node_baseEE8allocateEmPKv
FNDA:3,_ZN9__gnu_cxx13new_allocatorIPNSt8__detail15_Hash_node_baseEE8allocateEmPKv
FN:103,_ZN9__gnu_cxx13new_allocatorINSt8__detail10_Hash_nodeISt4pairIKNSt7__cxx1112basic_stringIcSt11char_traitsIcESaIcEEEN2sf7TextureEELb1EEEE8allocateEmPKv
FNDA:357,_ZN9__gnu_cxx13new_allocatorINSt8__detail10_Hash_nodeISt4pairIKNSt7__cxx1112basic_stringIcSt11char_traitsIcESaIcEEEN2sf7TextureEELb1EEEE8allocateEmPKv
FN:160,_ZN9__gnu_cxx13new_allocatorINSt8__detail10_Hash_nodeISt4pairIKNSt7__cxx1112basic_stringIcSt11char_traitsIcESaIcEEEN2sf7TextureEELb1EEEE9constructISD_JRKSt21piecewise_construct_tSt5tupleIJRSA_EESK_IJEEEEEvPT_DpOT0_
FNDA:357,_ZN9__gnu_cxx13new_allocatorINSt8__detail10_Hash_nodeISt4pairIKNSt7__cxx1112basic_stringIcSt11char_traitsIcESaIcEEEN2sf7TextureEELb1EEEE9constructISD_JRKSt21piecewise_construct_tSt5tupleIJRSA_EESK_IJEEEEEvPT_DpOT0_
DA:79,7
DA:82,0
DA:89,357
DA:103,3
DA:111,3
DA:115,0
DA:116,0
DA:117,0
DA:127,3
DA:103,357
DA:111,357
DA:115,0
DA:116,0
DA:117,0
DA:127,357
DA:132,360
DA:145,360
DA:160,357
DA:162,357
DA:166,357
DA:168,357
end_of_record
SF:/mnt/c/users/gabci/desktop/nhf2/src/TextureManager.cpp
FN:3,_ZN14TextureManager11getInstanceEv
FNDA:33364,_ZN14TextureManager11getInstanceEv
FN:8,_ZN14TextureManager11loadTextureERKNSt7__cxx1112basic_stringIcSt11char_traitsIcESaIcEEE
FNDA:33339,_ZN14TextureManager11loadTextureERKNSt7__cxx1112basic_stringIcSt11char_traitsIcESaIcEEE
FN:22,_ZN14TextureManager10getTextureERKNSt7__cxx1112basic_stringIcSt11char_traitsIcESaIcEEE
FNDA:0,_ZN14TextureManager10getTextureERKNSt7__cxx1112basic_stringIcSt11char_traitsIcESaIcEEE
FN:38,_ZN14TextureManager5clearEv
FNDA:25,_ZN14TextureManager5clearEv
DA:3,33364
DA:4,33364
DA:5,33364
DA:8,33339
DA:9,33339
DA:10,33339
DA:11,32982
DA:14,357
DA:15,357
DA:16,3
DA:17,3
DA:22,0
DA:24,0
DA:25,0
DA:26,0
DA:27,0
DA:28,0
DA:31,0
DA:34,0
DA:35,0
DA:38,25
DA:39,25
DA:40,25
end_of_record
SF:/usr/include/c++/11/ext/aligned_buffer.h
DA:102,357
DA:104,714
DA:110,32982
DA:114,357
DA:115,34053
end_of_record
SF:/usr/include/c++/11/bits/unordered_map.h
DA:102,1
DA:141,1
DA:347,33339
DA:348,33339
DA:790,25
DA:791,25
DA:868,33339
DA:869,33339
DA:979,357
DA:980,357
end_of_record
SF:/usr/include/c++/11/ext/alloc_traits.h
DA:97,0
DA:98,0
end_of_record
SF:/usr/include/c++/11/utility
DA:188,32982
DA:189,32982
DA:233,32982
DA:234,32982
end_of_record
SF:/usr/include/c++/11/bits/basic_string.h
FN:6234,_ZSteqIcEN9__gnu_cxx11__enable_ifIXsrSt9__is_charIT_E7__valueEbE6__typeERKNSt7__cxx1112basic_stringIS3_St11char_traitsIS3_ESaIS3_EEESE_
FNDA:32982,_ZSteqIcEN9__gnu_cxx11__enable_ifIXsrSt9__is_charIT_E7__valueEbE6__typeERKNSt7__cxx1112basic_stringIS3_St11char_traitsIS3_ESaIS3_EEESE_
DA:158,357
DA:164,0
DA:165,0
DA:186,0
DA:187,0
DA:190,0
DA:191,0
DA:194,66681
DA:195,0
DA:198,0
DA:201,0
DA:218,0
DA:219,0
DA:222,0
DA:224,0
DA:225,0
DA:299,0
DA:400,0
DA:401,0
DA:448,0
DA:449,0
DA:450,0
DA:671,0
DA:672,357
DA:920,32985
DA:921,0
DA:926,33696
DA:927,33696
DA:1213,0
DA:1214,0
DA:2332,66681
DA:2333,66681
DA:2351,0
DA:2352,0
DA:6234,32982
DA:6236,32982
DA:6237,32982
DA:6238,32982
DA:6531,3
DA:6536,3
DA:6875,33696
DA:6876,33696
end_of_record
SF:/usr/include/c++/11/bits/allocator.h
DA:156,1
DA:159,0
DA:160,0
DA:169,6
DA:174,357
end_of_record
SF:/usr/include/c++/11/ostream
DA:108,3
DA:113,3
end_of_record
SF:/usr/include/c++/11/bits/stl_function.h
DA:369,32982
DA:370,32982
end_of_record
SF:/usr/include/c++/11/bits/stl_iterator_base_funcs.h
DA:98,0
DA:104,0
DA:138,0
DA:141,0
end_of_record
SF:/usr/include/c++/11/bits/functional_hash.h
DA:196,33696
DA:198,33696
end_of_record
SF:/usr/include/c++/11/bits/alloc_traits.h
DA:463,360
DA:464,360
DA:495,360
DA:496,0
DA:511,357
DA:516,357
DA:520,357
DA:531,357
DA:535,357
DA:562,0
DA:563,0
end_of_record
SF:/usr/include/c++/11/tuple
FN:1816,_ZNSt4pairIKNSt7__cxx1112basic_stringIcSt11char_traitsIcESaIcEEEN2sf7TextureEEC2IJRS6_EJLm0EEJEJEEERSt5tupleIJDpT_EERSC_IJDpT1_EESt12_Index_tupleIJXspT0_EEESL_IJXspT2_EEE
FNDA:357,_ZNSt4pairIKNSt7__cxx1112basic_stringIcSt11char_traitsIcESaIcEEEN2sf7TextureEEC2IJRS6_EJLm0EEJEJEEERSt5tupleIJDpT_EERSC_IJDpT1_EESt12_Index_tupleIJXspT0_EEESL_IJXspT2_EEE
DA:192,357
DA:193,357
DA:233,357
DA:424,357
DA:434,357
DA:435,357
DA:454,357
DA:456,357
DA:727,357
DA:729,357
DA:756,357
DA:1377,357
DA:1378,357
DA:1393,357
DA:1394,357
DA:1804,357
DA:1809,357
DA:1816,357
DA:1819,357
DA:1820,357
DA:1821,357
end_of_record
SF:/usr/include/c++/11/bits/move.h
DA:77,714
end_of_record
SF:/usr/include/c++/11/iostream
end_of_record
SF:/usr/include/c++/11/bits/hashtable.h
FN:308,_ZNSt10_HashtableINSt7__cxx1112basic_stringIcSt11char_traitsIcESaIcEEESt4pairIKS5_N2sf7TextureEESaISA_ENSt8__detail10_Select1stESt8equal_toIS5_ESt4hashIS5_ENSC_18_Mod_range_hashingENSC_20_Default_ranged_hashENSC_20_Prime_rehash_policyENSC_17_Hashtable_traitsILb1ELb0ELb1EEEE12_Scoped_nodeD2Ev
FNDA:357,_ZNSt10_HashtableINSt7__cxx1112basic_stringIcSt11char_traitsIcESaIcEEESt4pairIKS5_N2sf7TextureEESaISA_ENSt8__detail10_Select1stESt8equal_toIS5_ESt4hashIS5_ENSC_18_Mod_range_hashingENSC_20_Default_ranged_hashENSC_20_Prime_rehash_policyENSC_17_Hashtable_traitsILb1ELb0ELb1EEEE12_Scoped_nodeD2Ev
FN:453,_ZNSt10_HashtableINSt7__cxx1112basic_stringIcSt11char_traitsIcESaIcEEESt4pairIKS5_N2sf7TextureEESaISA_ENSt8__detail10_Select1stESt8equal_toIS5_ESt4hashIS5_ENSC_18_Mod_range_hashingENSC_20_Default_ranged_hashENSC_20_Prime_rehash_policyENSC_17_Hashtable_traitsILb1ELb0ELb1EEEE21_M_deallocate_bucketsEv
FNDA:4,_ZNSt10_HashtableINSt7__cxx1112basic_stringIcSt11char_traitsIcESaIcEEESt4pairIKS5_N2sf7TextureEESaISA_ENSt8__detail10_Select1stESt8equal_toIS5_ESt4hashIS5_ENSC_18_Mod_range_hashingENSC_20_Default_ranged_hashENSC_20_Prime_rehash_policyENSC_17_Hashtable_traitsILb1ELb0ELb1EEEE21_M_deallocate_bucketsEv
FN:1528,_ZNSt10_HashtableINSt7__cxx1112basic_stringIcSt11char_traitsIcESaIcEEESt4pairIKS5_N2sf7TextureEESaISA_ENSt8__detail10_Select1stESt8equal_toIS5_ESt4hashIS5_ENSC_18_Mod_range_hashingENSC_20_Default_ranged_hashENSC_20_Prime_rehash_policyENSC_17_Hashtable_traitsILb1ELb0ELb1EEEED2Ev
FNDA:1,_ZNSt10_HashtableINSt7__cxx1112basic_stringIcSt11char_traitsIcESaIcEEESt4pairIKS5_N2sf7TextureEESaISA_ENSt8__detail10_Select1stESt8equal_toIS5_ESt4hashIS5_ENSC_18_Mod_range_hashingENSC_20_Default_ranged_hashENSC_20_Prime_rehash_policyENSC_17_Hashtable_traitsILb1ELb0ELb1EEEED2Ev
FN:1588,_ZNSt10_HashtableINSt7__cxx1112basic_stringIcSt11char_traitsIcESaIcEEESt4pairIKS5_N2sf7TextureEESaISA_ENSt8__detail10_Select1stESt8equal_toIS5_ESt4hashIS5_ENSC_18_Mod_range_hashingENSC_20_Default_ranged_hashENSC_20_Prime_rehash_policyENSC_17_Hashtable_traitsILb1ELb0ELb1EEEE4findERS7_
FNDA:33339,_ZNSt10_HashtableINSt7__cxx1112basic_stringIcSt11char_traitsIcESaIcEEESt4pairIKS5_N2sf7TextureEESaISA_ENSt8__detail10_Select1stESt8equal_toIS5_ESt4hashIS5_ENSC_18_Mod_range_hashingENSC_20_Default_ranged_hashENSC_20_Prime_rehash_policyENSC_17_Hashtable_traitsILb1ELb0ELb1EEEE4findERS7_
FN:1827,_ZNKSt10_HashtableINSt7__cxx1112basic_stringIcSt11char_traitsIcESaIcEEESt4pairIKS5_N2sf7TextureEESaISA_ENSt8__detail10_Select1stESt8equal_toIS5_ESt4hashIS5_ENSC_18_Mod_range_hashingENSC_20_Default_ranged_hashENSC_20_Prime_rehash_policyENSC_17_Hashtable_traitsILb1ELb0ELb1EEEE19_M_find_before_nodeEmRS7_m
FNDA:33696,_ZNKSt10_HashtableINSt7__cxx1112basic_stringIcSt11char_traitsIcESaIcEEESt4pairIKS5_N2sf7TextureEESaISA_ENSt8__detail10_Select1stESt8equal_toIS5_ESt4hashIS5_ENSC_18_Mod_range_hashingENSC_20_Default_ranged_hashENSC_20_Prime_rehash_policyENSC_17_Hashtable_traitsILb1ELb0ELb1EEEE19_M_find_before_nodeEmRS7_m
FN:1886,_ZNSt10_HashtableINSt7__cxx1112basic_stringIcSt11char_traitsIcESaIcEEESt4pairIKS5_N2sf7TextureEESaISA_ENSt8__detail10_Select1stESt8equal_toIS5_ESt4hashIS5_ENSC_18_Mod_range_hashingENSC_20_Default_ranged_hashENSC_20_Prime_rehash_policyENSC_17_Hashtable_traitsILb1ELb0ELb1EEEE22_M_insert_bucket_beginEmPNSC_10_Hash_nodeISA_Lb1EEE
FNDA:357,_ZNSt10_HashtableINSt7__cxx1112basic_stringIcSt11char_traitsIcESaIcEEESt4pairIKS5_N2sf7TextureEESaISA_ENSt8__detail10_Select1stESt8equal_toIS5_ESt4hashIS5_ENSC_18_Mod_range_hashingENSC_20_Default_ranged_hashENSC_20_Prime_rehash_policyENSC_17_Hashtable_traitsILb1ELb0ELb1EEEE22_M_insert_bucket_beginEmPNSC_10_Hash_nodeISA_Lb1EEE
FN:2008,_ZNSt10_HashtableINSt7__cxx1112basic_stringIcSt11char_traitsIcESaIcEEESt4pairIKS5_N2sf7TextureEESaISA_ENSt8__detail10_Select1stESt8equal_toIS5_ESt4hashIS5_ENSC_18_Mod_range_hashingENSC_20_Default_ranged_hashENSC_20_Prime_rehash_policyENSC_17_Hashtable_traitsILb1ELb0ELb1EEEE21_M_insert_unique_nodeEmmPNSC_10_Hash_nodeISA_Lb1EEEm
FNDA:357,_ZNSt10_HashtableINSt7__cxx1112basic_stringIcSt11char_traitsIcESaIcEEESt4pairIKS5_N2sf7TextureEESaISA_ENSt8__detail10_Select1stESt8equal_toIS5_ESt4hashIS5_ENSC_18_Mod_range_hashingENSC_20_Default_ranged_hashENSC_20_Prime_rehash_policyENSC_17_Hashtable_traitsILb1ELb0ELb1EEEE21_M_insert_unique_nodeEmmPNSC_10_Hash_nodeISA_Lb1EEEm
FN:2316,_ZNSt10_HashtableINSt7__cxx1112basic_stringIcSt11char_traitsIcESaIcEEESt4pairIKS5_N2sf7TextureEESaISA_ENSt8__detail10_Select1stESt8equal_toIS5_ESt4hashIS5_ENSC_18_Mod_range_hashingENSC_20_Default_ranged_hashENSC_20_Prime_rehash_policyENSC_17_Hashtable_traitsILb1ELb0ELb1EEEE5clearEv
FNDA:26,_ZNSt10_HashtableINSt7__cxx1112basic_stringIcSt11char_traitsIcESaIcEEESt4pairIKS5_N2sf7TextureEESaISA_ENSt8__detail10_Select1stESt8equal_toIS5_ESt4hashIS5_ENSC_18_Mod_range_hashingENSC_20_Default_ranged_hashENSC_20_Prime_rehash_policyENSC_17_Hashtable_traitsILb1ELb0ELb1EEEE5clearEv
FN:2355,_ZNSt10_HashtableINSt7__cxx1112basic_stringIcSt11char_traitsIcESaIcEEESt4pairIKS5_N2sf7TextureEESaISA_ENSt8__detail10_Select1stESt8equal_toIS5_ESt4hashIS5_ENSC_18_Mod_range_hashingENSC_20_Default_ranged_hashENSC_20_Prime_rehash_policyENSC_17_Hashtable_traitsILb1ELb0ELb1EEEE9_M_rehashEmRKm
FNDA:3,_ZNSt10_HashtableINSt7__cxx1112basic_stringIcSt11char_traitsIcESaIcEEESt4pairIKS5_N2sf7TextureEESaISA_ENSt8__detail10_Select1stESt8equal_toIS5_ESt4hashIS5_ENSC_18_Mod_range_hashingENSC_20_Default_ranged_hashENSC_20_Prime_rehash_policyENSC_17_Hashtable_traitsILb1ELb0ELb1EEEE9_M_rehashEmRKm
FN:2378,_ZNSt10_HashtableINSt7__cxx1112basic_stringIcSt11char_traitsIcESaIcEEESt4pairIKS5_N2sf7TextureEESaISA_ENSt8__detail10_Select1stESt8equal_toIS5_ESt4hashIS5_ENSC_18_Mod_range_hashingENSC_20_Default_ranged_hashENSC_20_Prime_rehash_policyENSC_17_Hashtable_traitsILb1ELb0ELb1EEEE13_M_rehash_auxEmSt17integral_constantIbLb1EE
FNDA:3,_ZNSt10_HashtableINSt7__cxx1112basic_stringIcSt11char_traitsIcESaIcEEESt4pairIKS5_N2sf7TextureEESaISA_ENSt8__detail10_Select1stESt8equal_toIS5_ESt4hashIS5_ENSC_18_Mod_range_hashingENSC_20_Default_ranged_hashENSC_20_Prime_rehash_policyENSC_17_Hashtable_traitsILb1ELb0ELb1EEEE13_M_rehash_auxEmSt17integral_constantIbLb1EE
DA:302,357
DA:303,357
DA:304,357
DA:308,357
DA:421,4
DA:422,4
DA:432,3
DA:434,3
DA:436,0
DA:437,0
DA:440,3
DA:444,4
DA:446,4
DA:449,3
DA:453,4
DA:454,4
DA:462,29
DA:463,29
DA:528,1
DA:629,33339
DA:630,33339
DA:790,3064
DA:791,3064
DA:794,33699
DA:795,360
DA:807,33696
DA:810,357
DA:811,33696
DA:812,32982
DA:1528,1
DA:1532,1
DA:1533,1
DA:1534,1
DA:1588,33339
DA:1593,33339
DA:1594,33339
DA:1595,33339
DA:1827,33696
DA:1833,33696
DA:1834,33696
DA:1837,33138
DA:1840,35839
DA:1843,2857
DA:1886,357
DA:1890,357
DA:1894,78
DA:1895,78
DA:1902,279
DA:1903,279
DA:1905,279
DA:1908,253
DA:1910,279
DA:1912,357
DA:2008,357
DA:2014,357
DA:2016,357
DA:2019,357
DA:2021,3
DA:2022,3
DA:2025,357
DA:2028,357
DA:2029,357
DA:2030,357
DA:2316,26
DA:2320,26
DA:2321,26
DA:2322,26
DA:2323,26
DA:2324,26
DA:2325,26
DA:2355,3
DA:2361,3
DA:2363,0
DA:2367,0
DA:2368,0
DA:2370,3
DA:2378,3
DA:2382,3
DA:2383,3
DA:2384,3
DA:2385,3
DA:2386,45
DA:2388,42
DA:2390,42
DA:2391,42
DA:2393,33
DA:2394,33
DA:2395,33
DA:2396,33
DA:2397,31
DA:2402,9
DA:2403,9
DA:2409,3
DA:2410,3
DA:2411,3
DA:2412,3
end_of_record
TN:
SF:/usr/include/c++/11/bits/std_function.h
FN:241,_ZNSt14_Function_baseD2Ev
FNDA:13,_ZNSt14_Function_baseD2Ev
FN:386,_ZNSt8functionIFvvEEC2ERKS1_
FNDA:13,_ZNSt8functionIFvvEEC2ERKS1_
FN:469,_ZNSt8functionIFvvEEaSERKS1_
FNDA:13,_ZNSt8functionIFvvEEaSERKS1_
FN:586,_ZNKSt8functionIFvvEEclEv
FNDA:1,_ZNKSt8functionIFvvEEclEv
DA:239,28
DA:241,13
DA:243,13
DA:244,0
DA:245,13
DA:247,15
DA:334,0
DA:375,15
DA:376,15
DA:386,13
DA:387,13
DA:389,13
DA:391,13
DA:392,13
DA:393,13
DA:395,13
DA:469,13
DA:471,13
DA:472,13
DA:555,13
DA:557,13
DA:558,13
DA:559,13
DA:572,14
DA:573,14
DA:586,1
DA:588,1
DA:589,0
DA:590,1
end_of_record
SF:/usr/include/c++/11/iostream
end_of_record
SF:/usr/include/c++/11/bits/move.h
DA:196,13
DA:204,13
DA:205,13
DA:206,13
end_of_record
SF:/mnt/c/users/gabci/desktop/nhf2/src/ui/button.h
end_of_record
SF:/mnt/c/users/gabci/desktop/nhf2/src/Textureable.h
DA:26,15
end_of_record
SF:/mnt/c/users/gabci/desktop/nhf2/src/ui/button.cpp
FN:4,_ZN2ui6ButtonC2EiiiiRKNSt7__cxx1112basic_stringIcSt11char_traitsIcESaIcEEE
FNDA:15,_ZN2ui6ButtonC2EiiiiRKNSt7__cxx1112basic_stringIcSt11char_traitsIcESaIcEEE
FN:13,_ZN2ui6Button11setCallbackESt8functionIFvvEE
FNDA:13,_ZN2ui6Button11setCallbackESt8functionIFvvEE
FN:17,_ZN2ui6Button19try_hover_animationEii
FNDA:61,_ZN2ui6Button19try_hover_animationEii
FN:25,_ZN2ui6Button7onClickEb
FNDA:61,_ZN2ui6Button7onClickEb
FN:36,_ZN2ui6Button10setTextureERKNSt7__cxx1112basic_stringIcSt11char_traitsIcESaIcEEE
FNDA:16,_ZN2ui6Button10setTextureERKNSt7__cxx1112basic_stringIcSt11char_traitsIcESaIcEEE
FN:48,_ZN2ui6Button11setPositionEdd
FNDA:16,_ZN2ui6Button11setPositionEdd
FN:53,_ZN2ui6Button4drawERN2sf12RenderWindowE
FNDA:60,_ZN2ui6Button4drawERN2sf12RenderWindowE
DA:4,15
DA:5,15
DA:6,15
DA:7,15
DA:9,15
DA:10,15
DA:11,15
DA:13,13
DA:14,13
DA:15,13
DA:17,61
DA:18,61
DA:19,11
DA:21,50
DA:23,61
DA:25,61
DA:26,61
DA:27,1
DA:28,1
DA:29,1
DA:32,60
DA:34,61
DA:36,16
DA:38,16
DA:40,16
DA:44,16
DA:46,16
DA:48,16
DA:49,16
DA:50,14
DA:52,16
DA:53,60
DA:54,60
DA:55,10
DA:56,10
DA:57,10
DA:59,10
DA:60,10
DA:62,50
DA:64,60
DA:65,60
end_of_record
TN:
SF:/usr/include/c++/11/ostream
DA:108,17
DA:113,17
end_of_record
SF:/mnt/c/users/gabci/desktop/nhf2/src/Utils.cpp
FN:5,_Z11distance_todddd
FNDA:82,_Z11distance_todddd
FN:13,_Z8log_textRKNSt7__cxx1112basic_stringIcSt11char_traitsIcESaIcEEES6_
FNDA:292431,_Z8log_textRKNSt7__cxx1112basic_stringIcSt11char_traitsIcESaIcEEES6_
FN:26,_Z9warn_textRKNSt7__cxx1112basic_stringIcSt11char_traitsIcESaIcEEES6_i
FNDA:17,_Z9warn_textRKNSt7__cxx1112basic_stringIcSt11char_traitsIcESaIcEEES6_i
DA:5,82
DA:6,82
DA:7,82
DA:8,82
DA:9,82
DA:13,292431
DA:14,292431
DA:15,0
DA:16,0
DA:18,0
DA:19,0
DA:24,292431
DA:26,17
DA:27,17
DA:28,17
DA:29,0
DA:30,0
DA:32,17
DA:33,17
DA:39,17
end_of_record
SF:/usr/include/c++/11/bits/basic_string.h
DA:194,17
DA:195,17
DA:920,17
DA:921,17
DA:2332,17
DA:2333,17
DA:6531,17
DA:6536,17
end_of_record
SF:/usr/include/c++/11/iostream
end_of_record
SF:/usr/include/c++/11/bits/locale_facets.h
FN:875,_ZNKSt5ctypeIcE5widenEc
FNDA:17,_ZNKSt5ctypeIcE5widenEc
DA:875,17
DA:877,17
DA:878,17
DA:879,0
DA:880,0
end_of_record
TN:
SF:/usr/include/c++/11/bits/stl_algobase.h
FN:527,_ZSt13__copy_move_aILb1EN9__gnu_cxx17__normal_iteratorIPPN8creature5HumanESt6vectorIS4_SaIS4_EEEES9_ET1_T0_SB_SA_
FNDA:0,_ZSt13__copy_move_aILb1EN9__gnu_cxx17__normal_iteratorIPPN8creature5HumanESt6vectorIS4_SaIS4_EEEES9_ET1_T0_SB_SA_
FN:527,_ZSt13__copy_move_aILb1EN9__gnu_cxx17__normal_iteratorIPPN8creature6LivingESt6vectorIS4_SaIS4_EEEES9_ET1_T0_SB_SA_
FNDA:0,_ZSt13__copy_move_aILb1EN9__gnu_cxx17__normal_iteratorIPPN8creature6LivingESt6vectorIS4_SaIS4_EEEES9_ET1_T0_SB_SA_
DA:254,62
DA:259,62
DA:260,59
DA:328,0
DA:329,0
DA:420,0
DA:429,0
DA:430,0
DA:431,0
DA:432,0
DA:486,0
DA:495,0
DA:521,0
DA:522,0
DA:527,0
DA:529,0
DA:532,0
DA:527,0
DA:529,0
DA:532,0
DA:644,0
DA:652,0
end_of_record
SF:/usr/include/c++/11/bits/stl_vector.h
FN:333,_ZNSt12_Vector_baseIPN8minerals5HouseESaIS2_EED2Ev
FNDA:19,_ZNSt12_Vector_baseIPN8minerals5HouseESaIS2_EED2Ev
FN:333,_ZNSt12_Vector_baseIPN8minerals17ResourceStructureESaIS2_EED2Ev
FNDA:19,_ZNSt12_Vector_baseIPN8minerals17ResourceStructureESaIS2_EED2Ev
FN:333,_ZNSt12_Vector_baseIPN8creature5HumanESaIS2_EED2Ev
FNDA:19,_ZNSt12_Vector_baseIPN8creature5HumanESaIS2_EED2Ev
FN:333,_ZNSt12_Vector_baseIPN8creature6LivingESaIS2_EED2Ev
FNDA:19,_ZNSt12_Vector_baseIPN8creature6LivingESaIS2_EED2Ev
FN:1187,_ZNSt6vectorIPN8creature5HumanESaIS2_EE9push_backERKS2_
FNDA:0,_ZNSt6vectorIPN8creature5HumanESaIS2_EE9push_backERKS2_
FN:1187,_ZNSt6vectorIPN8creature6LivingESaIS2_EE9push_backERKS2_
FNDA:0,_ZNSt6vectorIPN8creature6LivingESaIS2_EE9push_backERKS2_
FN:1756,_ZNKSt6vectorIPN8minerals17ResourceStructureESaIS2_EE12_M_check_lenEmPKc
FNDA:0,_ZNKSt6vectorIPN8minerals17ResourceStructureESaIS2_EE12_M_check_lenEmPKc
FN:1756,_ZNKSt6vectorIPN8creature5HumanESaIS2_EE12_M_check_lenEmPKc
FNDA:22,_ZNKSt6vectorIPN8creature5HumanESaIS2_EE12_M_check_lenEmPKc
FN:1756,_ZNKSt6vectorIPN8creature6LivingESaIS2_EE12_M_check_lenEmPKc
FNDA:0,_ZNKSt6vectorIPN8creature6LivingESaIS2_EE12_M_check_lenEmPKc
DA:128,76
DA:276,76
DA:277,22
DA:333,19
DA:335,38
DA:336,19
DA:337,19
DA:333,19
DA:335,38
DA:336,19
DA:337,19
DA:333,19
DA:335,38
DA:336,19
DA:337,19
DA:333,19
DA:335,38
DA:336,19
DA:337,19
DA:343,22
DA:346,22
DA:350,98
DA:353,98
DA:354,62
DA:453,44
DA:456,44
DA:465,25
DA:469,22
DA:678,76
DA:680,76
DA:681,19
DA:683,19
DA:811,186
DA:812,186
DA:820,8
DA:821,8
DA:829,922
DA:830,810
DA:838,8
DA:839,8
DA:884,0
DA:885,0
DA:918,115
DA:919,5
DA:924,22
DA:1007,0
DA:1008,0
DA:1043,88
DA:1046,88
DA:1061,5
DA:1064,5
DA:1143,112
DA:1146,112
DA:1187,0
DA:1189,0
DA:1192,0
DA:1194,0
DA:1198,0
DA:1199,0
DA:1187,0
DA:1189,0
DA:1192,0
DA:1194,0
DA:1198,0
DA:1199,0
DA:1203,492
DA:1204,492
DA:1430,0
DA:1431,0
DA:1498,80
DA:1499,80
DA:1756,0
DA:1758,0
DA:1759,0
DA:1761,0
DA:1762,0
DA:1756,22
DA:1758,22
DA:1759,0
DA:1761,22
DA:1762,22
DA:1756,0
DA:1758,0
DA:1759,0
DA:1761,0
DA:1762,0
DA:1792,80
DA:1794,80
DA:1797,62
DA:1798,62
end_of_record
SF:/mnt/c/users/gabci/desktop/nhf2/src/World.cpp
FN:3,_ZN5World17reinitialize_selfEb
FNDA:20,_ZN5World17reinitialize_selfEb
FN:25,_ZN5WorldC2Ev
FNDA:19,_ZN5WorldC2Ev
FN:29,_ZN5WorldD2Ev
FNDA:19,_ZN5WorldD2Ev
FN:29,_ZN5WorldD0Ev
FNDA:2,_ZN5WorldD0Ev
FN:33,_ZN5World10regenerateEv
FNDA:0,_ZN5World10regenerateEv
FN:38,_ZN5World5clearEv
FNDA:20,_ZN5World5clearEv
FN:73,_ZN5World4drawERN2sf12RenderWindowEfii
FNDA:10,_ZN5World4drawERN2sf12RenderWindowEfii
FN:97,_ZN5World12update_worldEf
FNDA:10,_ZN5World12update_worldEf
FN:146,_ZN5World18try_seasonal_cycleEf
FNDA:10,_ZN5World18try_seasonal_cycleEf
FN:177,_ZN5World14populate_worldEv
FNDA:19,_ZN5World14populate_worldEv
FN:205,_ZN5World19spawn_entity_at_posEPN8creature6LivingE
FNDA:0,_ZN5World19spawn_entity_at_posEPN8creature6LivingE
FN:212,_ZN5World11spawn_humanEPN8creature5HumanE
FNDA:0,_ZN5World11spawn_humanEPN8creature5HumanE
FN:220,_ZN5World23try_develop_random_roleERPN8creature5HumanE
FNDA:6,_ZN5World23try_develop_random_roleERPN8creature5HumanE
FN:264,_ZNK5World16get_border_widthEv
FNDA:1,_ZNK5World16get_border_widthEv
FN:267,_ZNK5World17get_border_heightEv
FNDA:1,_ZNK5World17get_border_heightEv
FN:270,_ZN5World16set_border_widthEi
FNDA:2,_ZN5World16set_border_widthEi
FN:278,_ZN5World17set_border_heightEi
FNDA:2,_ZN5World17set_border_heightEi
FN:289,_ZN9WorldBase15spawn_structureIN8minerals9BerryBushEEEvb
FNDA:152,_ZN9WorldBase15spawn_structureIN8minerals9BerryBushEEEvb
FN:289,_ZN9WorldBase15spawn_structureIN8minerals4TreeEEEvb
FNDA:76,_ZN9WorldBase15spawn_structureIN8minerals4TreeEEEvb
FN:289,_ZN9WorldBase15spawn_structureIN8minerals4IronEEEvb
FNDA:76,_ZN9WorldBase15spawn_structureIN8minerals4IronEEEvb
FN:289,_ZN9WorldBase15spawn_structureIN8minerals5StoneEEEvb
FNDA:76,_ZN9WorldBase15spawn_structureIN8minerals5StoneEEEvb
FN:316,_ZN9WorldBase12spawn_entityIN8creature11KillerRobotEEEvN5tiles8TILETYPEERKNSt7__cxx1112basic_stringIcSt11char_traitsIcESaIcEEE
FNDA:0,_ZN9WorldBase12spawn_entityIN8creature11KillerRobotEEEvN5tiles8TILETYPEERKNSt7__cxx1112basic_stringIcSt11char_traitsIcESaIcEEE
FN:316,_ZN9WorldBase12spawn_entityIN8creature4GoatEEEvN5tiles8TILETYPEERKNSt7__cxx1112basic_stringIcSt11char_traitsIcESaIcEEE
FNDA:76,_ZN9WorldBase12spawn_entityIN8creature4GoatEEEvN5tiles8TILETYPEERKNSt7__cxx1112basic_stringIcSt11char_traitsIcESaIcEEE
FN:316,_ZN9WorldBase12spawn_entityIN8creature9CrocodileEEEvN5tiles8TILETYPEERKNSt7__cxx1112basic_stringIcSt11char_traitsIcESaIcEEE
FNDA:6,_ZN9WorldBase12spawn_entityIN8creature9CrocodileEEEvN5tiles8TILETYPEERKNSt7__cxx1112basic_stringIcSt11char_traitsIcESaIcEEE
FN:316,_ZN9WorldBase12spawn_entityIN8creature4BearEEEvN5tiles8TILETYPEERKNSt7__cxx1112basic_stringIcSt11char_traitsIcESaIcEEE
FNDA:6,_ZN9WorldBase12spawn_entityIN8creature4BearEEEvN5tiles8TILETYPEERKNSt7__cxx1112basic_stringIcSt11char_traitsIcESaIcEEE
DA:3,20
DA:4,20
DA:5,20
DA:6,20
DA:7,19
DA:9,20
DA:10,20
DA:12,20
DA:13,20
DA:15,20
DA:16,19
DA:18,19
DA:21,20
DA:22,20
DA:23,20
DA:25,19
DA:26,19
DA:27,19
DA:29,2
DA:31,2
DA:29,19
DA:30,19
DA:31,19
DA:33,0
DA:34,0
DA:35,0
DA:36,0
DA:38,20
DA:39,112
DA:40,92
DA:42,20
DA:43,45
DA:44,25
DA:45,25
DA:49,20
DA:50,20
DA:51,3
DA:52,3
DA:54,22
DA:55,2
DA:57,20
DA:58,420
DA:59,400
DA:61,20
DA:62,20
DA:63,20
DA:64,20
DA:65,20
DA:66,20
DA:67,20
DA:69,20
DA:70,20
DA:71,20
DA:73,10
DA:74,10
DA:76,210
DA:77,200
DA:79,10
DA:80,0
DA:83,10
DA:84,2
DA:86,60
DA:87,50
DA:88,50
DA:90,30
DA:91,20
DA:92,20
DA:95,10
DA:97,10
DA:98,10
DA:100,210
DA:101,200
DA:103,10
DA:104,0
DA:106,10
DA:107,1
DA:110,10
DA:111,50
DA:112,50
DA:113,50
DA:114,0
DA:115,0
DA:117,110
DA:120,10
DA:121,15
DA:122,15
DA:123,15
DA:124,6
DA:126,15
DA:127,0
DA:128,0
DA:130,40
DA:134,10
DA:135,1
DA:136,6
DA:137,5
DA:138,5
DA:143,10
DA:145,10
DA:146,10
DA:147,10
DA:148,10
DA:152,0
DA:154,0
DA:155,0
DA:156,0
DA:158,0
DA:163,0
DA:164,0
DA:165,0
DA:166,0
DA:168,0
DA:169,0
DA:170,0
DA:174,0
DA:177,19
DA:178,95
DA:179,76
DA:180,76
DA:181,76
DA:182,76
DA:183,76
DA:185,152
DA:187,38
DA:188,19
DA:189,6
DA:190,6
DA:191,6
DA:192,6
DA:193,6
DA:194,6
DA:195,7
DA:196,7
DA:197,0
DA:203,19
DA:205,0
DA:206,0
DA:209,0
DA:210,0
DA:212,0
DA:213,0
DA:216,0
DA:217,0
DA:220,6
DA:221,6
DA:222,6
DA:223,6
DA:224,6
DA:225,6
DA:226,6
DA:228,6
DA:229,1
DA:230,1
DA:231,2
DA:233,5
DA:234,5
DA:236,5
DA:237,11
DA:238,8
DA:243,5
DA:244,9
DA:245,6
DA:247,3
DA:248,3
DA:249,6
DA:252,4
DA:253,8
DA:254,24
DA:255,20
DA:258,6
DA:259,4
DA:260,4
DA:262,6
DA:264,1
DA:265,1
DA:267,1
DA:268,1
DA:270,2
DA:271,2
DA:272,2
DA:274,1
DA:277,1
DA:278,2
DA:279,2
DA:280,2
DA:282,1
DA:284,1
DA:289,76
DA:290,76
DA:291,76
DA:292,76
DA:295,238
DA:296,238
DA:298,238
DA:299,238
DA:300,238
DA:301,76
DA:303,0
DA:304,0
DA:307,238
DA:308,238
DA:310,76
DA:311,76
DA:313,76
DA:289,76
DA:290,76
DA:291,76
DA:292,76
DA:295,288
DA:296,288
DA:298,288
DA:299,288
DA:300,288
DA:301,76
DA:303,0
DA:304,0
DA:307,288
DA:308,288
DA:310,76
DA:311,76
DA:313,76
DA:289,76
DA:290,76
DA:291,76
DA:292,76
DA:295,142
DA:296,142
DA:298,142
DA:299,142
DA:300,0
DA:301,0
DA:303,142
DA:304,76
DA:307,142
DA:308,142
DA:310,76
DA:311,76
DA:313,76
DA:289,152
DA:290,152
DA:291,152
DA:292,152
DA:295,279
DA:296,279
DA:298,279
DA:299,279
DA:300,0
DA:301,0
DA:303,279
DA:304,152
DA:307,279
DA:308,279
DA:310,152
DA:311,152
DA:313,152
DA:316,0
DA:317,0
DA:318,0
DA:319,0
DA:322,0
DA:323,0
DA:325,0
DA:326,0
DA:327,0
DA:330,0
DA:331,0
DA:333,0
DA:334,0
DA:335,0
DA:337,0
DA:316,6
DA:317,6
DA:318,6
DA:319,6
DA:322,23
DA:323,23
DA:325,23
DA:326,23
DA:327,6
DA:330,23
DA:331,23
DA:333,6
DA:334,6
DA:335,6
DA:337,6
DA:316,6
DA:317,6
DA:318,6
DA:319,6
DA:322,24
DA:323,24
DA:325,24
DA:326,24
DA:327,6
DA:330,24
DA:331,24
DA:333,6
DA:334,6
DA:335,6
DA:337,6
DA:316,76
DA:317,76
DA:318,76
DA:319,76
DA:322,241
DA:323,241
DA:325,241
DA:326,241
DA:327,76
DA:330,241
DA:331,241
DA:333,76
DA:334,76
DA:335,76
DA:337,76
end_of_record
SF:/usr/include/c++/11/bits/std_function.h
FN:586,_ZNKSt8functionIFPN8creature5HumanEiiNS0_13ENTITY_GENDEREEEclEiiS3_
FNDA:3,_ZNKSt8functionIFPN8creature5HumanEiiNS0_13ENTITY_GENDEREEEclEiiS3_
DA:247,3
DA:586,3
DA:588,3
DA:589,0
DA:590,3
end_of_record
SF:/usr/include/c++/11/bits/vector.tcc
FN:109,_ZNSt6vectorIPN8minerals17ResourceStructureESaIS2_EE12emplace_backIJS2_EEERS2_DpOT_
FNDA:0,_ZNSt6vectorIPN8minerals17ResourceStructureESaIS2_EE12emplace_backIJS2_EEERS2_DpOT_
FN:109,_ZNSt6vectorIPN8creature6LivingESaIS2_EE12emplace_backIJS2_EEERS2_DpOT_
FNDA:88,_ZNSt6vectorIPN8creature6LivingESaIS2_EE12emplace_backIJS2_EEERS2_DpOT_
FN:109,_ZNSt6vectorIPN8creature5HumanESaIS2_EE12emplace_backIJS2_EEERS2_DpOT_
FNDA:24,_ZNSt6vectorIPN8creature5HumanESaIS2_EE12emplace_backIJS2_EEERS2_DpOT_
FN:171,_ZNSt6vectorIPN8creature5HumanESaIS2_EE8_M_eraseEN9__gnu_cxx17__normal_iteratorIPS2_S4_EE
FNDA:0,_ZNSt6vectorIPN8creature5HumanESaIS2_EE8_M_eraseEN9__gnu_cxx17__normal_iteratorIPS2_S4_EE
FN:171,_ZNSt6vectorIPN8creature6LivingESaIS2_EE8_M_eraseEN9__gnu_cxx17__normal_iteratorIPS2_S4_EE
FNDA:0,_ZNSt6vectorIPN8creature6LivingESaIS2_EE8_M_eraseEN9__gnu_cxx17__normal_iteratorIPS2_S4_EE
FN:426,_ZNSt6vectorIPN8minerals17ResourceStructureESaIS2_EE17_M_realloc_insertIJS2_EEEvN9__gnu_cxx17__normal_iteratorIPS2_S4_EEDpOT_
FNDA:0,_ZNSt6vectorIPN8minerals17ResourceStructureESaIS2_EE17_M_realloc_insertIJS2_EEEvN9__gnu_cxx17__normal_iteratorIPS2_S4_EEDpOT_
FN:426,_ZNSt6vectorIPN8creature6LivingESaIS2_EE17_M_realloc_insertIJS2_EEEvN9__gnu_cxx17__normal_iteratorIPS2_S4_EEDpOT_
FNDA:0,_ZNSt6vectorIPN8creature6LivingESaIS2_EE17_M_realloc_insertIJS2_EEEvN9__gnu_cxx17__normal_iteratorIPS2_S4_EEDpOT_
FN:426,_ZNSt6vectorIPN8creature5HumanESaIS2_EE17_M_realloc_insertIJS2_EEEvN9__gnu_cxx17__normal_iteratorIPS2_S4_EEDpOT_
FNDA:22,_ZNSt6vectorIPN8creature5HumanESaIS2_EE17_M_realloc_insertIJS2_EEEvN9__gnu_cxx17__normal_iteratorIPS2_S4_EEDpOT_
FN:426,_ZNSt6vectorIPN8creature5HumanESaIS2_EE17_M_realloc_insertIJRKS2_EEEvN9__gnu_cxx17__normal_iteratorIPS2_S4_EEDpOT_
FNDA:0,_ZNSt6vectorIPN8creature5HumanESaIS2_EE17_M_realloc_insertIJRKS2_EEEvN9__gnu_cxx17__normal_iteratorIPS2_S4_EEDpOT_
FN:426,_ZNSt6vectorIPN8creature6LivingESaIS2_EE17_M_realloc_insertIJRKS2_EEEvN9__gnu_cxx17__normal_iteratorIPS2_S4_EEDpOT_
FNDA:0,_ZNSt6vectorIPN8creature6LivingESaIS2_EE17_M_realloc_insertIJRKS2_EEEvN9__gnu_cxx17__normal_iteratorIPS2_S4_EEDpOT_
DA:109,0
DA:112,0
DA:115,0
DA:117,0
DA:121,0
DA:123,0
DA:109,88
DA:112,88
DA:115,19
DA:117,19
DA:121,69
DA:123,88
DA:109,24
DA:112,24
DA:115,2
DA:117,2
DA:121,22
DA:123,24
DA:171,0
DA:174,0
DA:175,0
DA:176,0
DA:177,0
DA:179,0
DA:171,0
DA:174,0
DA:175,0
DA:176,0
DA:177,0
DA:179,0
DA:426,0
DA:436,0
DA:437,0
DA:438,0
DA:439,0
DA:440,0
DA:441,0
DA:449,0
DA:450,0
DA:456,0
DA:461,0
DA:462,0
DA:464,0
DA:466,0
DA:467,0
DA:500,0
DA:501,0
DA:502,0
DA:503,0
DA:504,0
DA:505,0
DA:426,0
DA:436,0
DA:437,0
DA:438,0
DA:439,0
DA:440,0
DA:441,0
DA:449,0
DA:450,0
DA:456,0
DA:461,0
DA:462,0
DA:464,0
DA:466,0
DA:467,0
DA:500,0
DA:501,0
DA:502,0
DA:503,0
DA:504,0
DA:505,0
DA:426,22
DA:436,22
DA:437,22
DA:438,22
DA:439,22
DA:440,22
DA:441,22
DA:449,22
DA:450,22
DA:456,22
DA:461,22
DA:462,22
DA:464,22
DA:466,44
DA:467,22
DA:500,44
DA:501,22
DA:502,22
DA:503,22
DA:504,22
DA:505,22
DA:426,0
DA:436,0
DA:437,0
DA:438,0
DA:439,0
DA:440,0
DA:441,0
DA:449,0
DA:450,0
DA:456,0
DA:461,0
DA:462,0
DA:464,0
DA:466,0
DA:467,0
DA:500,0
DA:501,0
DA:502,0
DA:503,0
DA:504,0
DA:505,0
DA:426,0
DA:436,0
DA:437,0
DA:438,0
DA:439,0
DA:440,0
DA:441,0
DA:449,0
DA:450,0
DA:456,0
DA:461,0
DA:462,0
DA:464,0
DA:466,0
DA:467,0
DA:500,0
DA:501,0
DA:502,0
DA:503,0
DA:504,0
DA:505,0
end_of_record
SF:/usr/include/c++/11/bits/allocator.h
DA:156,190
DA:159,208
DA:160,208
DA:169,19
DA:174,270
end_of_record
SF:/usr/include/c++/11/bits/basic_string.h
FN:533,_ZNSt7__cxx1112basic_stringIcSt11char_traitsIcESaIcEEC2IS3_EEPKcRKS3_
FNDA:176,_ZNSt7__cxx1112basic_stringIcSt11char_traitsIcESaIcEEC2IS3_EEPKcRKS3_
FN:6172,_ZStplIcSt11char_traitsIcESaIcEENSt7__cxx1112basic_stringIT_T0_T1_EEOS8_S9_
FNDA:0,_ZStplIcSt11char_traitsIcESaIcEENSt7__cxx1112basic_stringIT_T0_T1_EEOS8_S9_
FN:6194,_ZStplIcSt11char_traitsIcESaIcEENSt7__cxx1112basic_stringIT_T0_T1_EEPKS5_OS8_
FNDA:8,_ZStplIcSt11char_traitsIcESaIcEENSt7__cxx1112basic_stringIT_T0_T1_EEPKS5_OS8_
FN:6206,_ZStplIcSt11char_traitsIcESaIcEENSt7__cxx1112basic_stringIT_T0_T1_EEOS8_PKS5_
FNDA:8,_ZStplIcSt11char_traitsIcESaIcEENSt7__cxx1112basic_stringIT_T0_T1_EEOS8_PKS5_
FN:6660,_ZNSt7__cxx119to_stringEi
FNDA:16,_ZNSt7__cxx119to_stringEi
DA:158,294
DA:164,192
DA:165,192
DA:167,16
DA:168,16
DA:186,32
DA:187,0
DA:190,16
DA:191,16
DA:194,48
DA:195,0
DA:198,224
DA:201,16
DA:208,16
DA:211,16
DA:218,16
DA:219,0
DA:222,16
DA:224,16
DA:225,16
DA:229,16
DA:230,16
DA:294,16
DA:295,16
DA:404,0
DA:406,0
DA:533,176
DA:534,176
DA:536,176
DA:539,176
DA:540,176
DA:553,16
DA:554,16
DA:555,16
DA:565,16
DA:566,16
DA:568,16
DA:570,0
DA:575,16
DA:576,16
DA:582,16
DA:583,16
DA:584,16
DA:585,0
DA:671,8
DA:672,254
DA:920,0
DA:921,0
DA:926,16
DA:927,0
DA:976,0
DA:978,0
DA:1055,16
DA:1059,16
DA:1062,16
DA:1213,0
DA:1214,0
DA:1660,0
DA:1661,0
DA:1662,0
DA:6172,0
DA:6179,0
DA:6185,0
DA:6186,0
DA:6187,0
DA:6189,0
DA:6194,8
DA:6196,8
DA:6206,8
DA:6208,8
DA:6660,16
DA:6662,16
DA:6663,16
DA:6664,16
DA:6665,16
DA:6666,16
DA:6667,16
end_of_record
SF:/usr/include/c++/11/utility
DA:188,14
DA:189,14
DA:213,14
DA:233,14
DA:234,14
end_of_record
SF:/mnt/c/users/gabci/desktop/nhf2/src/SoundPlayer.h
DA:28,19
end_of_record
SF:/usr/include/c++/11/bits/stl_uninitialized.h
DA:1006,44
DA:1009,44
DA:1010,44
DA:1011,3
DA:1012,22
DA:1040,22
DA:1046,25
end_of_record
SF:/mnt/c/users/gabci/desktop/nhf2/src/exceptions/WorldExceptions.h
DA:36,2
end_of_record
SF:/usr/include/c++/11/bits/hashtable.h
FN:453,_ZNSt10_HashtableINSt7__cxx1112basic_stringIcSt11char_traitsIcESaIcEEESt4pairIKS5_N2sf11SoundBufferEESaISA_ENSt8__detail10_Select1stESt8equal_toIS5_ESt4hashIS5_ENSC_18_Mod_range_hashingENSC_20_Default_ranged_hashENSC_20_Prime_rehash_policyENSC_17_Hashtable_traitsILb1ELb0ELb1EEEE21_M_deallocate_bucketsEv
FNDA:0,_ZNSt10_HashtableINSt7__cxx1112basic_stringIcSt11char_traitsIcESaIcEEESt4pairIKS5_N2sf11SoundBufferEESaISA_ENSt8__detail10_Select1stESt8equal_toIS5_ESt4hashIS5_ENSC_18_Mod_range_hashingENSC_20_Default_ranged_hashENSC_20_Prime_rehash_policyENSC_17_Hashtable_traitsILb1ELb0ELb1EEEE21_M_deallocate_bucketsEv
FN:453,_ZNSt10_HashtableINSt7__cxx1112basic_stringIcSt11char_traitsIcESaIcEEESt4pairIKS5_iESaIS8_ENSt8__detail10_Select1stESt8equal_toIS5_ESt4hashIS5_ENSA_18_Mod_range_hashingENSA_20_Default_ranged_hashENSA_20_Prime_rehash_policyENSA_17_Hashtable_traitsILb1ELb0ELb1EEEE21_M_deallocate_bucketsEv
FNDA:19,_ZNSt10_HashtableINSt7__cxx1112basic_stringIcSt11char_traitsIcESaIcEEESt4pairIKS5_iESaIS8_ENSt8__detail10_Select1stESt8equal_toIS5_ESt4hashIS5_ENSA_18_Mod_range_hashingENSA_20_Default_ranged_hashENSA_20_Prime_rehash_policyENSA_17_Hashtable_traitsILb1ELb0ELb1EEEE21_M_deallocate_bucketsEv
FN:1528,_ZNSt10_HashtableINSt7__cxx1112basic_stringIcSt11char_traitsIcESaIcEEESt4pairIKS5_N2sf11SoundBufferEESaISA_ENSt8__detail10_Select1stESt8equal_toIS5_ESt4hashIS5_ENSC_18_Mod_range_hashingENSC_20_Default_ranged_hashENSC_20_Prime_rehash_policyENSC_17_Hashtable_traitsILb1ELb0ELb1EEEED2Ev
FNDA:0,_ZNSt10_HashtableINSt7__cxx1112basic_stringIcSt11char_traitsIcESaIcEEESt4pairIKS5_N2sf11SoundBufferEESaISA_ENSt8__detail10_Select1stESt8equal_toIS5_ESt4hashIS5_ENSC_18_Mod_range_hashingENSC_20_Default_ranged_hashENSC_20_Prime_rehash_policyENSC_17_Hashtable_traitsILb1ELb0ELb1EEEED2Ev
FN:1528,_ZNSt10_HashtableINSt7__cxx1112basic_stringIcSt11char_traitsIcESaIcEEESt4pairIKS5_iESaIS8_ENSt8__detail10_Select1stESt8equal_toIS5_ESt4hashIS5_ENSA_18_Mod_range_hashingENSA_20_Default_ranged_hashENSA_20_Prime_rehash_policyENSA_17_Hashtable_traitsILb1ELb0ELb1EEEED2Ev
FNDA:19,_ZNSt10_HashtableINSt7__cxx1112basic_stringIcSt11char_traitsIcESaIcEEESt4pairIKS5_iESaIS8_ENSt8__detail10_Select1stESt8equal_toIS5_ESt4hashIS5_ENSA_18_Mod_range_hashingENSA_20_Default_ranged_hashENSA_20_Prime_rehash_policyENSA_17_Hashtable_traitsILb1ELb0ELb1EEEED2Ev
FN:2316,_ZNSt10_HashtableINSt7__cxx1112basic_stringIcSt11char_traitsIcESaIcEEESt4pairIKS5_N2sf11SoundBufferEESaISA_ENSt8__detail10_Select1stESt8equal_toIS5_ESt4hashIS5_ENSC_18_Mod_range_hashingENSC_20_Default_ranged_hashENSC_20_Prime_rehash_policyENSC_17_Hashtable_traitsILb1ELb0ELb1EEEE5clearEv
FNDA:0,_ZNSt10_HashtableINSt7__cxx1112basic_stringIcSt11char_traitsIcESaIcEEESt4pairIKS5_N2sf11SoundBufferEESaISA_ENSt8__detail10_Select1stESt8equal_toIS5_ESt4hashIS5_ENSC_18_Mod_range_hashingENSC_20_Default_ranged_hashENSC_20_Prime_rehash_policyENSC_17_Hashtable_traitsILb1ELb0ELb1EEEE5clearEv
FN:2316,_ZNSt10_HashtableINSt7__cxx1112basic_stringIcSt11char_traitsIcESaIcEEESt4pairIKS5_iESaIS8_ENSt8__detail10_Select1stESt8equal_toIS5_ESt4hashIS5_ENSA_18_Mod_range_hashingENSA_20_Default_ranged_hashENSA_20_Prime_rehash_policyENSA_17_Hashtable_traitsILb1ELb0ELb1EEEE5clearEv
FNDA:19,_ZNSt10_HashtableINSt7__cxx1112basic_stringIcSt11char_traitsIcESaIcEEESt4pairIKS5_iESaIS8_ENSt8__detail10_Select1stESt8equal_toIS5_ESt4hashIS5_ENSA_18_Mod_range_hashingENSA_20_Default_ranged_hashENSA_20_Prime_rehash_policyENSA_17_Hashtable_traitsILb1ELb0ELb1EEEE5clearEv
DA:421,19
DA:422,19
DA:444,19
DA:446,19
DA:449,19
DA:453,0
DA:454,0
DA:453,19
DA:454,19
DA:462,19
DA:463,19
DA:1528,0
DA:1532,0
DA:1533,0
DA:1534,0
DA:1528,19
DA:1532,19
DA:1533,19
DA:1534,19
DA:2316,0
DA:2320,0
DA:2321,0
DA:2322,0
DA:2323,0
DA:2324,0
DA:2325,0
DA:2316,19
DA:2320,19
DA:2321,19
DA:2322,19
DA:2323,19
DA:2324,19
DA:2325,19
end_of_record
SF:/usr/include/c++/11/iostream
end_of_record
SF:/usr/include/c++/11/bits/move.h
DA:104,16
end_of_record
SF:/usr/include/c++/11/bits/alloc_traits.h
DA:463,22
DA:464,22
DA:495,157
DA:496,62
DA:511,43
DA:516,43
DA:531,76
DA:535,76
DA:845,19
end_of_record
SF:/usr/include/c++/11/bits/charconv.h
FN:47,_ZNSt8__detail14__to_chars_lenIjEEjT_i
FNDA:16,_ZNSt8__detail14__to_chars_lenIjEEjT_i
FN:72,_ZNSt8__detail18__to_chars_10_implIjEEvPcjT_
FNDA:0,_ZNSt8__detail18__to_chars_10_implIjEEvPcjT_
DA:47,16
DA:52,16
DA:53,16
DA:54,16
DA:55,16
DA:56,0
DA:58,16
DA:59,16
DA:60,16
DA:61,0
DA:62,0
DA:63,0
DA:72,0
DA:83,0
DA:84,0
DA:86,0
DA:87,0
DA:88,0
DA:89,0
DA:90,0
DA:92,0
DA:94,0
DA:95,0
DA:96,0
DA:99,0
DA:100,0
end_of_record
SF:/usr/include/c++/11/bits/stl_iterator_base_funcs.h
DA:98,0
DA:104,0
DA:138,0
DA:141,0
end_of_record
SF:/mnt/c/users/gabci/desktop/nhf2/src/terrain_tiles/Tile.h
DA:26,64000
end_of_record
SF:/mnt/c/users/gabci/desktop/nhf2/src/HumanResources.h
DA:12,19
end_of_record
SF:/usr/include/c++/11/bits/stl_pair.h
DA:211,76
end_of_record
SF:/usr/include/c++/11/bits/char_traits.h
DA:356,16
DA:357,0
DA:393,176
DA:396,176
DA:399,176
DA:429,0
DA:431,0
DA:437,0
end_of_record
SF:/usr/include/c++/11/bits/stl_iterator.h
FN:1291,_ZSt12__niter_baseIPPN8creature5HumanESt6vectorIS2_SaIS2_EEET_N9__gnu_cxx17__normal_iteratorIS7_T0_EE
FNDA:0,_ZSt12__niter_baseIPPN8creature5HumanESt6vectorIS2_SaIS2_EEET_N9__gnu_cxx17__normal_iteratorIS7_T0_EE
FN:1291,_ZSt12__niter_baseIPPN8creature6LivingESt6vectorIS2_SaIS2_EEET_N9__gnu_cxx17__normal_iteratorIS7_T0_EE
FNDA:0,_ZSt12__niter_baseIPPN8creature6LivingESt6vectorIS2_SaIS2_EEET_N9__gnu_cxx17__normal_iteratorIS7_T0_EE
DA:1027,113
DA:1028,687
DA:1033,0
DA:1037,0
DA:1052,1086
DA:1054,1086
DA:1055,1086
DA:1090,0
DA:1091,0
DA:1100,112
DA:1101,112
DA:1105,0
DA:1268,22
DA:1271,22
DA:1291,0
DA:1293,0
DA:1291,0
DA:1293,0
end_of_record
SF:/usr/include/c++/11/bits/hashtable_policy.h
FN:1892,_ZNSt8__detail16_Hashtable_allocISaINS_10_Hash_nodeISt4pairIKNSt7__cxx1112basic_stringIcSt11char_traitsIcESaIcEEEN2sf11SoundBufferEELb1EEEEE18_M_deallocate_nodeEPSD_
FNDA:0,_ZNSt8__detail16_Hashtable_allocISaINS_10_Hash_nodeISt4pairIKNSt7__cxx1112basic_stringIcSt11char_traitsIcESaIcEEEN2sf11SoundBufferEELb1EEEEE18_M_deallocate_nodeEPSD_
FN:1892,_ZNSt8__detail16_Hashtable_allocISaINS_10_Hash_nodeISt4pairIKNSt7__cxx1112basic_stringIcSt11char_traitsIcESaIcEEEiELb1EEEEE18_M_deallocate_nodeEPSB_
FNDA:76,_ZNSt8__detail16_Hashtable_allocISaINS_10_Hash_nodeISt4pairIKNSt7__cxx1112basic_stringIcSt11char_traitsIcESaIcEEEiELb1EEEEE18_M_deallocate_nodeEPSB_
FN:1900,_ZNSt8__detail16_Hashtable_allocISaINS_10_Hash_nodeISt4pairIKNSt7__cxx1112basic_stringIcSt11char_traitsIcESaIcEEEN2sf11SoundBufferEELb1EEEEE22_M_deallocate_node_ptrEPSD_
FNDA:0,_ZNSt8__detail16_Hashtable_allocISaINS_10_Hash_nodeISt4pairIKNSt7__cxx1112basic_stringIcSt11char_traitsIcESaIcEEEN2sf11SoundBufferEELb1EEEEE22_M_deallocate_node_ptrEPSD_
FN:1900,_ZNSt8__detail16_Hashtable_allocISaINS_10_Hash_nodeISt4pairIKNSt7__cxx1112basic_stringIcSt11char_traitsIcESaIcEEEiELb1EEEEE22_M_deallocate_node_ptrEPSB_
FNDA:76,_ZNSt8__detail16_Hashtable_allocISaINS_10_Hash_nodeISt4pairIKNSt7__cxx1112basic_stringIcSt11char_traitsIcESaIcEEEiELb1EEEEE22_M_deallocate_node_ptrEPSB_
FN:1910,_ZNSt8__detail16_Hashtable_allocISaINS_10_Hash_nodeISt4pairIKNSt7__cxx1112basic_stringIcSt11char_traitsIcESaIcEEEN2sf11SoundBufferEELb1EEEEE19_M_deallocate_nodesEPSD_
FNDA:0,_ZNSt8__detail16_Hashtable_allocISaINS_10_Hash_nodeISt4pairIKNSt7__cxx1112basic_stringIcSt11char_traitsIcESaIcEEEN2sf11SoundBufferEELb1EEEEE19_M_deallocate_nodesEPSD_
FN:1910,_ZNSt8__detail16_Hashtable_allocISaINS_10_Hash_nodeISt4pairIKNSt7__cxx1112basic_stringIcSt11char_traitsIcESaIcEEEiELb1EEEEE19_M_deallocate_nodesEPSB_
FNDA:19,_ZNSt8__detail16_Hashtable_allocISaINS_10_Hash_nodeISt4pairIKNSt7__cxx1112basic_stringIcSt11char_traitsIcESaIcEEEiELb1EEEEE19_M_deallocate_nodesEPSB_
FN:1935,_ZNSt8__detail16_Hashtable_allocISaINS_10_Hash_nodeISt4pairIKNSt7__cxx1112basic_stringIcSt11char_traitsIcESaIcEEEN2sf11SoundBufferEELb1EEEEE21_M_deallocate_bucketsEPPNS_15_Hash_node_baseEm
FNDA:0,_ZNSt8__detail16_Hashtable_allocISaINS_10_Hash_nodeISt4pairIKNSt7__cxx1112basic_stringIcSt11char_traitsIcESaIcEEEN2sf11SoundBufferEELb1EEEEE21_M_deallocate_bucketsEPPNS_15_Hash_node_baseEm
FN:1935,_ZNSt8__detail16_Hashtable_allocISaINS_10_Hash_nodeISt4pairIKNSt7__cxx1112basic_stringIcSt11char_traitsIcESaIcEEEiELb1EEEEE21_M_deallocate_bucketsEPPNS_15_Hash_node_baseEm
FNDA:19,_ZNSt8__detail16_Hashtable_allocISaINS_10_Hash_nodeISt4pairIKNSt7__cxx1112basic_stringIcSt11char_traitsIcESaIcEEEiELb1EEEEE21_M_deallocate_bucketsEPPNS_15_Hash_node_baseEm
DA:238,76
DA:282,76
DA:283,76
DA:1124,19
DA:1802,19
DA:1892,0
DA:1894,0
DA:1895,0
DA:1896,0
DA:1892,76
DA:1894,76
DA:1895,76
DA:1896,76
DA:1900,0
DA:1903,0
DA:1904,0
DA:1905,0
DA:1906,0
DA:1900,76
DA:1903,76
DA:1904,76
DA:1905,76
DA:1906,76
DA:1910,0
DA:1912,0
DA:1914,0
DA:1915,0
DA:1916,0
DA:1918,0
DA:1910,19
DA:1912,95
DA:1914,76
DA:1915,76
DA:1916,76
DA:1918,19
DA:1935,0
DA:1940,0
DA:1941,0
DA:1942,0
DA:1943,0
DA:1935,19
DA:1940,19
DA:1941,19
DA:1942,19
DA:1943,19
end_of_record
SF:/mnt/c/users/gabci/desktop/nhf2/src/TerrainContainer_def.hpp
FN:7,_ZNK16TerrainContainerIPN5tiles4TileEE9get_widthEv
FNDA:1255,_ZNK16TerrainContainerIPN5tiles4TileEE9get_widthEv
FN:12,_ZNK16TerrainContainerIPN5tiles4TileEE10get_heightEv
FNDA:1255,_ZNK16TerrainContainerIPN5tiles4TileEE10get_heightEv
FN:17,_ZN16TerrainContainerIPN5tiles4TileEEC2Ev
FNDA:19,_ZN16TerrainContainerIPN5tiles4TileEEC2Ev
FN:35,_ZN16TerrainContainerIPN5tiles4TileEE12is_on_screenEii
FNDA:16000,_ZN16TerrainContainerIPN5tiles4TileEE12is_on_screenEii
FN:52,_ZN16TerrainContainerIPN5tiles4TileEE4drawERN2sf12RenderWindowEii
FNDA:10,_ZN16TerrainContainerIPN5tiles4TileEE4drawERN2sf12RenderWindowEii
FN:66,_ZN16TerrainContainerIPN5tiles4TileEE8set_seedEi
FNDA:20,_ZN16TerrainContainerIPN5tiles4TileEE8set_seedEi
FN:77,_ZN16TerrainContainerIPN5tiles4TileEE14generate_worldEv
FNDA:20,_ZN16TerrainContainerIPN5tiles4TileEE14generate_worldEv
FN:110,_ZN16TerrainContainerIPN5tiles4TileEE5clearEv
FNDA:0,_ZN16TerrainContainerIPN5tiles4TileEE5clearEv
FN:127,_ZN16TerrainContainerIPN5tiles4TileEE6resizeIS1_EEvii
FNDA:20,_ZN16TerrainContainerIPN5tiles4TileEE6resizeIS1_EEvii
FN:143,_ZN16TerrainContainerIPN5tiles4TileEED2Ev
FNDA:19,_ZN16TerrainContainerIPN5tiles4TileEED2Ev
DA:7,1255
DA:8,1255
DA:12,1255
DA:13,1255
DA:17,19
DA:35,16000
DA:36,16000
DA:37,16000
DA:38,16000
DA:52,10
DA:53,410
DA:54,16400
DA:55,16000
DA:56,16000
DA:57,16000
DA:58,6510
DA:59,6510
DA:63,10
DA:66,20
DA:67,20
DA:68,20
DA:77,20
DA:78,20
DA:79,19
DA:84,820
DA:85,32800
DA:86,32000
DA:87,32000
DA:88,32000
DA:90,32000
DA:91,9819
DA:92,22181
DA:93,4510
DA:95,17671
DA:99,20
DA:110,0
DA:111,0
DA:112,0
DA:113,0
DA:114,0
DA:116,0
DA:118,0
DA:119,0
DA:120,0
DA:121,0
DA:123,0
DA:127,20
DA:128,20
DA:130,20
DA:131,20
DA:133,20
DA:134,820
DA:135,800
DA:136,32800
DA:137,32000
DA:140,20
DA:143,19
DA:144,19
DA:145,19
end_of_record
SF:/usr/include/c++/11/bits/basic_string.tcc
FN:206,_ZNSt7__cxx1112basic_stringIcSt11char_traitsIcESaIcEE12_M_constructIPKcEEvT_S8_St20forward_iterator_tag
FNDA:0,_ZNSt7__cxx1112basic_stringIcSt11char_traitsIcESaIcEE12_M_constructIPKcEEvT_S8_St20forward_iterator_tag
DA:206,0
DA:211,0
DA:212,0
DA:215,0
DA:217,0
DA:219,0
DA:220,0
DA:225,0
DA:232,0
DA:233,0
end_of_record
SF:/mnt/c/users/gabci/desktop/nhf2/src/Textureable.h
end_of_record
SF:/usr/include/c++/11/bits/unordered_map.h
DA:102,38
end_of_record
SF:/usr/include/c++/11/ext/aligned_buffer.h
DA:104,76
DA:115,76
end_of_record
SF:/mnt/c/users/gabci/desktop/nhf2/src/fake_sfml/fake_sfml.h
DA:180,0
end_of_record
SF:/mnt/c/users/gabci/desktop/nhf2/src/World.hpp
FN:160,_ZN9WorldBase18spawn_structure_atIN8minerals5StoneEEEvii
FNDA:76,_ZN9WorldBase18spawn_structure_atIN8minerals5StoneEEEvii
FN:160,_ZN9WorldBase18spawn_structure_atIN8minerals4IronEEEvii
FNDA:76,_ZN9WorldBase18spawn_structure_atIN8minerals4IronEEEvii
FN:160,_ZN9WorldBase18spawn_structure_atIN8minerals4TreeEEEvii
FNDA:76,_ZN9WorldBase18spawn_structure_atIN8minerals4TreeEEEvii
FN:160,_ZN9WorldBase18spawn_structure_atIN8minerals9BerryBushEEEvii
FNDA:152,_ZN9WorldBase18spawn_structure_atIN8minerals9BerryBushEEEvii
FN:188,_ZN9WorldBaseD0Ev
FNDA:0,_ZN9WorldBaseD0Ev
FN:188,_ZN9WorldBaseD2Ev
FNDA:19,_ZN9WorldBaseD2Ev
DA:160,76
DA:161,76
DA:162,76
DA:160,76
DA:161,76
DA:162,76
DA:160,76
DA:161,76
DA:162,76
DA:160,152
DA:161,152
DA:162,152
DA:188,0
DA:188,38
DA:197,38
end_of_record
SF:/usr/include/c++/11/ext/new_allocator.h
FN:103,_ZN9__gnu_cxx13new_allocatorIPN8minerals17ResourceStructureEE8allocateEmPKv
FNDA:0,_ZN9__gnu_cxx13new_allocatorIPN8minerals17ResourceStructureEE8allocateEmPKv
FN:103,_ZN9__gnu_cxx13new_allocatorIPN8creature5HumanEE8allocateEmPKv
FNDA:22,_ZN9__gnu_cxx13new_allocatorIPN8creature5HumanEE8allocateEmPKv
FN:103,_ZN9__gnu_cxx13new_allocatorIPN8creature6LivingEE8allocateEmPKv
FNDA:0,_ZN9__gnu_cxx13new_allocatorIPN8creature6LivingEE8allocateEmPKv
DA:79,209
DA:82,208
DA:89,270
DA:103,0
DA:111,0
DA:115,0
DA:116,0
DA:117,0
DA:127,0
DA:103,22
DA:111,22
DA:115,0
DA:116,0
DA:117,0
DA:127,22
DA:103,0
DA:111,0
DA:115,0
DA:116,0
DA:117,0
DA:127,0
DA:132,157
DA:145,157
DA:160,43
DA:162,43
DA:166,76
DA:168,76
end_of_record
TN:
SF:/usr/include/c++/11/ext/new_allocator.h
FN:103,_ZN9__gnu_cxx13new_allocatorIPN8minerals5HouseEE8allocateEmPKv
FNDA:2,_ZN9__gnu_cxx13new_allocatorIPN8minerals5HouseEE8allocateEmPKv
FN:103,_ZN9__gnu_cxx13new_allocatorIPN8creature6LivingEE8allocateEmPKv
FNDA:91,_ZN9__gnu_cxx13new_allocatorIPN8creature6LivingEE8allocateEmPKv
DA:79,45
DA:82,61
DA:89,43
DA:103,2
DA:111,2
DA:115,0
DA:116,0
DA:117,0
DA:127,2
DA:103,91
DA:111,91
DA:115,0
DA:116,0
DA:117,0
DA:127,91
DA:132,72
DA:145,72
DA:160,100
DA:162,100
DA:166,0
DA:168,0
end_of_record
SF:/mnt/c/users/gabci/desktop/nhf2/src/exceptions/SimulationException.h
FN:20,_ZN19SimulationExceptionC2ERKNSt7__cxx1112basic_stringIcSt11char_traitsIcESaIcEEE
FNDA:0,_ZN19SimulationExceptionC2ERKNSt7__cxx1112basic_stringIcSt11char_traitsIcESaIcEEE
DA:20,0
end_of_record
SF:/usr/include/c++/11/bits/char_traits.h
DA:356,24
DA:357,0
DA:393,13
DA:396,13
DA:399,13
DA:429,0
DA:431,0
DA:437,0
end_of_record
SF:/usr/include/c++/11/bits/stl_iterator.h
FN:1291,_ZSt12__niter_baseIPPN8minerals17ResourceStructureESt6vectorIS2_SaIS2_EEET_N9__gnu_cxx17__normal_iteratorIS7_T0_EE
FNDA:0,_ZSt12__niter_baseIPPN8minerals17ResourceStructureESt6vectorIS2_SaIS2_EEET_N9__gnu_cxx17__normal_iteratorIS7_T0_EE
DA:1027,117
DA:1028,81
DA:1033,0
DA:1037,0
DA:1052,73
DA:1054,8
DA:1055,65
DA:1090,0
DA:1091,0
DA:1100,9
DA:1101,9
DA:1105,0
DA:1268,97
DA:1271,97
DA:1291,0
DA:1293,0
end_of_record
SF:/usr/include/c++/11/bits/basic_string.tcc
FN:206,_ZNSt7__cxx1112basic_stringIcSt11char_traitsIcESaIcEE12_M_constructIPKcEEvT_S8_St20forward_iterator_tag
FNDA:0,_ZNSt7__cxx1112basic_stringIcSt11char_traitsIcESaIcEE12_M_constructIPKcEEvT_S8_St20forward_iterator_tag
FN:1169,_ZStplIcSt11char_traitsIcESaIcEENSt7__cxx1112basic_stringIT_T0_T1_EEPKS5_RKS8_
FNDA:0,_ZStplIcSt11char_traitsIcESaIcEENSt7__cxx1112basic_stringIT_T0_T1_EEPKS5_RKS8_
DA:206,0
DA:211,0
DA:212,0
DA:215,0
DA:217,0
DA:219,0
DA:220,0
DA:225,0
DA:232,0
DA:233,0
DA:1169,0
DA:1178,0
DA:1179,0
DA:1181,0
DA:1182,0
DA:1183,0
DA:1184,0
DA:1185,0
end_of_record
SF:/mnt/c/users/gabci/desktop/nhf2/src/TerrainContainer_def.hpp
FN:7,_ZNK16TerrainContainerIPN5tiles4TileEE9get_widthEv
FNDA:141,_ZNK16TerrainContainerIPN5tiles4TileEE9get_widthEv
FN:12,_ZNK16TerrainContainerIPN5tiles4TileEE10get_heightEv
FNDA:141,_ZNK16TerrainContainerIPN5tiles4TileEE10get_heightEv
FN:47,_ZNK16TerrainContainerIPN5tiles4TileEEixEm
FNDA:1379,_ZNK16TerrainContainerIPN5tiles4TileEEixEm
DA:7,141
DA:8,141
DA:12,141
DA:13,141
DA:47,1379
DA:48,1379
end_of_record
SF:/usr/include/c++/11/bits/move.h
DA:104,28
end_of_record
SF:/usr/include/c++/11/iostream
end_of_record
SF:/usr/include/c++/11/bits/stl_algo.h
FN:3901,_ZSt7find_ifIN9__gnu_cxx17__normal_iteratorIPPN8minerals17ResourceStructureESt6vectorIS4_SaIS4_EEEEZN9WorldBase18get_structure_typeENS2_12MINERAL_TYPEEEUlPNS2_9StructureEE_ET_SF_SF_T0_
FNDA:4,_ZSt7find_ifIN9__gnu_cxx17__normal_iteratorIPPN8minerals17ResourceStructureESt6vectorIS4_SaIS4_EEEEZN9WorldBase18get_structure_typeENS2_12MINERAL_TYPEEEUlPNS2_9StructureEE_ET_SF_SF_T0_
DA:3901,4
DA:3910,4
DA:3911,4
end_of_record
SF:/usr/include/c++/11/bits/stl_iterator_base_funcs.h
DA:98,0
DA:104,0
DA:138,0
DA:141,0
end_of_record
SF:/usr/include/c++/11/bits/predefined_ops.h
DA:310,4
DA:311,4
DA:317,12
DA:318,4
DA:324,4
end_of_record
SF:/usr/include/c++/11/bits/alloc_traits.h
DA:463,93
DA:464,93
DA:495,72
DA:496,72
DA:511,100
DA:516,100
DA:531,0
DA:535,0
DA:562,0
DA:563,0
DA:845,8
end_of_record
SF:/usr/include/c++/11/bits/charconv.h
FN:47,_ZNSt8__detail14__to_chars_lenIjEEjT_i
FNDA:24,_ZNSt8__detail14__to_chars_lenIjEEjT_i
FN:72,_ZNSt8__detail18__to_chars_10_implIjEEvPcjT_
FNDA:0,_ZNSt8__detail18__to_chars_10_implIjEEvPcjT_
DA:47,24
DA:52,24
DA:53,24
DA:54,24
DA:55,24
DA:56,0
DA:58,24
DA:59,24
DA:60,4
DA:61,0
DA:62,0
DA:63,0
DA:72,0
DA:83,0
DA:84,0
DA:86,0
DA:87,0
DA:88,0
DA:89,0
DA:90,0
DA:92,0
DA:94,0
DA:95,0
DA:96,0
DA:99,0
DA:100,0
end_of_record
SF:/usr/include/c++/11/bits/allocator.h
DA:156,45
DA:159,61
DA:160,61
DA:174,43
end_of_record
SF:/mnt/c/users/gabci/desktop/nhf2/src/WorldBase.cpp
FN:3,_ZN9WorldBase13get_resourcesEv
FNDA:112,_ZN9WorldBase13get_resourcesEv
FN:7,_ZN9WorldBase19remove_structure_atEii
FNDA:1,_ZN9WorldBase19remove_structure_atEii
FN:25,_ZN9WorldBase18get_structure_typeEN8minerals12MINERAL_TYPEE
FNDA:4,_ZN9WorldBase18get_structure_typeEN8minerals12MINERAL_TYPEE
FN:31,_ZN9WorldBase24get_position_nearby_townEv
FNDA:6,_ZN9WorldBase24get_position_nearby_townEv
FN:69,_ZN9WorldBase21get_excluded_entitiesEN8creature11ENTITY_TYPEE
FNDA:8,_ZN9WorldBase21get_excluded_entitiesEN8creature11ENTITY_TYPEE
FN:90,_ZN9WorldBase28get_random_suitable_positionEN5tiles8TILETYPEE
FNDA:10,_ZN9WorldBase28get_random_suitable_positionEN5tiles8TILETYPEE
FN:108,_ZN9WorldBase20build_city_center_atEii
FNDA:4,_ZN9WorldBase20build_city_center_atEii
FN:125,_ZN9WorldBase20get_random_house_posEv
FNDA:1,_ZN9WorldBase20get_random_house_posEv
FN:136,_ZN9WorldBase23get_current_city_centerEv
FNDA:9,_ZN9WorldBase23get_current_city_centerEv
FN:149,_ZN9WorldBase16upgrade_house_atEii
FNDA:2,_ZN9WorldBase16upgrade_house_atEii
FN:179,_ZNK9WorldBase9getTileAtEii
FNDA:1379,_ZNK9WorldBase9getTileAtEii
DA:3,112
DA:4,112
DA:7,1
DA:8,2
DA:9,2
DA:11,21
DA:12,20
DA:13,0
DA:15,0
DA:16,0
DA:17,0
DA:18,0
DA:20,0
DA:25,4
DA:26,4
DA:27,12
DA:28,4
DA:31,6
DA:32,6
DA:33,6
DA:34,6
DA:36,6
DA:37,6
DA:38,104
DA:39,104
DA:40,104
DA:41,104
DA:42,0
DA:44,104
DA:45,0
DA:47,104
DA:50,104
DA:54,104
DA:55,5
DA:57,104
DA:58,104
DA:60,6
DA:61,6
DA:64,0
DA:65,0
DA:69,8
DA:70,8
DA:71,45
DA:72,37
DA:73,22
DA:76,16
DA:77,8
DA:78,7
DA:82,8
DA:83,8
DA:84,8
DA:88,8
DA:90,10
DA:91,10
DA:92,37
DA:93,37
DA:95,37
DA:96,37
DA:97,37
DA:98,37
DA:99,10
DA:101,37
DA:102,37
DA:104,10
DA:105,10
DA:108,4
DA:109,4
DA:110,3
DA:111,6
DA:112,6
DA:114,2
DA:116,3
DA:117,3
DA:118,3
DA:119,3
DA:121,3
DA:123,3
DA:125,1
DA:126,1
DA:127,0
DA:128,0
DA:129,0
DA:132,1
DA:133,1
DA:136,9
DA:137,9
DA:145,6
DA:149,2
DA:150,2
DA:151,2
DA:152,0
DA:153,0
DA:154,0
DA:155,0
DA:157,0
DA:158,0
DA:159,0
DA:161,0
DA:162,0
DA:163,0
DA:169,2
DA:170,2
DA:171,2
DA:172,4
DA:173,4
DA:177,2
DA:179,1379
DA:180,1379
end_of_record
SF:/usr/include/c++/11/bits/vector.tcc
FN:109,_ZNSt6vectorIPN8minerals5HouseESaIS2_EE12emplace_backIJS2_EEERS2_DpOT_
FNDA:2,_ZNSt6vectorIPN8minerals5HouseESaIS2_EE12emplace_backIJS2_EEERS2_DpOT_
FN:109,_ZNSt6vectorIPN8creature6LivingESaIS2_EE12emplace_backIJS2_EEERS2_DpOT_
FNDA:7,_ZNSt6vectorIPN8creature6LivingESaIS2_EE12emplace_backIJS2_EEERS2_DpOT_
FN:171,_ZNSt6vectorIPN8minerals17ResourceStructureESaIS2_EE8_M_eraseEN9__gnu_cxx17__normal_iteratorIPS2_S4_EE
FNDA:0,_ZNSt6vectorIPN8minerals17ResourceStructureESaIS2_EE8_M_eraseEN9__gnu_cxx17__normal_iteratorIPS2_S4_EE
FN:426,_ZNSt6vectorIPN8minerals5HouseESaIS2_EE17_M_realloc_insertIJS2_EEEvN9__gnu_cxx17__normal_iteratorIPS2_S4_EEDpOT_
FNDA:2,_ZNSt6vectorIPN8minerals5HouseESaIS2_EE17_M_realloc_insertIJS2_EEEvN9__gnu_cxx17__normal_iteratorIPS2_S4_EEDpOT_
FN:426,_ZNSt6vectorIPN8creature6LivingESaIS2_EE17_M_realloc_insertIJS2_EEEvN9__gnu_cxx17__normal_iteratorIPS2_S4_EEDpOT_
FNDA:74,_ZNSt6vectorIPN8creature6LivingESaIS2_EE17_M_realloc_insertIJS2_EEEvN9__gnu_cxx17__normal_iteratorIPS2_S4_EEDpOT_
FN:426,_ZNSt6vectorIPN8creature6LivingESaIS2_EE17_M_realloc_insertIJRKS2_EEEvN9__gnu_cxx17__normal_iteratorIPS2_S4_EEDpOT_
FNDA:17,_ZNSt6vectorIPN8creature6LivingESaIS2_EE17_M_realloc_insertIJRKS2_EEEvN9__gnu_cxx17__normal_iteratorIPS2_S4_EEDpOT_
DA:109,2
DA:112,2
DA:115,0
DA:117,0
DA:121,2
DA:123,2
DA:109,7
DA:112,7
DA:115,2
DA:117,2
DA:121,5
DA:123,7
DA:171,0
DA:174,0
DA:175,0
DA:176,0
DA:177,0
DA:179,0
DA:426,2
DA:436,2
DA:437,2
DA:438,2
DA:439,2
DA:440,2
DA:441,2
DA:449,2
DA:450,2
DA:456,2
DA:461,2
DA:462,2
DA:464,2
DA:466,4
DA:467,2
DA:500,4
DA:501,2
DA:502,2
DA:503,2
DA:504,2
DA:505,2
DA:426,74
DA:436,74
DA:437,74
DA:438,74
DA:439,74
DA:440,74
DA:441,74
DA:449,74
DA:450,74
DA:456,74
DA:461,74
DA:462,74
DA:464,74
DA:466,148
DA:467,74
DA:500,148
DA:501,74
DA:502,74
DA:503,74
DA:504,74
DA:505,74
DA:426,17
DA:436,17
DA:437,17
DA:438,17
DA:439,17
DA:440,17
DA:441,17
DA:449,17
DA:450,17
DA:456,17
DA:461,17
DA:462,17
DA:464,17
DA:466,34
DA:467,17
DA:500,34
DA:501,17
DA:502,17
DA:503,17
DA:504,17
DA:505,17
end_of_record
SF:/usr/include/c++/11/bits/stl_algobase.h
FN:527,_ZSt13__copy_move_aILb1EN9__gnu_cxx17__normal_iteratorIPPN8minerals17ResourceStructureESt6vectorIS4_SaIS4_EEEES9_ET1_T0_SB_SA_
FNDA:0,_ZSt13__copy_move_aILb1EN9__gnu_cxx17__normal_iteratorIPPN8minerals17ResourceStructureESt6vectorIS4_SaIS4_EEEES9_ET1_T0_SB_SA_
FN:2061,_ZSt9__find_ifIN9__gnu_cxx17__normal_iteratorIPPN8minerals17ResourceStructureESt6vectorIS4_SaIS4_EEEENS0_5__ops10_Iter_predIZN9WorldBase18get_structure_typeENS2_12MINERAL_TYPEEEUlPNS2_9StructureEE_EEET_SI_SI_T0_St26random_access_iterator_tag
FNDA:4,_ZSt9__find_ifIN9__gnu_cxx17__normal_iteratorIPPN8minerals17ResourceStructureESt6vectorIS4_SaIS4_EEEENS0_5__ops10_Iter_predIZN9WorldBase18get_structure_typeENS2_12MINERAL_TYPEEEUlPNS2_9StructureEE_EEET_SI_SI_T0_St26random_access_iterator_tag
DA:254,93
DA:259,93
DA:260,29
DA:328,0
DA:329,0
DA:420,0
DA:429,0
DA:430,0
DA:431,0
DA:432,0
DA:486,0
DA:495,0
DA:521,0
DA:522,0
DA:527,0
DA:529,0
DA:532,0
DA:644,0
DA:652,0
DA:2061,4
DA:2065,4
DA:2067,4
DA:2069,4
DA:2070,1
DA:2071,3
DA:2073,3
DA:2074,0
DA:2075,3
DA:2077,3
DA:2078,1
DA:2079,2
DA:2081,2
DA:2082,2
DA:2083,0
DA:2086,0
DA:2088,0
DA:2089,0
DA:2090,0
DA:2091,0
DA:2093,0
DA:2094,0
DA:2095,0
DA:2096,0
DA:2098,0
DA:2099,0
DA:2100,0
DA:2103,0
DA:2105,0
DA:2112,4
DA:2114,4
end_of_record
SF:/usr/include/c++/11/bits/stl_vector.h
FN:333,_ZNSt12_Vector_baseIPN8creature6LivingESaIS2_EED2Ev
FNDA:8,_ZNSt12_Vector_baseIPN8creature6LivingESaIS2_EED2Ev
FN:1187,_ZNSt6vectorIPN8creature6LivingESaIS2_EE9push_backERKS2_
FNDA:22,_ZNSt6vectorIPN8creature6LivingESaIS2_EE9push_backERKS2_
FN:1756,_ZNKSt6vectorIPN8minerals5HouseESaIS2_EE12_M_check_lenEmPKc
FNDA:2,_ZNKSt6vectorIPN8minerals5HouseESaIS2_EE12_M_check_lenEmPKc
FN:1756,_ZNKSt6vectorIPN8creature6LivingESaIS2_EE12_M_check_lenEmPKc
FNDA:91,_ZNKSt6vectorIPN8creature6LivingESaIS2_EE12_M_check_lenEmPKc
DA:97,8
DA:98,8
DA:128,8
DA:131,8
DA:133,8
DA:276,8
DA:277,93
DA:288,8
DA:333,8
DA:335,16
DA:336,8
DA:337,8
DA:343,93
DA:346,93
DA:350,101
DA:353,101
DA:354,72
DA:453,186
DA:456,186
DA:465,157
DA:469,93
DA:487,8
DA:678,8
DA:680,8
DA:681,8
DA:683,8
DA:811,116
DA:812,116
DA:820,9
DA:821,9
DA:829,125
DA:830,112
DA:838,9
DA:839,9
DA:884,0
DA:885,0
DA:918,101
DA:919,8
DA:924,93
DA:1007,9
DA:1008,9
DA:1043,8
DA:1046,8
DA:1143,9
DA:1146,9
DA:1187,22
DA:1189,22
DA:1192,5
DA:1194,5
DA:1198,17
DA:1199,22
DA:1203,9
DA:1204,9
DA:1430,0
DA:1431,0
DA:1756,2
DA:1758,2
DA:1759,0
DA:1761,2
DA:1762,2
DA:1756,91
DA:1758,91
DA:1759,0
DA:1761,91
DA:1762,91
end_of_record
SF:/usr/include/c++/11/ext/alloc_traits.h
DA:97,0
DA:98,0
end_of_record
SF:/mnt/c/users/gabci/desktop/nhf2/src/exceptions/WorldExceptions.h
DA:19,1
end_of_record
SF:/usr/include/c++/11/bits/stl_uninitialized.h
DA:1006,186
DA:1009,186
DA:1010,186
DA:1011,64
DA:1012,93
DA:1040,93
DA:1046,157
end_of_record
SF:/usr/include/c++/11/bits/basic_string.h
FN:533,_ZNSt7__cxx1112basic_stringIcSt11char_traitsIcESaIcEEC2IS3_EEPKcRKS3_
FNDA:13,_ZNSt7__cxx1112basic_stringIcSt11char_traitsIcESaIcEEC2IS3_EEPKcRKS3_
FN:6172,_ZStplIcSt11char_traitsIcESaIcEENSt7__cxx1112basic_stringIT_T0_T1_EEOS8_S9_
FNDA:0,_ZStplIcSt11char_traitsIcESaIcEENSt7__cxx1112basic_stringIT_T0_T1_EEOS8_S9_
FN:6194,_ZStplIcSt11char_traitsIcESaIcEENSt7__cxx1112basic_stringIT_T0_T1_EEPKS5_OS8_
FNDA:12,_ZStplIcSt11char_traitsIcESaIcEENSt7__cxx1112basic_stringIT_T0_T1_EEPKS5_OS8_
FN:6206,_ZStplIcSt11char_traitsIcESaIcEENSt7__cxx1112basic_stringIT_T0_T1_EEOS8_PKS5_
FNDA:12,_ZStplIcSt11char_traitsIcESaIcEENSt7__cxx1112basic_stringIT_T0_T1_EEOS8_PKS5_
FN:6660,_ZNSt7__cxx119to_stringEi
FNDA:24,_ZNSt7__cxx119to_stringEi
DA:158,73
DA:164,37
DA:165,37
DA:167,24
DA:168,24
DA:186,48
DA:187,0
DA:190,24
DA:191,24
DA:194,72
DA:195,0
DA:198,85
DA:201,24
DA:208,24
DA:211,24
DA:218,24
DA:219,0
DA:222,24
DA:224,24
DA:225,24
DA:229,24
DA:230,24
DA:294,24
DA:295,24
DA:299,0
DA:404,0
DA:406,0
DA:448,0
DA:449,0
DA:450,0
DA:533,13
DA:534,13
DA:536,13
DA:539,13
DA:540,13
DA:553,24
DA:554,24
DA:555,24
DA:565,24
DA:566,24
DA:568,24
DA:570,0
DA:575,24
DA:576,24
DA:582,24
DA:583,24
DA:584,24
DA:585,0
DA:671,6
DA:672,19
DA:920,0
DA:921,0
DA:926,24
DA:927,0
DA:976,0
DA:978,0
DA:1055,24
DA:1059,24
DA:1062,24
DA:1213,0
DA:1214,0
DA:1660,0
DA:1661,0
DA:1662,0
DA:2351,0
DA:2352,0
DA:6172,0
DA:6179,0
DA:6185,0
DA:6186,0
DA:6187,0
DA:6189,0
DA:6194,12
DA:6196,12
DA:6206,12
DA:6208,12
DA:6660,24
DA:6662,24
DA:6663,24
DA:6664,24
DA:6665,24
DA:6666,24
DA:6667,24
end_of_record
TN:
SF:/usr/include/c++/11/ext/alloc_traits.h
DA:97,0
DA:98,0
end_of_record
SF:/usr/include/c++/11/bits/stl_uninitialized.h
FN:986,_ZSt19__relocate_object_aINSt7__cxx1112basic_stringIcSt11char_traitsIcESaIcEEES5_SaIS5_EEvPT_PT0_RT1_
FNDA:44,_ZSt19__relocate_object_aINSt7__cxx1112basic_stringIcSt11char_traitsIcESaIcEEES5_SaIS5_EEvPT_PT0_RT1_
DA:578,5
DA:579,4
DA:702,1
DA:986,44
DA:994,44
DA:995,44
DA:996,44
DA:1006,0
DA:1009,0
DA:1010,0
DA:1011,0
DA:1012,0
DA:1031,76
DA:1032,44
DA:1040,0
DA:1046,0
end_of_record
SF:/usr/include/c++/11/streambuf
end_of_record
SF:/usr/include/c++/11/bits/basic_string.h
FN:533,_ZNSt7__cxx1112basic_stringIcSt11char_traitsIcESaIcEEC2IS3_EEPKcRKS3_
FNDA:60,_ZNSt7__cxx1112basic_stringIcSt11char_traitsIcESaIcEEC2IS3_EEPKcRKS3_
FN:6234,_ZSteqIcEN9__gnu_cxx11__enable_ifIXsrSt9__is_charIT_E7__valueEbE6__typeERKNSt7__cxx1112basic_stringIS3_St11char_traitsIS3_ESaIS3_EEESE_
FNDA:0,_ZSteqIcEN9__gnu_cxx11__enable_ifIXsrSt9__is_charIT_E7__valueEbE6__typeERKNSt7__cxx1112basic_stringIS3_St11char_traitsIS3_ESaIS3_EEESE_
FN:6660,_ZNSt7__cxx119to_stringEi
FNDA:0,_ZNSt7__cxx119to_stringEi
DA:158,292
DA:164,60
DA:165,60
DA:167,77
DA:168,33
DA:186,82
DA:187,0
DA:190,77
DA:191,77
DA:194,264
DA:195,0
DA:198,29
DA:201,48
DA:208,44
DA:211,44
DA:218,38
DA:219,0
DA:222,77
DA:224,77
DA:225,33
DA:229,44
DA:230,44
DA:294,44
DA:295,44
DA:299,0
DA:400,0
DA:401,0
DA:404,0
DA:406,0
DA:439,33
DA:441,33
DA:442,33
DA:448,0
DA:449,0
DA:450,0
DA:533,60
DA:534,60
DA:536,60
DA:539,60
DA:540,60
DA:553,0
DA:554,0
DA:555,0
DA:565,44
DA:566,44
DA:568,44
DA:570,6
DA:575,38
DA:576,38
DA:582,44
DA:583,44
DA:584,44
DA:671,67
DA:672,166
DA:920,100
DA:921,0
DA:926,69
DA:927,44
DA:1055,0
DA:1059,0
DA:1062,0
DA:1213,0
DA:1214,0
DA:2320,57
DA:2321,0
DA:2332,125
DA:2333,125
DA:2351,0
DA:2352,0
DA:6234,0
DA:6236,0
DA:6237,0
DA:6238,0
DA:6248,65
DA:6250,45
DA:6327,20
DA:6329,20
DA:6531,100
DA:6536,100
DA:6619,56
DA:6620,31
DA:6649,1
DA:6650,1
DA:6660,0
DA:6662,0
DA:6663,0
DA:6664,0
DA:6665,0
DA:6666,0
DA:6667,0
DA:6875,25
DA:6876,25
end_of_record
SF:/usr/include/c++/11/utility
DA:188,0
DA:189,0
DA:233,0
DA:234,0
end_of_record
SF:/usr/include/c++/11/bits/std_function.h
FN:586,_ZNKSt8functionIFPN8minerals17ResourceStructureEiiEEclEii
FNDA:20,_ZNKSt8functionIFPN8minerals17ResourceStructureEiiEEclEii
FN:586,_ZNKSt8functionIFPN8creature6LivingEiiEEclEii
FNDA:4,_ZNKSt8functionIFPN8creature6LivingEiiEEclEii
FN:586,_ZNKSt8functionIFPN8creature5HumanEiiNS0_13ENTITY_GENDEREEEclEiiS3_
FNDA:1,_ZNKSt8functionIFPN8creature5HumanEiiNS0_13ENTITY_GENDEREEEclEiiS3_
DA:247,25
DA:586,20
DA:588,20
DA:589,0
DA:590,20
DA:586,4
DA:588,4
DA:589,0
DA:590,4
DA:586,1
DA:588,1
DA:589,0
DA:590,1
end_of_record
SF:/usr/include/c++/11/bits/vector.tcc
FN:426,_ZNSt6vectorINSt7__cxx1112basic_stringIcSt11char_traitsIcESaIcEEESaIS5_EE17_M_realloc_insertIJRKS5_EEEvN9__gnu_cxx17__normal_iteratorIPS5_S7_EEDpOT_
FNDA:16,_ZNSt6vectorINSt7__cxx1112basic_stringIcSt11char_traitsIcESaIcEEESaIS5_EE17_M_realloc_insertIJRKS5_EEEvN9__gnu_cxx17__normal_iteratorIPS5_S7_EEDpOT_
FN:426,_ZNSt6vectorIPN8minerals17ResourceStructureESaIS2_EE17_M_realloc_insertIJRKS2_EEEvN9__gnu_cxx17__normal_iteratorIPS2_S4_EEDpOT_
FNDA:0,_ZNSt6vectorIPN8minerals17ResourceStructureESaIS2_EE17_M_realloc_insertIJRKS2_EEEvN9__gnu_cxx17__normal_iteratorIPS2_S4_EEDpOT_
FN:426,_ZNSt6vectorIPN8minerals5HouseESaIS2_EE17_M_realloc_insertIJRKS2_EEEvN9__gnu_cxx17__normal_iteratorIPS2_S4_EEDpOT_
FNDA:0,_ZNSt6vectorIPN8minerals5HouseESaIS2_EE17_M_realloc_insertIJRKS2_EEEvN9__gnu_cxx17__normal_iteratorIPS2_S4_EEDpOT_
FN:426,_ZNSt6vectorIPN8creature6LivingESaIS2_EE17_M_realloc_insertIJRKS2_EEEvN9__gnu_cxx17__normal_iteratorIPS2_S4_EEDpOT_
FNDA:0,_ZNSt6vectorIPN8creature6LivingESaIS2_EE17_M_realloc_insertIJRKS2_EEEvN9__gnu_cxx17__normal_iteratorIPS2_S4_EEDpOT_
FN:426,_ZNSt6vectorIPN8creature5HumanESaIS2_EE17_M_realloc_insertIJRKS2_EEEvN9__gnu_cxx17__normal_iteratorIPS2_S4_EEDpOT_
FNDA:0,_ZNSt6vectorIPN8creature5HumanESaIS2_EE17_M_realloc_insertIJRKS2_EEEvN9__gnu_cxx17__normal_iteratorIPS2_S4_EEDpOT_
DA:426,16
DA:436,16
DA:437,16
DA:438,16
DA:439,16
DA:440,16
DA:441,16
DA:449,32
DA:450,16
DA:456,16
DA:461,16
DA:462,16
DA:464,16
DA:466,32
DA:467,16
DA:485,0
DA:487,0
DA:488,0
DA:491,0
DA:492,0
DA:493,0
DA:500,32
DA:501,16
DA:502,16
DA:503,16
DA:504,16
DA:505,16
DA:426,0
DA:436,0
DA:437,0
DA:438,0
DA:439,0
DA:440,0
DA:441,0
DA:449,0
DA:450,0
DA:456,0
DA:461,0
DA:462,0
DA:464,0
DA:466,0
DA:467,0
DA:500,0
DA:501,0
DA:502,0
DA:503,0
DA:504,0
DA:505,0
DA:426,0
DA:436,0
DA:437,0
DA:438,0
DA:439,0
DA:440,0
DA:441,0
DA:449,0
DA:450,0
DA:456,0
DA:461,0
DA:462,0
DA:464,0
DA:466,0
DA:467,0
DA:500,0
DA:501,0
DA:502,0
DA:503,0
DA:504,0
DA:505,0
DA:426,0
DA:436,0
DA:437,0
DA:438,0
DA:439,0
DA:440,0
DA:441,0
DA:449,0
DA:450,0
DA:456,0
DA:461,0
DA:462,0
DA:464,0
DA:466,0
DA:467,0
DA:500,0
DA:501,0
DA:502,0
DA:503,0
DA:504,0
DA:505,0
DA:426,0
DA:436,0
DA:437,0
DA:438,0
DA:439,0
DA:440,0
DA:441,0
DA:449,0
DA:450,0
DA:456,0
DA:461,0
DA:462,0
DA:464,0
DA:466,0
DA:467,0
DA:500,0
DA:501,0
DA:502,0
DA:503,0
DA:504,0
DA:505,0
end_of_record
SF:/usr/include/c++/11/bits/allocator.h
DA:156,94
DA:159,138
DA:160,105
DA:174,182
end_of_record
SF:/usr/include/c++/11/bits/stl_vector.h
FN:333,_ZNSt12_Vector_baseINSt7__cxx1112basic_stringIcSt11char_traitsIcESaIcEEESaIS5_EED2Ev
FNDA:5,_ZNSt12_Vector_baseINSt7__cxx1112basic_stringIcSt11char_traitsIcESaIcEEESaIS5_EED2Ev
FN:359,_ZNSt12_Vector_baseINSt7__cxx1112basic_stringIcSt11char_traitsIcESaIcEEESaIS5_EE17_M_create_storageEm
FNDA:1,_ZNSt12_Vector_baseINSt7__cxx1112basic_stringIcSt11char_traitsIcESaIcEEESaIS5_EE17_M_create_storageEm
FN:510,_ZNSt6vectorINSt7__cxx1112basic_stringIcSt11char_traitsIcESaIcEEESaIS5_EEC2EmRKS6_
FNDA:1,_ZNSt6vectorINSt7__cxx1112basic_stringIcSt11char_traitsIcESaIcEEESaIS5_EEC2EmRKS6_
FN:678,_ZNSt6vectorINSt7__cxx1112basic_stringIcSt11char_traitsIcESaIcEEESaIS5_EED2Ev
FNDA:5,_ZNSt6vectorINSt7__cxx1112basic_stringIcSt11char_traitsIcESaIcEEESaIS5_EED2Ev
FN:1187,_ZNSt6vectorINSt7__cxx1112basic_stringIcSt11char_traitsIcESaIcEEESaIS5_EE9push_backERKS5_
FNDA:32,_ZNSt6vectorINSt7__cxx1112basic_stringIcSt11char_traitsIcESaIcEEESaIS5_EE9push_backERKS5_
FN:1187,_ZNSt6vectorIPN8minerals17ResourceStructureESaIS2_EE9push_backERKS2_
FNDA:20,_ZNSt6vectorIPN8minerals17ResourceStructureESaIS2_EE9push_backERKS2_
FN:1187,_ZNSt6vectorIPN8minerals5HouseESaIS2_EE9push_backERKS2_
FNDA:0,_ZNSt6vectorIPN8minerals5HouseESaIS2_EE9push_backERKS2_
FN:1187,_ZNSt6vectorIPN8creature6LivingESaIS2_EE9push_backERKS2_
FNDA:4,_ZNSt6vectorIPN8creature6LivingESaIS2_EE9push_backERKS2_
FN:1187,_ZNSt6vectorIPN8creature5HumanESaIS2_EE9push_backERKS2_
FNDA:1,_ZNSt6vectorIPN8creature5HumanESaIS2_EE9push_backERKS2_
FN:1756,_ZNKSt6vectorINSt7__cxx1112basic_stringIcSt11char_traitsIcESaIcEEESaIS5_EE12_M_check_lenEmPKc
FNDA:16,_ZNKSt6vectorINSt7__cxx1112basic_stringIcSt11char_traitsIcESaIcEEESaIS5_EE12_M_check_lenEmPKc
FN:1756,_ZNKSt6vectorIPN8minerals17ResourceStructureESaIS2_EE12_M_check_lenEmPKc
FNDA:0,_ZNKSt6vectorIPN8minerals17ResourceStructureESaIS2_EE12_M_check_lenEmPKc
FN:1756,_ZNKSt6vectorIPN8minerals5HouseESaIS2_EE12_M_check_lenEmPKc
FNDA:0,_ZNKSt6vectorIPN8minerals5HouseESaIS2_EE12_M_check_lenEmPKc
FN:1756,_ZNKSt6vectorIPN8creature6LivingESaIS2_EE12_M_check_lenEmPKc
FNDA:0,_ZNKSt6vectorIPN8creature6LivingESaIS2_EE12_M_check_lenEmPKc
FN:1756,_ZNKSt6vectorIPN8creature5HumanESaIS2_EE12_M_check_lenEmPKc
FNDA:0,_ZNKSt6vectorIPN8creature5HumanESaIS2_EE12_M_check_lenEmPKc
DA:97,5
DA:98,5
DA:128,5
DA:131,4
DA:133,4
DA:136,1
DA:137,1
DA:276,21
DA:277,16
DA:288,4
DA:303,1
DA:304,1
DA:305,1
DA:333,5
DA:335,10
DA:336,5
DA:337,5
DA:343,17
DA:346,17
DA:350,21
DA:353,21
DA:354,33
DA:359,1
DA:361,1
DA:362,1
DA:363,1
DA:364,1
DA:453,0
DA:456,0
DA:465,32
DA:469,0
DA:487,4
DA:510,1
DA:511,1
DA:512,1
DA:678,5
DA:680,10
DA:681,5
DA:683,5
DA:811,26
DA:812,26
DA:829,26
DA:830,26
DA:918,18
DA:919,2
DA:924,16
DA:1043,14
DA:1046,13
DA:1187,32
DA:1189,32
DA:1192,16
DA:1194,16
DA:1198,16
DA:1199,32
DA:1187,20
DA:1189,20
DA:1192,20
DA:1194,20
DA:1198,0
DA:1199,20
DA:1187,0
DA:1189,0
DA:1192,0
DA:1194,0
DA:1198,0
DA:1199,0
DA:1187,4
DA:1189,4
DA:1192,4
DA:1194,4
DA:1198,0
DA:1199,4
DA:1187,1
DA:1189,1
DA:1192,1
DA:1194,1
DA:1198,0
DA:1199,1
DA:1603,1
DA:1605,1
DA:1606,2
DA:1607,1
DA:1756,16
DA:1758,16
DA:1759,0
DA:1761,16
DA:1762,16
DA:1756,0
DA:1758,0
DA:1759,0
DA:1761,0
DA:1762,0
DA:1756,0
DA:1758,0
DA:1759,0
DA:1761,0
DA:1762,0
DA:1756,0
DA:1758,0
DA:1759,0
DA:1761,0
DA:1762,0
DA:1756,0
DA:1758,0
DA:1759,0
DA:1761,0
DA:1762,0
DA:1767,1
DA:1769,1
DA:1770,0
end_of_record
SF:/usr/include/c++/11/bits/stl_function.h
DA:369,0
DA:370,0
end_of_record
SF:/usr/include/c++/11/bits/stl_algobase.h
DA:254,16
DA:259,16
DA:260,4
end_of_record
SF:/usr/include/c++/11/ostream
DA:224,2
DA:228,2
DA:524,218
DA:525,218
end_of_record
SF:/usr/include/c++/11/bits/stl_construct.h
DA:109,4
DA:119,4
DA:146,36
DA:151,36
DA:162,41
DA:163,36
end_of_record
SF:/usr/include/c++/11/bits/stl_iterator_base_funcs.h
DA:98,0
DA:104,0
DA:138,0
DA:141,0
end_of_record
SF:/usr/include/c++/11/ext/string_conversions.h
FN:54,_ZN9__gnu_cxx6__stoaIddcJEEET0_PFT_PKT1_PPS3_DpT2_EPKcS5_PmS9_
FNDA:1,_ZN9__gnu_cxx6__stoaIddcJEEET0_PFT_PKT1_PPS3_DpT2_EPKcS5_PmS9_
FN:54,_ZN9__gnu_cxx6__stoaIlicJiEEET0_PFT_PKT1_PPS3_DpT2_EPKcS5_PmS9_
FNDA:0,_ZN9__gnu_cxx6__stoaIlicJiEEET0_PFT_PKT1_PPS3_DpT2_EPKcS5_PmS9_
FN:64,_ZZN9__gnu_cxx6__stoaIddcJEEET0_PFT_PKT1_PPS3_DpT2_EPKcS5_PmS9_EN11_Save_errnoD2Ev
FNDA:1,_ZZN9__gnu_cxx6__stoaIddcJEEET0_PFT_PKT1_PPS3_DpT2_EPKcS5_PmS9_EN11_Save_errnoD2Ev
FN:64,_ZZN9__gnu_cxx6__stoaIlicJiEEET0_PFT_PKT1_PPS3_DpT2_EPKcS5_PmS9_EN11_Save_errnoD2Ev
FNDA:0,_ZZN9__gnu_cxx6__stoaIlicJiEEET0_PFT_PKT1_PPS3_DpT2_EPKcS5_PmS9_EN11_Save_errnoD2Ev
DA:54,1
DA:63,1
DA:66,1
DA:80,1
DA:82,1
DA:83,0
DA:84,1
DA:85,1
DA:86,0
DA:88,1
DA:90,1
DA:91,0
DA:93,1
DA:94,1
DA:54,0
DA:63,0
DA:66,0
DA:73,0
DA:76,0
DA:80,0
DA:82,0
DA:83,0
DA:84,0
DA:85,0
DA:86,0
DA:88,0
DA:90,0
DA:91,0
DA:93,0
DA:94,0
DA:64,1
DA:64,0
end_of_record
SF:/usr/include/c++/11/bits/charconv.h
FN:47,_ZNSt8__detail14__to_chars_lenIjEEjT_i
FNDA:0,_ZNSt8__detail14__to_chars_lenIjEEjT_i
FN:72,_ZNSt8__detail18__to_chars_10_implIjEEvPcjT_
FNDA:0,_ZNSt8__detail18__to_chars_10_implIjEEvPcjT_
DA:47,0
DA:52,0
DA:53,0
DA:54,0
DA:55,0
DA:56,0
DA:58,0
DA:59,0
DA:60,0
DA:61,0
DA:62,0
DA:63,0
DA:72,0
DA:83,0
DA:84,0
DA:86,0
DA:87,0
DA:88,0
DA:89,0
DA:90,0
DA:92,0
DA:94,0
DA:95,0
DA:96,0
DA:99,0
DA:100,0
end_of_record
SF:/usr/include/c++/11/bits/functional_hash.h
DA:196,25
DA:198,25
end_of_record
SF:/usr/include/c++/11/bits/alloc_traits.h
DA:463,17
DA:464,17
DA:495,17
DA:496,17
DA:511,101
DA:516,161
DA:520,16
DA:531,44
DA:535,44
DA:539,0
DA:562,0
DA:563,0
DA:845,5
end_of_record
SF:/usr/include/c++/11/bits/basic_ios.h
DA:117,116
DA:118,116
DA:125,4
DA:126,4
DA:137,120
DA:138,120
DA:201,120
DA:202,120
end_of_record
SF:/usr/include/c++/11/bits/move.h
DA:104,77
end_of_record
SF:/usr/include/c++/11/bits/ios_base.h
DA:165,120
DA:166,120
end_of_record
SF:/usr/include/c++/11/bits/hashtable.h
FN:1603,_ZNKSt10_HashtableINSt7__cxx1112basic_stringIcSt11char_traitsIcESaIcEEESt4pairIKS5_St8functionIFPN8minerals17ResourceStructureEiiEEESaISE_ENSt8__detail10_Select1stESt8equal_toIS5_ESt4hashIS5_ENSG_18_Mod_range_hashingENSG_20_Default_ranged_hashENSG_20_Prime_rehash_policyENSG_17_Hashtable_traitsILb1ELb0ELb1EEEE4findERS7_
FNDA:20,_ZNKSt10_HashtableINSt7__cxx1112basic_stringIcSt11char_traitsIcESaIcEEESt4pairIKS5_St8functionIFPN8minerals17ResourceStructureEiiEEESaISE_ENSt8__detail10_Select1stESt8equal_toIS5_ESt4hashIS5_ENSG_18_Mod_range_hashingENSG_20_Default_ranged_hashENSG_20_Prime_rehash_policyENSG_17_Hashtable_traitsILb1ELb0ELb1EEEE4findERS7_
FN:1603,_ZNKSt10_HashtableINSt7__cxx1112basic_stringIcSt11char_traitsIcESaIcEEESt4pairIKS5_St8functionIFPN8creature6LivingEiiEEESaISE_ENSt8__detail10_Select1stESt8equal_toIS5_ESt4hashIS5_ENSG_18_Mod_range_hashingENSG_20_Default_ranged_hashENSG_20_Prime_rehash_policyENSG_17_Hashtable_traitsILb1ELb0ELb1EEEE4findERS7_
FNDA:4,_ZNKSt10_HashtableINSt7__cxx1112basic_stringIcSt11char_traitsIcESaIcEEESt4pairIKS5_St8functionIFPN8creature6LivingEiiEEESaISE_ENSt8__detail10_Select1stESt8equal_toIS5_ESt4hashIS5_ENSG_18_Mod_range_hashingENSG_20_Default_ranged_hashENSG_20_Prime_rehash_policyENSG_17_Hashtable_traitsILb1ELb0ELb1EEEE4findERS7_
FN:1603,_ZNKSt10_HashtableINSt7__cxx1112basic_stringIcSt11char_traitsIcESaIcEEESt4pairIKS5_St8functionIFPN8creature5HumanEiiNS9_13ENTITY_GENDEREEEESaISF_ENSt8__detail10_Select1stESt8equal_toIS5_ESt4hashIS5_ENSH_18_Mod_range_hashingENSH_20_Default_ranged_hashENSH_20_Prime_rehash_policyENSH_17_Hashtable_traitsILb1ELb0ELb1EEEE4findERS7_
FNDA:1,_ZNKSt10_HashtableINSt7__cxx1112basic_stringIcSt11char_traitsIcESaIcEEESt4pairIKS5_St8functionIFPN8creature5HumanEiiNS9_13ENTITY_GENDEREEEESaISF_ENSt8__detail10_Select1stESt8equal_toIS5_ESt4hashIS5_ENSH_18_Mod_range_hashingENSH_20_Default_ranged_hashENSH_20_Prime_rehash_policyENSH_17_Hashtable_traitsILb1ELb0ELb1EEEE4findERS7_
FN:1827,_ZNKSt10_HashtableINSt7__cxx1112basic_stringIcSt11char_traitsIcESaIcEEESt4pairIKS5_St8functionIFPN8minerals17ResourceStructureEiiEEESaISE_ENSt8__detail10_Select1stESt8equal_toIS5_ESt4hashIS5_ENSG_18_Mod_range_hashingENSG_20_Default_ranged_hashENSG_20_Prime_rehash_policyENSG_17_Hashtable_traitsILb1ELb0ELb1EEEE19_M_find_before_nodeEmRS7_m
FNDA:0,_ZNKSt10_HashtableINSt7__cxx1112basic_stringIcSt11char_traitsIcESaIcEEESt4pairIKS5_St8functionIFPN8minerals17ResourceStructureEiiEEESaISE_ENSt8__detail10_Select1stESt8equal_toIS5_ESt4hashIS5_ENSG_18_Mod_range_hashingENSG_20_Default_ranged_hashENSG_20_Prime_rehash_policyENSG_17_Hashtable_traitsILb1ELb0ELb1EEEE19_M_find_before_nodeEmRS7_m
FN:1827,_ZNKSt10_HashtableINSt7__cxx1112basic_stringIcSt11char_traitsIcESaIcEEESt4pairIKS5_St8functionIFPN8creature6LivingEiiEEESaISE_ENSt8__detail10_Select1stESt8equal_toIS5_ESt4hashIS5_ENSG_18_Mod_range_hashingENSG_20_Default_ranged_hashENSG_20_Prime_rehash_policyENSG_17_Hashtable_traitsILb1ELb0ELb1EEEE19_M_find_before_nodeEmRS7_m
FNDA:0,_ZNKSt10_HashtableINSt7__cxx1112basic_stringIcSt11char_traitsIcESaIcEEESt4pairIKS5_St8functionIFPN8creature6LivingEiiEEESaISE_ENSt8__detail10_Select1stESt8equal_toIS5_ESt4hashIS5_ENSG_18_Mod_range_hashingENSG_20_Default_ranged_hashENSG_20_Prime_rehash_policyENSG_17_Hashtable_traitsILb1ELb0ELb1EEEE19_M_find_before_nodeEmRS7_m
FN:1827,_ZNKSt10_HashtableINSt7__cxx1112basic_stringIcSt11char_traitsIcESaIcEEESt4pairIKS5_St8functionIFPN8creature5HumanEiiNS9_13ENTITY_GENDEREEEESaISF_ENSt8__detail10_Select1stESt8equal_toIS5_ESt4hashIS5_ENSH_18_Mod_range_hashingENSH_20_Default_ranged_hashENSH_20_Prime_rehash_policyENSH_17_Hashtable_traitsILb1ELb0ELb1EEEE19_M_find_before_nodeEmRS7_m
FNDA:0,_ZNKSt10_HashtableINSt7__cxx1112basic_stringIcSt11char_traitsIcESaIcEEESt4pairIKS5_St8functionIFPN8creature5HumanEiiNS9_13ENTITY_GENDEREEEESaISF_ENSt8__detail10_Select1stESt8equal_toIS5_ESt4hashIS5_ENSH_18_Mod_range_hashingENSH_20_Default_ranged_hashENSH_20_Prime_rehash_policyENSH_17_Hashtable_traitsILb1ELb0ELb1EEEE19_M_find_before_nodeEmRS7_m
DA:633,25
DA:634,25
DA:790,0
DA:791,0
DA:794,25
DA:795,25
DA:807,25
DA:810,50
DA:811,25
DA:812,25
DA:1603,20
DA:1608,20
DA:1609,20
DA:1610,20
DA:1603,4
DA:1608,4
DA:1609,4
DA:1610,4
DA:1603,1
DA:1608,1
DA:1609,1
DA:1610,1
DA:1827,0
DA:1833,0
DA:1834,0
DA:1837,0
DA:1840,0
DA:1843,0
DA:1827,0
DA:1833,0
DA:1834,0
DA:1837,0
DA:1840,0
DA:1843,0
DA:1827,0
DA:1833,0
DA:1834,0
DA:1837,0
DA:1840,0
DA:1843,0
end_of_record
SF:/usr/include/c++/11/iostream
end_of_record
SF:/usr/include/c++/11/bits/basic_string.tcc
FN:206,_ZNSt7__cxx1112basic_stringIcSt11char_traitsIcESaIcEE12_M_constructIPcEEvT_S7_St20forward_iterator_tag
FNDA:0,_ZNSt7__cxx1112basic_stringIcSt11char_traitsIcESaIcEE12_M_constructIPcEEvT_S7_St20forward_iterator_tag
FN:206,_ZNSt7__cxx1112basic_stringIcSt11char_traitsIcESaIcEE12_M_constructIPKcEEvT_S8_St20forward_iterator_tag
FNDA:0,_ZNSt7__cxx1112basic_stringIcSt11char_traitsIcESaIcEE12_M_constructIPKcEEvT_S8_St20forward_iterator_tag
FN:1169,_ZStplIcSt11char_traitsIcESaIcEENSt7__cxx1112basic_stringIT_T0_T1_EEPKS5_RKS8_
FNDA:0,_ZStplIcSt11char_traitsIcESaIcEENSt7__cxx1112basic_stringIT_T0_T1_EEPKS5_RKS8_
DA:206,0
DA:211,0
DA:212,0
DA:215,0
DA:217,0
DA:219,0
DA:220,0
DA:225,0
DA:232,0
DA:233,0
DA:206,0
DA:211,0
DA:212,0
DA:215,0
DA:217,0
DA:219,0
DA:220,0
DA:225,0
DA:232,0
DA:233,0
DA:1169,0
DA:1178,0
DA:1179,0
DA:1181,0
DA:1182,0
DA:1183,0
DA:1184,0
DA:1185,0
end_of_record
SF:/mnt/c/users/gabci/desktop/nhf2/src/exceptions/FileExceptions.h
FN:19,_ZN28ImportInvalidEntityExceptionC2ERKNSt7__cxx1112basic_stringIcSt11char_traitsIcESaIcEEE
FNDA:0,_ZN28ImportInvalidEntityExceptionC2ERKNSt7__cxx1112basic_stringIcSt11char_traitsIcESaIcEEE
FN:27,_ZN37ImportInvalidHumanProfessionExceptionC2ERKNSt7__cxx1112basic_stringIcSt11char_traitsIcESaIcEEE
FNDA:1,_ZN37ImportInvalidHumanProfessionExceptionC2ERKNSt7__cxx1112basic_stringIcSt11char_traitsIcESaIcEEE
FN:35,_ZN34ImportInvalidHousingLevelExceptionC2ERKNSt7__cxx1112basic_stringIcSt11char_traitsIcESaIcEEE
FNDA:0,_ZN34ImportInvalidHousingLevelExceptionC2ERKNSt7__cxx1112basic_stringIcSt11char_traitsIcESaIcEEE
FN:43,_ZN30ImportInvalidResourceExceptionC2ERKNSt7__cxx1112basic_stringIcSt11char_traitsIcESaIcEEE
FNDA:0,_ZN30ImportInvalidResourceExceptionC2ERKNSt7__cxx1112basic_stringIcSt11char_traitsIcESaIcEEE
FN:51,_ZN16ReadSaveFileFailC2ERKNSt7__cxx1112basic_stringIcSt11char_traitsIcESaIcEEE
FNDA:0,_ZN16ReadSaveFileFailC2ERKNSt7__cxx1112basic_stringIcSt11char_traitsIcESaIcEEE
DA:19,0
DA:27,2
DA:35,0
DA:43,0
DA:51,0
end_of_record
SF:/usr/include/c++/11/bits/locale_facets.h
FN:875,_ZNKSt5ctypeIcE5widenEc
FNDA:4,_ZNKSt5ctypeIcE5widenEc
DA:875,4
DA:877,4
DA:878,4
DA:879,0
DA:880,0
end_of_record
SF:/mnt/c/users/gabci/desktop/nhf2/src/TerrainContainer_def.hpp
FN:66,_ZN16TerrainContainerIPN5tiles4TileEE8set_seedEi
FNDA:1,_ZN16TerrainContainerIPN5tiles4TileEE8set_seedEi
FN:71,_ZNK16TerrainContainerIPN5tiles4TileEE8get_seedEv
FNDA:2,_ZNK16TerrainContainerIPN5tiles4TileEE8get_seedEv
DA:66,1
DA:67,1
DA:68,1
DA:71,2
DA:72,2
end_of_record
SF:/usr/include/c++/11/bits/hashtable_policy.h
DA:93,0
DA:95,0
DA:238,25
DA:242,0
DA:295,50
DA:385,50
DA:386,25
DA:398,25
DA:428,25
DA:430,25
DA:1215,25
DA:1219,25
DA:1232,25
DA:1233,25
DA:1247,0
DA:1251,0
DA:1595,0
DA:1596,0
DA:1611,0
DA:1617,0
end_of_record
SF:/usr/include/c++/11/bits/char_traits.h
DA:356,77
DA:357,77
DA:372,0
DA:374,0
DA:377,0
DA:389,0
DA:393,60
DA:396,60
DA:399,60
DA:429,6
DA:431,6
DA:437,6
end_of_record
SF:/mnt/c/users/gabci/desktop/nhf2/src/exceptions/SimulationException.h
FN:20,_ZN19SimulationExceptionC2ERKNSt7__cxx1112basic_stringIcSt11char_traitsIcESaIcEEE
FNDA:0,_ZN19SimulationExceptionC2ERKNSt7__cxx1112basic_stringIcSt11char_traitsIcESaIcEEE
DA:20,0
end_of_record
SF:/usr/include/c++/11/bits/stl_iterator.h
DA:1027,32
DA:1028,10
DA:1052,75
DA:1054,75
DA:1055,75
DA:1268,16
DA:1271,16
end_of_record
SF:/usr/include/c++/11/ext/new_allocator.h
FN:103,_ZN9__gnu_cxx13new_allocatorINSt7__cxx1112basic_stringIcSt11char_traitsIcESaIcEEEE8allocateEmPKv
FNDA:17,_ZN9__gnu_cxx13new_allocatorINSt7__cxx1112basic_stringIcSt11char_traitsIcESaIcEEEE8allocateEmPKv
FN:103,_ZN9__gnu_cxx13new_allocatorIPN8minerals17ResourceStructureEE8allocateEmPKv
FNDA:0,_ZN9__gnu_cxx13new_allocatorIPN8minerals17ResourceStructureEE8allocateEmPKv
FN:103,_ZN9__gnu_cxx13new_allocatorIPN8minerals5HouseEE8allocateEmPKv
FNDA:0,_ZN9__gnu_cxx13new_allocatorIPN8minerals5HouseEE8allocateEmPKv
FN:103,_ZN9__gnu_cxx13new_allocatorIPN8creature6LivingEE8allocateEmPKv
FNDA:0,_ZN9__gnu_cxx13new_allocatorIPN8creature6LivingEE8allocateEmPKv
FN:103,_ZN9__gnu_cxx13new_allocatorIPN8creature5HumanEE8allocateEmPKv
FNDA:0,_ZN9__gnu_cxx13new_allocatorIPN8creature5HumanEE8allocateEmPKv
DA:79,94
DA:82,138
DA:89,182
DA:103,17
DA:111,17
DA:115,0
DA:116,0
DA:117,0
DA:127,17
DA:103,0
DA:111,0
DA:115,0
DA:116,0
DA:117,0
DA:127,0
DA:103,0
DA:111,0
DA:115,0
DA:116,0
DA:117,0
DA:127,0
DA:103,0
DA:111,0
DA:115,0
DA:116,0
DA:117,0
DA:127,0
DA:103,0
DA:111,0
DA:115,0
DA:116,0
DA:117,0
DA:127,0
DA:132,17
DA:145,17
DA:160,101
DA:162,145
DA:166,44
DA:168,0
end_of_record
SF:/usr/include/c++/11/sstream
end_of_record
SF:/mnt/c/users/gabci/desktop/nhf2/src/WorldBaseSerializable.cpp
FN:3,_ZlsRSoR21WorldBaseSerialiazble
FNDA:2,_ZlsRSoR21WorldBaseSerialiazble
FN:4,_ZZlsRSoR21WorldBaseSerialiazbleENKUlS_RKNSt7__cxx1112basic_stringIcSt11char_traitsIcESaIcEEEiiS9_E_clES_S9_iiS9_
FNDA:50,_ZZlsRSoR21WorldBaseSerialiazbleENKUlS_RKNSt7__cxx1112basic_stringIcSt11char_traitsIcESaIcEEEiiS9_E_clES_S9_iiS9_
FN:35,_ZN21WorldBaseSerialiazble22process_creature_chunkERKNSt7__cxx1112basic_stringIcSt11char_traitsIcESaIcEEE
FNDA:5,_ZN21WorldBaseSerialiazble22process_creature_chunkERKNSt7__cxx1112basic_stringIcSt11char_traitsIcESaIcEEE
FN:62,_ZN21WorldBaseSerialiazble23process_structure_chunkERKNSt7__cxx1112basic_stringIcSt11char_traitsIcESaIcEEE
FNDA:20,_ZN21WorldBaseSerialiazble23process_structure_chunkERKNSt7__cxx1112basic_stringIcSt11char_traitsIcESaIcEEE
FN:95,_ZrsRSt14basic_ifstreamIcSt11char_traitsIcEER21WorldBaseSerialiazble
FNDA:1,_ZrsRSt14basic_ifstreamIcSt11char_traitsIcEER21WorldBaseSerialiazble
FN:102,_ZZrsRSt14basic_ifstreamIcSt11char_traitsIcEER21WorldBaseSerialiazbleENKUlRKNSt7__cxx1112basic_stringIcS1_SaIcEEEcE_clESB_c
FNDA:4,_ZZrsRSt14basic_ifstreamIcSt11char_traitsIcEER21WorldBaseSerialiazbleENKUlRKNSt7__cxx1112basic_stringIcS1_SaIcEEEcE_clESB_c
DA:3,2
DA:4,52
DA:5,50
DA:6,50
DA:8,2
DA:11,2
DA:12,2
DA:15,10
DA:16,16
DA:17,4
DA:18,4
DA:19,2
DA:22,2
DA:23,0
DA:24,42
DA:25,80
DA:27,2
DA:28,0
DA:31,2
DA:32,2
DA:35,5
DA:36,5
DA:37,5
DA:38,5
DA:39,5
DA:40,5
DA:41,5
DA:43,5
DA:44,1
DA:45,1
DA:46,1
DA:47,1
DA:48,1
DA:49,1
DA:51,4
DA:52,4
DA:53,4
DA:54,4
DA:55,4
DA:56,4
DA:59,5
DA:60,5
DA:62,20
DA:63,20
DA:64,20
DA:65,20
DA:66,20
DA:67,20
DA:69,20
DA:70,0
DA:71,0
DA:72,0
DA:73,0
DA:74,0
DA:75,0
DA:76,0
DA:77,0
DA:78,0
DA:81,0
DA:82,20
DA:83,0
DA:84,0
DA:85,20
DA:86,20
DA:87,20
DA:88,20
DA:89,20
DA:92,20
DA:93,20
DA:95,1
DA:96,1
DA:97,5
DA:98,4
DA:100,1
DA:102,5
DA:103,4
DA:104,4
DA:105,4
DA:106,36
DA:107,32
DA:109,8
DA:110,4
DA:113,1
DA:114,1
DA:115,1
DA:116,1
DA:117,1
DA:119,1
DA:120,1
DA:123,1
DA:124,1
DA:125,1
DA:126,1
DA:127,1
DA:128,1
DA:131,6
DA:132,5
DA:133,1
DA:136,21
DA:137,20
DA:138,1
DA:140,1
DA:141,1
end_of_record
SF:/usr/include/c++/11/bits/unordered_map.h
DA:356,25
DA:357,25
DA:879,25
DA:880,25
end_of_record
SF:/usr/include/c++/11/ext/aligned_buffer.h
DA:110,0
DA:115,25
end_of_record
TN:
SF:/usr/include/c++/11/bits/char_traits.h
DA:356,0
DA:357,0
DA:393,169
DA:396,169
DA:399,169
end_of_record
SF:/mnt/c/users/gabci/desktop/nhf2/src/world_object/BerryBush.cpp
FN:4,_ZN8minerals9BerryBushC2Eii
FNDA:164,_ZN8minerals9BerryBushC2Eii
FN:7,_ZNK8minerals9BerryBush8get_typeEv
FNDA:24,_ZNK8minerals9BerryBush8get_typeEv
FN:11,_ZN8minerals9BerryBush12update_logicEf
FNDA:82,_ZN8minerals9BerryBush12update_logicEf
FN:19,_ZN8minerals9BerryBush7harvestEv
FNDA:6,_ZN8minerals9BerryBush7harvestEv
FN:32,_ZN8minerals9BerryBush14refill_berriesEv
FNDA:1,_ZN8minerals9BerryBush14refill_berriesEv
FN:38,_ZNK8minerals9BerryBush18play_destroy_soundER11SoundPlayer
FNDA:0,_ZNK8minerals9BerryBush18play_destroy_soundER11SoundPlayer
DA:4,164
DA:5,164
DA:6,164
DA:7,24
DA:8,24
DA:11,82
DA:12,82
DA:13,82
DA:14,1
DA:15,1
DA:17,82
DA:19,6
DA:20,6
DA:21,6
DA:22,4
DA:23,4
DA:24,4
DA:25,4
DA:32,1
DA:33,1
DA:34,1
DA:35,1
DA:37,1
DA:38,0
DA:39,0
DA:40,0
end_of_record
SF:/mnt/c/users/gabci/desktop/nhf2/src/Shadowable.h
FN:73,_ZN10ShadowableD0Ev
FNDA:0,_ZN10ShadowableD0Ev
FN:73,_ZN10ShadowableD2Ev
FNDA:0,_ZN10ShadowableD2Ev
DA:73,0
DA:73,0
DA:73,160
end_of_record
SF:/mnt/c/users/gabci/desktop/nhf2/src/Textureable.h
DA:28,160
end_of_record
SF:/usr/include/c++/11/bits/basic_string.tcc
FN:206,_ZNSt7__cxx1112basic_stringIcSt11char_traitsIcESaIcEE12_M_constructIPKcEEvT_S8_St20forward_iterator_tag
FNDA:0,_ZNSt7__cxx1112basic_stringIcSt11char_traitsIcESaIcEE12_M_constructIPKcEEvT_S8_St20forward_iterator_tag
DA:206,0
DA:211,0
DA:212,0
DA:215,0
DA:217,0
DA:219,0
DA:220,0
DA:225,0
DA:232,0
DA:233,0
end_of_record
SF:/mnt/c/users/gabci/desktop/nhf2/src/world_object/ResourceStructure.h
DA:31,0
end_of_record
SF:/mnt/c/users/gabci/desktop/nhf2/src/world_object/Structure.h
FN:72,_ZN8minerals9StructureD0Ev
FNDA:0,_ZN8minerals9StructureD0Ev
FN:72,_ZN8minerals9StructureD2Ev
FNDA:160,_ZN8minerals9StructureD2Ev
DA:72,0
DA:72,160
end_of_record
SF:/usr/include/c++/11/ext/new_allocator.h
DA:79,169
DA:82,169
DA:89,169
end_of_record
SF:/usr/include/c++/11/bits/allocator.h
DA:156,169
DA:159,169
DA:160,169
DA:174,169
end_of_record
SF:/usr/include/c++/11/bits/basic_string.h
FN:533,_ZNSt7__cxx1112basic_stringIcSt11char_traitsIcESaIcEEC2IS3_EEPKcRKS3_
FNDA:169,_ZNSt7__cxx1112basic_stringIcSt11char_traitsIcESaIcEEC2IS3_EEPKcRKS3_
DA:158,169
DA:164,169
DA:165,169
DA:186,0
DA:187,0
DA:190,0
DA:191,0
DA:194,0
DA:195,0
DA:198,169
DA:201,169
DA:218,0
DA:219,0
DA:222,0
DA:224,0
DA:225,0
DA:404,0
DA:406,0
DA:533,169
DA:534,169
DA:536,169
DA:539,169
DA:540,169
DA:671,169
DA:672,169
end_of_record
SF:/usr/include/c++/11/iostream
end_of_record
SF:/mnt/c/users/gabci/desktop/nhf2/src/world_object/BerryBush.h
end_of_record
SF:/usr/include/c++/11/bits/stl_iterator_base_funcs.h
DA:98,0
DA:104,0
DA:138,0
DA:141,0
end_of_record
TN:
SF:/usr/include/c++/11/ext/new_allocator.h
DA:79,5
DA:82,5
DA:89,5
end_of_record
SF:/mnt/c/users/gabci/desktop/nhf2/src/world_object/Structure.h
FN:72,_ZN8minerals9StructureD0Ev
FNDA:0,_ZN8minerals9StructureD0Ev
FN:72,_ZN8minerals9StructureD2Ev
FNDA:3,_ZN8minerals9StructureD2Ev
DA:72,0
DA:72,3
end_of_record
SF:/mnt/c/users/gabci/desktop/nhf2/src/world_object/CityCenter.h
end_of_record
SF:/mnt/c/users/gabci/desktop/nhf2/src/exceptions/SimulationException.h
FN:20,_ZN19SimulationExceptionC2ERKNSt7__cxx1112basic_stringIcSt11char_traitsIcESaIcEEE
FNDA:0,_ZN19SimulationExceptionC2ERKNSt7__cxx1112basic_stringIcSt11char_traitsIcESaIcEEE
DA:20,0
end_of_record
SF:/usr/include/c++/11/bits/char_traits.h
DA:356,0
DA:357,0
DA:393,5
DA:396,5
DA:399,5
end_of_record
SF:/mnt/c/users/gabci/desktop/nhf2/src/Shadowable.h
FN:73,_ZN10ShadowableD0Ev
FNDA:0,_ZN10ShadowableD0Ev
FN:73,_ZN10ShadowableD2Ev
FNDA:0,_ZN10ShadowableD2Ev
DA:73,0
DA:73,0
DA:73,3
end_of_record
SF:/mnt/c/users/gabci/desktop/nhf2/src/Textureable.h
DA:28,3
end_of_record
SF:/usr/include/c++/11/bits/basic_string.tcc
FN:206,_ZNSt7__cxx1112basic_stringIcSt11char_traitsIcESaIcEE12_M_constructIPKcEEvT_S8_St20forward_iterator_tag
FNDA:0,_ZNSt7__cxx1112basic_stringIcSt11char_traitsIcESaIcEE12_M_constructIPKcEEvT_S8_St20forward_iterator_tag
FN:1169,_ZStplIcSt11char_traitsIcESaIcEENSt7__cxx1112basic_stringIT_T0_T1_EEPKS5_RKS8_
FNDA:0,_ZStplIcSt11char_traitsIcESaIcEENSt7__cxx1112basic_stringIT_T0_T1_EEPKS5_RKS8_
DA:206,0
DA:211,0
DA:212,0
DA:215,0
DA:217,0
DA:219,0
DA:220,0
DA:225,0
DA:232,0
DA:233,0
DA:1169,0
DA:1178,0
DA:1179,0
DA:1181,0
DA:1182,0
DA:1183,0
DA:1184,0
DA:1185,0
end_of_record
SF:/mnt/c/users/gabci/desktop/nhf2/src/world_object/CityCenter.cpp
FN:6,_ZN8minerals10CityCenterC2Eii
FNDA:4,_ZN8minerals10CityCenterC2Eii
FN:12,_ZN8minerals10CityCenter25is_there_room_for_housingEv
FNDA:18,_ZN8minerals10CityCenter25is_there_room_for_housingEv
FN:20,_ZN8minerals10CityCenter18register_new_houseEv
FNDA:16,_ZN8minerals10CityCenter18register_new_houseEv
FN:27,_ZNK8minerals10CityCenter8get_typeEv
FNDA:1,_ZNK8minerals10CityCenter8get_typeEv
FN:31,_ZN8minerals10CityCenter12update_logicEf
FNDA:2,_ZN8minerals10CityCenter12update_logicEf
FN:35,_ZN8minerals10CityCenter18get_settlement_ageB5cxx11Ev
FNDA:0,_ZN8minerals10CityCenter18get_settlement_ageB5cxx11Ev
DA:6,4
DA:7,4
DA:8,4
DA:9,4
DA:10,4
DA:12,18
DA:13,18
DA:14,18
DA:15,16
DA:20,16
DA:21,16
DA:22,16
DA:23,2
DA:25,15
DA:27,1
DA:28,1
DA:31,2
DA:32,2
DA:33,2
DA:35,0
DA:36,0
DA:37,0
DA:38,0
DA:39,0
DA:40,0
end_of_record
SF:/usr/include/c++/11/iostream
end_of_record
SF:/usr/include/c++/11/bits/stl_iterator_base_funcs.h
DA:98,0
DA:104,0
DA:138,0
DA:141,0
end_of_record
SF:/usr/include/c++/11/bits/alloc_traits.h
DA:562,0
DA:563,0
end_of_record
SF:/usr/include/c++/11/bits/allocator.h
DA:156,5
DA:159,5
DA:160,5
DA:174,5
end_of_record
SF:/mnt/c/users/gabci/desktop/nhf2/src/exceptions/WorldExceptions.h
DA:27,1
end_of_record
SF:/usr/include/c++/11/ext/alloc_traits.h
DA:97,0
DA:98,0
end_of_record
SF:/usr/include/c++/11/bits/basic_string.h
FN:533,_ZNSt7__cxx1112basic_stringIcSt11char_traitsIcESaIcEEC2IS3_EEPKcRKS3_
FNDA:5,_ZNSt7__cxx1112basic_stringIcSt11char_traitsIcESaIcEEC2IS3_EEPKcRKS3_
DA:158,5
DA:164,5
DA:165,5
DA:186,0
DA:187,0
DA:190,0
DA:191,0
DA:194,0
DA:195,0
DA:198,5
DA:201,5
DA:218,0
DA:219,0
DA:222,0
DA:224,0
DA:225,0
DA:299,0
DA:404,0
DA:406,0
DA:448,0
DA:449,0
DA:450,0
DA:533,5
DA:534,5
DA:536,5
DA:539,5
DA:540,5
DA:671,5
DA:672,5
DA:920,0
DA:921,0
DA:1169,0
DA:1170,0
DA:1178,0
DA:1180,0
DA:1181,0
DA:1213,0
DA:1214,0
DA:2351,0
DA:2352,0
end_of_record
TN:
SF:/usr/include/c++/11/bits/basic_string.tcc
FN:206,_ZNSt7__cxx1112basic_stringIcSt11char_traitsIcESaIcEE12_M_constructIPKcEEvT_S8_St20forward_iterator_tag
FNDA:0,_ZNSt7__cxx1112basic_stringIcSt11char_traitsIcESaIcEE12_M_constructIPKcEEvT_S8_St20forward_iterator_tag
DA:206,0
DA:211,0
DA:212,0
DA:215,0
DA:217,0
DA:219,0
DA:220,0
DA:225,0
DA:232,0
DA:233,0
end_of_record
SF:/mnt/c/users/gabci/desktop/nhf2/src/Shadowable.h
FN:73,_ZN10ShadowableD0Ev
FNDA:0,_ZN10ShadowableD0Ev
FN:73,_ZN10ShadowableD2Ev
FNDA:0,_ZN10ShadowableD2Ev
DA:73,0
DA:73,0
DA:73,2
end_of_record
SF:/mnt/c/users/gabci/desktop/nhf2/src/Textureable.h
DA:28,2
end_of_record
SF:/usr/include/c++/11/bits/char_traits.h
DA:356,0
DA:357,0
DA:393,6
DA:396,6
DA:399,6
DA:429,0
DA:431,0
DA:437,0
end_of_record
SF:/mnt/c/users/gabci/desktop/nhf2/src/world_object/Structure.h
FN:72,_ZN8minerals9StructureD0Ev
FNDA:0,_ZN8minerals9StructureD0Ev
FN:72,_ZN8minerals9StructureD2Ev
FNDA:2,_ZN8minerals9StructureD2Ev
DA:72,0
DA:72,2
end_of_record
SF:/usr/include/c++/11/ext/new_allocator.h
DA:79,9
DA:82,9
DA:89,9
end_of_record
SF:/mnt/c/users/gabci/desktop/nhf2/src/world_object/House.h
end_of_record
SF:/usr/include/c++/11/bits/basic_string.h
FN:533,_ZNSt7__cxx1112basic_stringIcSt11char_traitsIcESaIcEEC2IS3_EEPKcRKS3_
FNDA:6,_ZNSt7__cxx1112basic_stringIcSt11char_traitsIcESaIcEEC2IS3_EEPKcRKS3_
FN:6172,_ZStplIcSt11char_traitsIcESaIcEENSt7__cxx1112basic_stringIT_T0_T1_EEOS8_S9_
FNDA:0,_ZStplIcSt11char_traitsIcESaIcEENSt7__cxx1112basic_stringIT_T0_T1_EEOS8_S9_
FN:6660,_ZNSt7__cxx119to_stringEi
FNDA:3,_ZNSt7__cxx119to_stringEi
DA:158,15
DA:164,9
DA:165,9
DA:167,0
DA:168,0
DA:186,0
DA:187,0
DA:190,0
DA:191,0
DA:194,3
DA:195,0
DA:198,9
DA:201,0
DA:208,0
DA:211,0
DA:218,0
DA:219,0
DA:222,0
DA:224,0
DA:225,0
DA:229,0
DA:230,0
DA:294,0
DA:295,0
DA:404,0
DA:406,0
DA:533,6
DA:534,6
DA:536,6
DA:539,6
DA:540,6
DA:553,3
DA:554,3
DA:555,3
DA:565,0
DA:566,0
DA:568,0
DA:570,0
DA:575,0
DA:576,0
DA:582,0
DA:583,0
DA:584,0
DA:585,0
DA:671,3
DA:672,3
DA:920,0
DA:921,0
DA:926,0
DA:927,0
DA:976,0
DA:978,0
DA:1055,3
DA:1059,3
DA:1062,3
DA:1213,0
DA:1214,0
DA:1660,0
DA:1661,0
DA:1662,0
DA:6172,0
DA:6179,0
DA:6185,0
DA:6186,0
DA:6187,0
DA:6189,0
DA:6660,3
DA:6662,3
DA:6663,3
DA:6664,3
DA:6665,3
DA:6666,3
DA:6667,3
end_of_record
SF:/usr/include/c++/11/bits/allocator.h
DA:156,9
DA:159,9
DA:160,9
DA:174,9
end_of_record
SF:/mnt/c/users/gabci/desktop/nhf2/src/world_object/House.cpp
FN:4,_ZN8minerals5HouseC2Eii
FNDA:3,_ZN8minerals5HouseC2Eii
FN:16,_ZNK8minerals5House8get_typeEv
FNDA:1,_ZNK8minerals5House8get_typeEv
FN:19,_ZN8minerals5House12update_logicEf
FNDA:1,_ZN8minerals5House12update_logicEf
DA:4,3
DA:5,3
DA:6,3
DA:7,3
DA:8,3
DA:9,3
DA:11,3
DA:12,6
DA:13,3
DA:14,3
DA:16,1
DA:17,1
DA:19,1
DA:20,1
DA:22,1
DA:23,0
DA:24,0
DA:25,0
DA:26,0
DA:27,0
DA:29,0
DA:30,0
DA:32,0
DA:33,0
DA:34,0
DA:35,0
DA:37,0
DA:38,0
DA:39,0
DA:41,1
end_of_record
SF:/usr/include/c++/11/bits/charconv.h
FN:47,_ZNSt8__detail14__to_chars_lenIjEEjT_i
FNDA:3,_ZNSt8__detail14__to_chars_lenIjEEjT_i
FN:72,_ZNSt8__detail18__to_chars_10_implIjEEvPcjT_
FNDA:0,_ZNSt8__detail18__to_chars_10_implIjEEvPcjT_
DA:47,3
DA:52,3
DA:53,3
DA:54,3
DA:55,3
DA:56,0
DA:58,3
DA:59,0
DA:60,0
DA:61,0
DA:62,0
DA:63,0
DA:72,0
DA:83,0
DA:84,0
DA:86,0
DA:87,0
DA:88,0
DA:89,0
DA:90,0
DA:92,0
DA:94,0
DA:95,0
DA:96,0
DA:99,0
DA:100,0
end_of_record
SF:/usr/include/c++/11/bits/stl_iterator_base_funcs.h
DA:98,0
DA:104,0
DA:138,0
DA:141,0
end_of_record
SF:/usr/include/c++/11/iostream
end_of_record
SF:/usr/include/c++/11/bits/move.h
DA:104,0
end_of_record
TN:
SF:/usr/include/c++/11/iostream
end_of_record
SF:/mnt/c/users/gabci/desktop/nhf2/src/world_object/Iron.h
end_of_record
SF:/usr/include/c++/11/bits/stl_iterator_base_funcs.h
DA:98,0
DA:104,0
DA:138,0
DA:141,0
end_of_record
SF:/usr/include/c++/11/bits/allocator.h
DA:156,82
DA:159,82
DA:160,82
DA:174,82
end_of_record
SF:/usr/include/c++/11/bits/basic_string.h
FN:533,_ZNSt7__cxx1112basic_stringIcSt11char_traitsIcESaIcEEC2IS3_EEPKcRKS3_
FNDA:82,_ZNSt7__cxx1112basic_stringIcSt11char_traitsIcESaIcEEC2IS3_EEPKcRKS3_
DA:158,82
DA:164,82
DA:165,82
DA:186,0
DA:187,0
DA:190,0
DA:191,0
DA:194,0
DA:195,0
DA:198,82
DA:201,82
DA:218,0
DA:219,0
DA:222,0
DA:224,0
DA:225,0
DA:404,0
DA:406,0
DA:533,82
DA:534,82
DA:536,82
DA:539,82
DA:540,82
DA:671,82
DA:672,82
end_of_record
SF:/mnt/c/users/gabci/desktop/nhf2/src/world_object/Iron.cpp
FN:4,_ZN8minerals4IronC2Eii
FNDA:82,_ZN8minerals4IronC2Eii
FN:8,_ZNK8minerals4Iron8get_typeEv
FNDA:11,_ZNK8minerals4Iron8get_typeEv
FN:12,_ZN8minerals4Iron12update_logicEf
FNDA:40,_ZN8minerals4Iron12update_logicEf
FN:16,_ZN8minerals4Iron7harvestEv
FNDA:2,_ZN8minerals4Iron7harvestEv
FN:28,_ZNK8minerals4Iron18play_destroy_soundER11SoundPlayer
FNDA:0,_ZNK8minerals4Iron18play_destroy_soundER11SoundPlayer
DA:4,82
DA:5,82
DA:6,82
DA:8,11
DA:9,11
DA:12,40
DA:13,40
DA:14,40
DA:16,2
DA:17,2
DA:18,2
DA:20,1
DA:21,1
DA:25,2
DA:28,0
DA:29,0
DA:30,0
end_of_record
SF:/usr/include/c++/11/ext/new_allocator.h
DA:79,82
DA:82,82
DA:89,82
end_of_record
SF:/mnt/c/users/gabci/desktop/nhf2/src/world_object/Structure.h
FN:72,_ZN8minerals9StructureD0Ev
FNDA:0,_ZN8minerals9StructureD0Ev
FN:72,_ZN8minerals9StructureD2Ev
FNDA:80,_ZN8minerals9StructureD2Ev
DA:72,0
DA:72,80
end_of_record
SF:/mnt/c/users/gabci/desktop/nhf2/src/world_object/ResourceStructure.h
DA:31,0
end_of_record
SF:/usr/include/c++/11/bits/char_traits.h
DA:356,0
DA:357,0
DA:393,82
DA:396,82
DA:399,82
end_of_record
SF:/usr/include/c++/11/bits/basic_string.tcc
FN:206,_ZNSt7__cxx1112basic_stringIcSt11char_traitsIcESaIcEE12_M_constructIPKcEEvT_S8_St20forward_iterator_tag
FNDA:0,_ZNSt7__cxx1112basic_stringIcSt11char_traitsIcESaIcEE12_M_constructIPKcEEvT_S8_St20forward_iterator_tag
DA:206,0
DA:211,0
DA:212,0
DA:215,0
DA:217,0
DA:219,0
DA:220,0
DA:225,0
DA:232,0
DA:233,0
end_of_record
SF:/mnt/c/users/gabci/desktop/nhf2/src/Shadowable.h
FN:73,_ZN10ShadowableD0Ev
FNDA:0,_ZN10ShadowableD0Ev
FN:73,_ZN10ShadowableD2Ev
FNDA:0,_ZN10ShadowableD2Ev
DA:73,0
DA:73,0
DA:73,80
end_of_record
SF:/mnt/c/users/gabci/desktop/nhf2/src/Textureable.h
DA:28,80
end_of_record
TN:
SF:/usr/include/c++/11/iostream
end_of_record
SF:/mnt/c/users/gabci/desktop/nhf2/src/world_object/ResourceStructure.cpp
FN:4,_ZN8minerals17ResourceStructureC2Eii
FNDA:410,_ZN8minerals17ResourceStructureC2Eii
FN:8,_ZNK8minerals17ResourceStructure13get_harvestedEv
FNDA:0,_ZNK8minerals17ResourceStructure13get_harvestedEv
DA:4,410
DA:5,410
DA:6,410
DA:7,410
DA:8,0
DA:9,0
end_of_record
TN:
SF:/usr/include/c++/11/bits/stl_iterator_base_funcs.h
DA:98,0
DA:104,0
DA:138,0
DA:141,0
end_of_record
SF:/mnt/c/users/gabci/desktop/nhf2/src/world_object/Stone.cpp
FN:4,_ZN8minerals5StoneC2Eii
FNDA:82,_ZN8minerals5StoneC2Eii
FN:8,_ZNK8minerals5Stone8get_typeEv
FNDA:9,_ZNK8minerals5Stone8get_typeEv
FN:12,_ZN8minerals5Stone12update_logicEf
FNDA:40,_ZN8minerals5Stone12update_logicEf
FN:16,_ZN8minerals5Stone7harvestEv
FNDA:2,_ZN8minerals5Stone7harvestEv
FN:26,_ZNK8minerals5Stone18play_destroy_soundER11SoundPlayer
FNDA:0,_ZNK8minerals5Stone18play_destroy_soundER11SoundPlayer
DA:4,82
DA:5,82
DA:6,82
DA:8,9
DA:9,9
DA:12,40
DA:13,40
DA:14,40
DA:16,2
DA:17,2
DA:18,2
DA:19,1
DA:20,1
DA:23,2
DA:26,0
DA:27,0
DA:28,0
end_of_record
SF:/usr/include/c++/11/iostream
end_of_record
SF:/usr/include/c++/11/bits/basic_string.h
FN:533,_ZNSt7__cxx1112basic_stringIcSt11char_traitsIcESaIcEEC2IS3_EEPKcRKS3_
FNDA:82,_ZNSt7__cxx1112basic_stringIcSt11char_traitsIcESaIcEEC2IS3_EEPKcRKS3_
DA:158,82
DA:164,82
DA:165,82
DA:186,0
DA:187,0
DA:190,0
DA:191,0
DA:194,0
DA:195,0
DA:198,82
DA:201,82
DA:218,0
DA:219,0
DA:222,0
DA:224,0
DA:225,0
DA:404,0
DA:406,0
DA:533,82
DA:534,82
DA:536,82
DA:539,82
DA:540,82
DA:671,82
DA:672,82
end_of_record
SF:/mnt/c/users/gabci/desktop/nhf2/src/world_object/Stone.h
end_of_record
SF:/usr/include/c++/11/bits/allocator.h
DA:156,82
DA:159,82
DA:160,82
DA:174,82
end_of_record
SF:/usr/include/c++/11/ext/new_allocator.h
DA:79,82
DA:82,82
DA:89,82
end_of_record
SF:/mnt/c/users/gabci/desktop/nhf2/src/world_object/Structure.h
FN:72,_ZN8minerals9StructureD0Ev
FNDA:0,_ZN8minerals9StructureD0Ev
FN:72,_ZN8minerals9StructureD2Ev
FNDA:80,_ZN8minerals9StructureD2Ev
DA:72,0
DA:72,80
end_of_record
SF:/mnt/c/users/gabci/desktop/nhf2/src/world_object/ResourceStructure.h
DA:31,0
end_of_record
SF:/usr/include/c++/11/bits/basic_string.tcc
FN:206,_ZNSt7__cxx1112basic_stringIcSt11char_traitsIcESaIcEE12_M_constructIPKcEEvT_S8_St20forward_iterator_tag
FNDA:0,_ZNSt7__cxx1112basic_stringIcSt11char_traitsIcESaIcEE12_M_constructIPKcEEvT_S8_St20forward_iterator_tag
DA:206,0
DA:211,0
DA:212,0
DA:215,0
DA:217,0
DA:219,0
DA:220,0
DA:225,0
DA:232,0
DA:233,0
end_of_record
SF:/mnt/c/users/gabci/desktop/nhf2/src/Textureable.h
DA:28,80
end_of_record
SF:/mnt/c/users/gabci/desktop/nhf2/src/Shadowable.h
FN:73,_ZN10ShadowableD0Ev
FNDA:0,_ZN10ShadowableD0Ev
FN:73,_ZN10ShadowableD2Ev
FNDA:0,_ZN10ShadowableD2Ev
DA:73,0
DA:73,0
DA:73,80
end_of_record
SF:/usr/include/c++/11/bits/char_traits.h
DA:356,0
DA:357,0
DA:393,82
DA:396,82
DA:399,82
end_of_record
TN:
SF:/usr/include/c++/11/iostream
end_of_record
SF:/mnt/c/users/gabci/desktop/nhf2/src/Shadowable.h
FN:73,_ZN10ShadowableD0Ev
FNDA:0,_ZN10ShadowableD0Ev
FN:73,_ZN10ShadowableD2Ev
FNDA:0,_ZN10ShadowableD2Ev
DA:73,0
DA:73,0
DA:73,0
end_of_record
SF:/mnt/c/users/gabci/desktop/nhf2/src/Textureable.h
DA:26,417
end_of_record
SF:/mnt/c/users/gabci/desktop/nhf2/src/world_object/Structure.cpp
FN:4,_ZN8minerals9StructureC2Eii
FNDA:417,_ZN8minerals9StructureC2Eii
FN:7,_ZN8minerals9Structure10setTextureERKNSt7__cxx1112basic_stringIcSt11char_traitsIcESaIcEEE
FNDA:422,_ZN8minerals9Structure10setTextureERKNSt7__cxx1112basic_stringIcSt11char_traitsIcESaIcEEE
FN:25,_ZN8minerals9Structure11setPositionEdd
FNDA:202,_ZN8minerals9Structure11setPositionEdd
FN:29,_ZN8minerals9Structure4drawERN2sf12RenderWindowE
FNDA:122,_ZN8minerals9Structure4drawERN2sf12RenderWindowE
FN:33,_ZN8minerals9Structure11needs_drawnEv
FNDA:202,_ZN8minerals9Structure11needs_drawnEv
FN:43,_ZN8minerals9Structure10draw_logicERN2sf12RenderWindowEfii
FNDA:202,_ZN8minerals9Structure10draw_logicERN2sf12RenderWindowEfii
DA:4,417
DA:5,417
DA:7,422
DA:9,422
DA:11,422
DA:15,422
DA:17,422
DA:18,422
DA:19,422
DA:25,202
DA:26,202
DA:27,202
DA:29,122
DA:30,122
DA:31,122
DA:33,202
DA:34,202
DA:35,202
DA:37,202
DA:38,202
DA:39,122
DA:43,202
DA:44,202
DA:45,202
DA:46,122
DA:48,122
DA:49,122
DA:51,122
DA:53,202
end_of_record
TN:
SF:/usr/include/c++/11/bits/basic_string.tcc
FN:206,_ZNSt7__cxx1112basic_stringIcSt11char_traitsIcESaIcEE12_M_constructIPKcEEvT_S8_St20forward_iterator_tag
FNDA:0,_ZNSt7__cxx1112basic_stringIcSt11char_traitsIcESaIcEE12_M_constructIPKcEEvT_S8_St20forward_iterator_tag
DA:206,0
DA:211,0
DA:212,0
DA:215,0
DA:217,0
DA:219,0
DA:220,0
DA:225,0
DA:232,0
DA:233,0
end_of_record
SF:/mnt/c/users/gabci/desktop/nhf2/src/Textureable.h
DA:28,80
end_of_record
SF:/mnt/c/users/gabci/desktop/nhf2/src/Shadowable.h
FN:73,_ZN10ShadowableD0Ev
FNDA:0,_ZN10ShadowableD0Ev
FN:73,_ZN10ShadowableD2Ev
FNDA:0,_ZN10ShadowableD2Ev
DA:73,0
DA:73,0
DA:73,80
end_of_record
SF:/usr/include/c++/11/bits/char_traits.h
DA:356,0
DA:357,0
DA:393,82
DA:396,82
DA:399,82
end_of_record
SF:/mnt/c/users/gabci/desktop/nhf2/src/world_object/Tree.h
end_of_record
SF:/mnt/c/users/gabci/desktop/nhf2/src/world_object/Structure.h
FN:72,_ZN8minerals9StructureD0Ev
FNDA:0,_ZN8minerals9StructureD0Ev
FN:72,_ZN8minerals9StructureD2Ev
FNDA:80,_ZN8minerals9StructureD2Ev
DA:72,0
DA:72,80
end_of_record
SF:/mnt/c/users/gabci/desktop/nhf2/src/world_object/ResourceStructure.h
DA:31,0
end_of_record
SF:/mnt/c/users/gabci/desktop/nhf2/src/world_object/Tree.cpp
FN:4,_ZN8minerals4TreeC2Eii
FNDA:82,_ZN8minerals4TreeC2Eii
FN:12,_ZNK8minerals4Tree8get_typeEv
FNDA:12,_ZNK8minerals4Tree8get_typeEv
FN:16,_ZN8minerals4Tree12update_logicEf
FNDA:40,_ZN8minerals4Tree12update_logicEf
FN:23,_ZN8minerals4Tree7harvestEv
FNDA:2,_ZN8minerals4Tree7harvestEv
FN:34,_ZNK8minerals4Tree18play_destroy_soundER11SoundPlayer
FNDA:0,_ZNK8minerals4Tree18play_destroy_soundER11SoundPlayer
DA:4,82
DA:5,82
DA:6,82
DA:8,82
DA:10,82
DA:12,12
DA:13,12
DA:16,40
DA:17,40
DA:18,40
DA:19,0
DA:21,40
DA:23,2
DA:24,2
DA:25,2
DA:26,1
DA:27,1
DA:30,2
DA:34,0
DA:35,0
DA:36,0
end_of_record
SF:/usr/include/c++/11/ext/new_allocator.h
DA:79,82
DA:82,82
DA:89,82
end_of_record
SF:/usr/include/c++/11/bits/basic_string.h
FN:533,_ZNSt7__cxx1112basic_stringIcSt11char_traitsIcESaIcEEC2IS3_EEPKcRKS3_
FNDA:82,_ZNSt7__cxx1112basic_stringIcSt11char_traitsIcESaIcEEC2IS3_EEPKcRKS3_
DA:158,82
DA:164,82
DA:165,82
DA:186,0
DA:187,0
DA:190,0
DA:191,0
DA:194,0
DA:195,0
DA:198,82
DA:201,82
DA:218,0
DA:219,0
DA:222,0
DA:224,0
DA:225,0
DA:404,0
DA:406,0
DA:533,82
DA:534,82
DA:536,82
DA:539,82
DA:540,82
DA:671,82
DA:672,82
end_of_record
SF:/usr/include/c++/11/bits/allocator.h
DA:156,82
DA:159,82
DA:160,82
DA:174,82
end_of_record
SF:/usr/include/c++/11/bits/stl_iterator_base_funcs.h
DA:98,0
DA:104,0
DA:138,0
DA:141,0
end_of_record
SF:/usr/include/c++/11/iostream
end_of_record
TN:
SF:/usr/include/c++/11/bits/stl_iterator.h
DA:1027,54
DA:1033,108
DA:1037,108
DA:1052,1640
DA:1054,253
DA:1055,436
DA:1105,27
DA:1268,91
DA:1271,91
end_of_record
SF:/usr/include/c++/11/bits/char_traits.h
DA:356,15
DA:357,15
DA:372,1
DA:374,1
DA:377,1
DA:389,1
DA:393,0
DA:396,0
DA:399,0
end_of_record
SF:/usr/include/c++/11/bits/stl_pair.h
DA:211,0
end_of_record
SF:/usr/include/c++/11/bits/hashtable_policy.h
FN:696,_ZNSt8__detail9_Map_baseINSt7__cxx1112basic_stringIcSt11char_traitsIcESaIcEEESt4pairIKS6_S6_ESaIS9_ENS_10_Select1stESt8equal_toIS6_ESt4hashIS6_ENS_18_Mod_range_hashingENS_20_Default_ranged_hashENS_20_Prime_rehash_policyENS_17_Hashtable_traitsILb1ELb0ELb1EEELb1EEixERS8_
FNDA:13,_ZNSt8__detail9_Map_baseINSt7__cxx1112basic_stringIcSt11char_traitsIcESaIcEEESt4pairIKS6_S6_ESaIS9_ENS_10_Select1stESt8equal_toIS6_ESt4hashIS6_ENS_18_Mod_range_hashingENS_20_Default_ranged_hashENS_20_Prime_rehash_policyENS_17_Hashtable_traitsILb1ELb0ELb1EEELb1EEixERS8_
FN:1870,_ZNSt8__detail16_Hashtable_allocISaINS_10_Hash_nodeISt4pairIKNSt7__cxx1112basic_stringIcSt11char_traitsIcESaIcEEES8_ELb1EEEEE16_M_allocate_nodeIJRKSt21piecewise_construct_tSt5tupleIJRS9_EESI_IJEEEEEPSB_DpOT_
FNDA:13,_ZNSt8__detail16_Hashtable_allocISaINS_10_Hash_nodeISt4pairIKNSt7__cxx1112basic_stringIcSt11char_traitsIcESaIcEEES8_ELb1EEEEE16_M_allocate_nodeIJRKSt21piecewise_construct_tSt5tupleIJRS9_EESI_IJEEEEEPSB_DpOT_
FN:1892,_ZNSt8__detail16_Hashtable_allocISaINS_10_Hash_nodeISt4pairIKNSt7__cxx1112basic_stringIcSt11char_traitsIcESaIcEEES8_ELb1EEEEE18_M_deallocate_nodeEPSB_
FNDA:0,_ZNSt8__detail16_Hashtable_allocISaINS_10_Hash_nodeISt4pairIKNSt7__cxx1112basic_stringIcSt11char_traitsIcESaIcEEES8_ELb1EEEEE18_M_deallocate_nodeEPSB_
FN:1900,_ZNSt8__detail16_Hashtable_allocISaINS_10_Hash_nodeISt4pairIKNSt7__cxx1112basic_stringIcSt11char_traitsIcESaIcEEES8_ELb1EEEEE22_M_deallocate_node_ptrEPSB_
FNDA:0,_ZNSt8__detail16_Hashtable_allocISaINS_10_Hash_nodeISt4pairIKNSt7__cxx1112basic_stringIcSt11char_traitsIcESaIcEEES8_ELb1EEEEE22_M_deallocate_node_ptrEPSB_
FN:1910,_ZNSt8__detail16_Hashtable_allocISaINS_10_Hash_nodeISt4pairIKNSt7__cxx1112basic_stringIcSt11char_traitsIcESaIcEEES8_ELb1EEEEE19_M_deallocate_nodesEPSB_
FNDA:0,_ZNSt8__detail16_Hashtable_allocISaINS_10_Hash_nodeISt4pairIKNSt7__cxx1112basic_stringIcSt11char_traitsIcESaIcEEES8_ELb1EEEEE19_M_deallocate_nodesEPSB_
FN:1922,_ZNSt8__detail16_Hashtable_allocISaINS_10_Hash_nodeISt4pairIKNSt7__cxx1112basic_stringIcSt11char_traitsIcESaIcEEES8_ELb1EEEEE19_M_allocate_bucketsEm
FNDA:1,_ZNSt8__detail16_Hashtable_allocISaINS_10_Hash_nodeISt4pairIKNSt7__cxx1112basic_stringIcSt11char_traitsIcESaIcEEES8_ELb1EEEEE19_M_allocate_bucketsEm
FN:1935,_ZNSt8__detail16_Hashtable_allocISaINS_10_Hash_nodeISt4pairIKNSt7__cxx1112basic_stringIcSt11char_traitsIcESaIcEEES8_ELb1EEEEE21_M_deallocate_bucketsEPPNS_15_Hash_node_baseEm
FNDA:0,_ZNSt8__detail16_Hashtable_allocISaINS_10_Hash_nodeISt4pairIKNSt7__cxx1112basic_stringIcSt11char_traitsIcESaIcEEES8_ELb1EEEEE21_M_deallocate_bucketsEPPNS_15_Hash_node_baseEm
DA:93,1
DA:95,1
DA:219,14
DA:238,27
DA:242,1
DA:246,0
DA:277,13
DA:282,0
DA:283,0
DA:295,17
DA:338,13
DA:339,13
DA:346,13
DA:347,13
DA:385,4
DA:386,2
DA:398,1
DA:428,28
DA:430,28
DA:446,1
DA:447,1
DA:473,13
DA:474,13
DA:481,0
DA:482,0
DA:696,13
DA:701,13
DA:702,13
DA:703,13
DA:704,0
DA:705,0
DA:707,13
DA:710,13
DA:711,13
DA:714,13
DA:715,13
DA:716,13
DA:717,13
DA:1127,1
DA:1210,1
DA:1215,15
DA:1219,15
DA:1232,16
DA:1233,16
DA:1247,12
DA:1251,12
DA:1263,13
DA:1264,13
DA:1595,6
DA:1596,6
DA:1604,1
DA:1611,6
DA:1617,6
DA:1823,1
DA:1870,13
DA:1873,13
DA:1874,13
DA:1877,13
DA:1878,13
DA:1881,13
DA:1883,0
DA:1885,0
DA:1886,0
DA:1892,0
DA:1894,0
DA:1895,0
DA:1896,0
DA:1900,0
DA:1903,0
DA:1904,0
DA:1905,0
DA:1906,0
DA:1910,0
DA:1912,0
DA:1914,0
DA:1915,0
DA:1916,0
DA:1918,0
DA:1922,1
DA:1925,1
DA:1927,1
DA:1928,1
DA:1929,1
DA:1930,1
DA:1931,1
DA:1935,0
DA:1940,0
DA:1941,0
DA:1942,0
DA:1943,0
end_of_record
SF:/usr/include/c++/11/bits/locale_facets.h
FN:875,_ZNKSt5ctypeIcE5widenEc
FNDA:28,_ZNKSt5ctypeIcE5widenEc
DA:875,28
DA:877,28
DA:878,28
DA:879,0
DA:880,0
end_of_record
SF:/usr/include/c++/11/bits/fs_path.h
FN:288,_ZNSt10filesystem7__cxx114pathC2INSt7__cxx1112basic_stringIcSt11char_traitsIcESaIcEEES1_EERKT_NS1_6formatE
FNDA:3,_ZNSt10filesystem7__cxx114pathC2INSt7__cxx1112basic_stringIcSt11char_traitsIcESaIcEEES1_EERKT_NS1_6formatE
DA:162,3
DA:163,3
DA:288,3
DA:289,3
DA:290,3
DA:313,4
DA:471,1
DA:584,3
DA:647,4
end_of_record
SF:/usr/include/c++/11/bits/unique_ptr.h
FN:355,_ZNSt10unique_ptrINSt10filesystem7__cxx114path5_List5_ImplENS3_13_Impl_deleterEED2Ev
FNDA:4,_ZNSt10unique_ptrINSt10filesystem7__cxx114path5_List5_ImplENS3_13_Impl_deleterEED2Ev
DA:172,4
DA:174,4
DA:355,4
DA:359,4
DA:360,4
DA:361,4
DA:363,4
DA:426,4
DA:427,4
end_of_record
SF:/usr/include/c++/11/bits/basic_string.tcc
FN:206,_ZNSt7__cxx1112basic_stringIcSt11char_traitsIcESaIcEE12_M_constructIPcEEvT_S7_St20forward_iterator_tag
FNDA:0,_ZNSt7__cxx1112basic_stringIcSt11char_traitsIcESaIcEE12_M_constructIPcEEvT_S7_St20forward_iterator_tag
FN:206,_ZNSt7__cxx1112basic_stringIcSt11char_traitsIcESaIcEE12_M_constructIPKcEEvT_S8_St20forward_iterator_tag
FNDA:0,_ZNSt7__cxx1112basic_stringIcSt11char_traitsIcESaIcEE12_M_constructIPKcEEvT_S8_St20forward_iterator_tag
FN:1169,_ZStplIcSt11char_traitsIcESaIcEENSt7__cxx1112basic_stringIT_T0_T1_EEPKS5_RKS8_
FNDA:0,_ZStplIcSt11char_traitsIcESaIcEENSt7__cxx1112basic_stringIT_T0_T1_EEPKS5_RKS8_
DA:206,0
DA:211,0
DA:212,0
DA:215,0
DA:217,0
DA:219,0
DA:220,0
DA:225,0
DA:232,0
DA:233,0
DA:206,0
DA:211,0
DA:212,0
DA:215,0
DA:217,0
DA:219,0
DA:220,0
DA:225,0
DA:232,0
DA:233,0
DA:1169,0
DA:1178,0
DA:1179,0
DA:1181,0
DA:1182,0
DA:1183,0
DA:1184,0
DA:1185,0
end_of_record
SF:/usr/include/c++/11/ext/aligned_buffer.h
DA:104,13
DA:110,1
DA:115,27
end_of_record
SF:/usr/include/c++/11/fstream
DA:270,3
DA:271,3
DA:645,2
DA:646,2
DA:908,1
DA:909,1
end_of_record
SF:/usr/include/c++/11/bits/unordered_map.h
DA:141,1
DA:356,2
DA:357,2
DA:790,0
DA:791,0
DA:879,2
DA:880,2
DA:979,13
DA:980,13
end_of_record
SF:/usr/include/c++/11/ext/new_allocator.h
FN:103,_ZN9__gnu_cxx13new_allocatorIPNSt8__detail15_Hash_node_baseEE8allocateEmPKv
FNDA:1,_ZN9__gnu_cxx13new_allocatorIPNSt8__detail15_Hash_node_baseEE8allocateEmPKv
FN:103,_ZN9__gnu_cxx13new_allocatorINSt8__detail10_Hash_nodeISt4pairIKNSt7__cxx1112basic_stringIcSt11char_traitsIcESaIcEEES9_ELb1EEEE8allocateEmPKv
FNDA:13,_ZN9__gnu_cxx13new_allocatorINSt8__detail10_Hash_nodeISt4pairIKNSt7__cxx1112basic_stringIcSt11char_traitsIcESaIcEEES9_ELb1EEEE8allocateEmPKv
DA:79,19
DA:82,18
DA:89,38
DA:103,1
DA:111,1
DA:115,0
DA:116,0
DA:117,0
DA:127,1
DA:103,13
DA:111,13
DA:115,0
DA:116,0
DA:117,0
DA:127,13
DA:132,0
DA:145,0
DA:160,13
DA:162,13
DA:166,0
DA:168,0
end_of_record
SF:/usr/include/c++/11/bits/stl_function.h
DA:369,1
DA:370,1
end_of_record
SF:/usr/include/c++/11/bits/stl_algobase.h
FN:2061,_ZSt9__find_ifIN9__gnu_cxx17__normal_iteratorIPcNSt7__cxx1112basic_stringIcSt11char_traitsIcESaIcEEEEENS0_5__ops16_Iter_equals_valIKcEEET_SE_SE_T0_St26random_access_iterator_tag
FNDA:54,_ZSt9__find_ifIN9__gnu_cxx17__normal_iteratorIPcNSt7__cxx1112basic_stringIcSt11char_traitsIcESaIcEEEEENS0_5__ops16_Iter_equals_valIKcEEET_SE_SE_T0_St26random_access_iterator_tag
DA:2061,54
DA:2065,54
DA:2067,256
DA:2069,219
DA:2070,0
DA:2071,219
DA:2073,219
DA:2074,2
DA:2075,217
DA:2077,217
DA:2078,6
DA:2079,211
DA:2081,211
DA:2082,9
DA:2083,202
DA:2086,37
DA:2088,7
DA:2089,7
DA:2090,1
DA:2091,12
DA:2093,12
DA:2094,12
DA:2095,2
DA:2096,15
DA:2098,15
DA:2099,15
DA:2100,0
DA:2103,34
DA:2105,34
DA:2112,54
DA:2114,54
end_of_record
SF:/usr/include/c++/11/bits/allocator.h
DA:156,18
DA:159,18
DA:160,3
DA:169,1
DA:174,38
end_of_record
SF:/mnt/c/users/gabci/desktop/nhf2/src/YAMLParser.cpp
FN:9,_ZN10YAMLParserC2Ev
FNDA:1,_ZN10YAMLParserC2Ev
FN:13,_ZN10YAMLParser10parse_fileERKNSt7__cxx1112basic_stringIcSt11char_traitsIcESaIcEEE
FNDA:2,_ZN10YAMLParser10parse_fileERKNSt7__cxx1112basic_stringIcSt11char_traitsIcESaIcEEE
FN:48,_ZNK10YAMLParser16get_value_of_keyERKNSt7__cxx1112basic_stringIcSt11char_traitsIcESaIcEEE
FNDA:2,_ZNK10YAMLParser16get_value_of_keyERKNSt7__cxx1112basic_stringIcSt11char_traitsIcESaIcEEE
FN:53,_ZN10YAMLParser24try_generate_config_fileERKNSt7__cxx1112basic_stringIcSt11char_traitsIcESaIcEEE
FNDA:2,_ZN10YAMLParser24try_generate_config_fileERKNSt7__cxx1112basic_stringIcSt11char_traitsIcESaIcEEE
DA:9,1
DA:10,1
DA:11,1
DA:13,2
DA:14,2
DA:15,0
DA:18,2
DA:19,2
DA:20,2
DA:21,1
DA:22,2
DA:23,1
DA:26,1
DA:29,28
DA:31,27
DA:32,27
DA:33,27
DA:35,13
DA:36,13
DA:38,26
DA:39,13
DA:42,1
DA:44,1
DA:45,1
DA:46,2
DA:48,2
DA:49,2
DA:50,2
DA:53,2
DA:54,2
DA:56,4
DA:60,1
DA:61,2
DA:62,0
DA:65,1
DA:66,1
DA:70,1
DA:71,1
DA:100,1
DA:102,3
end_of_record
SF:/usr/include/c++/11/utility
DA:188,1
DA:189,1
DA:233,1
DA:234,1
end_of_record
SF:/usr/include/c++/11/bits/fs_ops.h
FN:133,_ZNSt10filesystem6existsERKNS_7__cxx114pathE
FNDA:2,_ZNSt10filesystem6existsERKNS_7__cxx114pathE
DA:128,2
DA:129,2
DA:133,2
DA:134,2
end_of_record
SF:/usr/include/c++/11/bits/basic_string.h
FN:533,_ZNSt7__cxx1112basic_stringIcSt11char_traitsIcESaIcEEC2IS3_EEPKcRKS3_
FNDA:0,_ZNSt7__cxx1112basic_stringIcSt11char_traitsIcESaIcEEC2IS3_EEPKcRKS3_
FN:664,_ZNSt7__cxx1112basic_stringIcSt11char_traitsIcESaIcEEC2ISt17basic_string_viewIcS2_EvEERKT_RKS3_
FNDA:3,_ZNSt7__cxx1112basic_stringIcSt11char_traitsIcESaIcEEC2ISt17basic_string_viewIcS2_EvEERKT_RKS3_
FN:6234,_ZSteqIcEN9__gnu_cxx11__enable_ifIXsrSt9__is_charIT_E7__valueEbE6__typeERKNSt7__cxx1112basic_stringIS3_St11char_traitsIS3_ESaIS3_EEESE_
FNDA:1,_ZSteqIcEN9__gnu_cxx11__enable_ifIXsrSt9__is_charIT_E7__valueEbE6__typeERKNSt7__cxx1112basic_stringIS3_St11char_traitsIS3_ESaIS3_EEESE_
DA:133,3
DA:142,3
DA:153,3
DA:154,3
DA:158,34
DA:164,3
DA:165,3
DA:167,15
DA:168,15
DA:186,0
DA:187,0
DA:190,15
DA:191,15
DA:194,126
DA:195,0
DA:198,2
DA:201,13
DA:218,0
DA:219,0
DA:222,15
DA:224,15
DA:225,15
DA:251,3
DA:255,3
DA:271,3
DA:274,3
DA:299,0
DA:400,0
DA:401,0
DA:404,0
DA:406,0
DA:439,15
DA:441,15
DA:442,15
DA:448,0
DA:449,0
DA:450,0
DA:518,3
DA:520,3
DA:521,3
DA:533,0
DA:534,0
DA:536,0
DA:539,0
DA:540,0
DA:664,3
DA:665,3
DA:671,14
DA:672,20
DA:679,13
DA:681,13
DA:806,3
DA:807,3
DA:816,54
DA:817,54
DA:832,54
DA:833,54
DA:920,105
DA:921,74
DA:926,15
DA:927,15
DA:1023,1
DA:1024,1
DA:1055,27
DA:1059,27
DA:1062,27
DA:1213,0
DA:1214,0
DA:1356,13
DA:1387,13
DA:2332,45
DA:2333,3
DA:2351,0
DA:2352,0
DA:2381,26
DA:2383,26
DA:6234,1
DA:6236,1
DA:6237,1
DA:6238,1
DA:6875,15
DA:6876,15
end_of_record
SF:/usr/include/c++/11/ext/alloc_traits.h
DA:97,0
DA:98,0
end_of_record
SF:/usr/include/c++/11/string_view
DA:137,3
DA:211,3
DA:263,3
end_of_record
SF:/usr/include/c++/11/bits/stl_algo.h
FN:813,_ZSt11__remove_ifIN9__gnu_cxx17__normal_iteratorIPcNSt7__cxx1112basic_stringIcSt11char_traitsIcESaIcEEEEENS0_5__ops16_Iter_equals_valIKcEEET_SE_SE_T0_
FNDA:54,_ZSt11__remove_ifIN9__gnu_cxx17__normal_iteratorIPcNSt7__cxx1112basic_stringIcSt11char_traitsIcESaIcEEEEENS0_5__ops16_Iter_equals_valIKcEEET_SE_SE_T0_
DA:813,54
DA:816,54
DA:817,54
DA:818,34
DA:819,20
DA:820,420
DA:821,420
DA:822,400
DA:824,355
DA:825,400
DA:827,20
DA:850,54
DA:860,54
end_of_record
SF:/usr/include/c++/11/iostream
end_of_record
SF:/usr/include/c++/11/bits/hashtable.h
FN:308,_ZNSt10_HashtableINSt7__cxx1112basic_stringIcSt11char_traitsIcESaIcEEESt4pairIKS5_S5_ESaIS8_ENSt8__detail10_Select1stESt8equal_toIS5_ESt4hashIS5_ENSA_18_Mod_range_hashingENSA_20_Default_ranged_hashENSA_20_Prime_rehash_policyENSA_17_Hashtable_traitsILb1ELb0ELb1EEEE12_Scoped_nodeD2Ev
FNDA:13,_ZNSt10_HashtableINSt7__cxx1112basic_stringIcSt11char_traitsIcESaIcEEESt4pairIKS5_S5_ESaIS8_ENSt8__detail10_Select1stESt8equal_toIS5_ESt4hashIS5_ENSA_18_Mod_range_hashingENSA_20_Default_ranged_hashENSA_20_Prime_rehash_policyENSA_17_Hashtable_traitsILb1ELb0ELb1EEEE12_Scoped_nodeD2Ev
FN:453,_ZNSt10_HashtableINSt7__cxx1112basic_stringIcSt11char_traitsIcESaIcEEESt4pairIKS5_S5_ESaIS8_ENSt8__detail10_Select1stESt8equal_toIS5_ESt4hashIS5_ENSA_18_Mod_range_hashingENSA_20_Default_ranged_hashENSA_20_Prime_rehash_policyENSA_17_Hashtable_traitsILb1ELb0ELb1EEEE21_M_deallocate_bucketsEv
FNDA:1,_ZNSt10_HashtableINSt7__cxx1112basic_stringIcSt11char_traitsIcESaIcEEESt4pairIKS5_S5_ESaIS8_ENSt8__detail10_Select1stESt8equal_toIS5_ESt4hashIS5_ENSA_18_Mod_range_hashingENSA_20_Default_ranged_hashENSA_20_Prime_rehash_policyENSA_17_Hashtable_traitsILb1ELb0ELb1EEEE21_M_deallocate_bucketsEv
FN:1603,_ZNKSt10_HashtableINSt7__cxx1112basic_stringIcSt11char_traitsIcESaIcEEESt4pairIKS5_S5_ESaIS8_ENSt8__detail10_Select1stESt8equal_toIS5_ESt4hashIS5_ENSA_18_Mod_range_hashingENSA_20_Default_ranged_hashENSA_20_Prime_rehash_policyENSA_17_Hashtable_traitsILb1ELb0ELb1EEEE4findERS7_
FNDA:2,_ZNKSt10_HashtableINSt7__cxx1112basic_stringIcSt11char_traitsIcESaIcEEESt4pairIKS5_S5_ESaIS8_ENSt8__detail10_Select1stESt8equal_toIS5_ESt4hashIS5_ENSA_18_Mod_range_hashingENSA_20_Default_ranged_hashENSA_20_Prime_rehash_policyENSA_17_Hashtable_traitsILb1ELb0ELb1EEEE4findERS7_
FN:1827,_ZNKSt10_HashtableINSt7__cxx1112basic_stringIcSt11char_traitsIcESaIcEEESt4pairIKS5_S5_ESaIS8_ENSt8__detail10_Select1stESt8equal_toIS5_ESt4hashIS5_ENSA_18_Mod_range_hashingENSA_20_Default_ranged_hashENSA_20_Prime_rehash_policyENSA_17_Hashtable_traitsILb1ELb0ELb1EEEE19_M_find_before_nodeEmRS7_m
FNDA:15,_ZNKSt10_HashtableINSt7__cxx1112basic_stringIcSt11char_traitsIcESaIcEEESt4pairIKS5_S5_ESaIS8_ENSt8__detail10_Select1stESt8equal_toIS5_ESt4hashIS5_ENSA_18_Mod_range_hashingENSA_20_Default_ranged_hashENSA_20_Prime_rehash_policyENSA_17_Hashtable_traitsILb1ELb0ELb1EEEE19_M_find_before_nodeEmRS7_m
FN:1886,_ZNSt10_HashtableINSt7__cxx1112basic_stringIcSt11char_traitsIcESaIcEEESt4pairIKS5_S5_ESaIS8_ENSt8__detail10_Select1stESt8equal_toIS5_ESt4hashIS5_ENSA_18_Mod_range_hashingENSA_20_Default_ranged_hashENSA_20_Prime_rehash_policyENSA_17_Hashtable_traitsILb1ELb0ELb1EEEE22_M_insert_bucket_beginEmPNSA_10_Hash_nodeIS8_Lb1EEE
FNDA:13,_ZNSt10_HashtableINSt7__cxx1112basic_stringIcSt11char_traitsIcESaIcEEESt4pairIKS5_S5_ESaIS8_ENSt8__detail10_Select1stESt8equal_toIS5_ESt4hashIS5_ENSA_18_Mod_range_hashingENSA_20_Default_ranged_hashENSA_20_Prime_rehash_policyENSA_17_Hashtable_traitsILb1ELb0ELb1EEEE22_M_insert_bucket_beginEmPNSA_10_Hash_nodeIS8_Lb1EEE
FN:2008,_ZNSt10_HashtableINSt7__cxx1112basic_stringIcSt11char_traitsIcESaIcEEESt4pairIKS5_S5_ESaIS8_ENSt8__detail10_Select1stESt8equal_toIS5_ESt4hashIS5_ENSA_18_Mod_range_hashingENSA_20_Default_ranged_hashENSA_20_Prime_rehash_policyENSA_17_Hashtable_traitsILb1ELb0ELb1EEEE21_M_insert_unique_nodeEmmPNSA_10_Hash_nodeIS8_Lb1EEEm
FNDA:13,_ZNSt10_HashtableINSt7__cxx1112basic_stringIcSt11char_traitsIcESaIcEEESt4pairIKS5_S5_ESaIS8_ENSt8__detail10_Select1stESt8equal_toIS5_ESt4hashIS5_ENSA_18_Mod_range_hashingENSA_20_Default_ranged_hashENSA_20_Prime_rehash_policyENSA_17_Hashtable_traitsILb1ELb0ELb1EEEE21_M_insert_unique_nodeEmmPNSA_10_Hash_nodeIS8_Lb1EEEm
FN:2316,_ZNSt10_HashtableINSt7__cxx1112basic_stringIcSt11char_traitsIcESaIcEEESt4pairIKS5_S5_ESaIS8_ENSt8__detail10_Select1stESt8equal_toIS5_ESt4hashIS5_ENSA_18_Mod_range_hashingENSA_20_Default_ranged_hashENSA_20_Prime_rehash_policyENSA_17_Hashtable_traitsILb1ELb0ELb1EEEE5clearEv
FNDA:0,_ZNSt10_HashtableINSt7__cxx1112basic_stringIcSt11char_traitsIcESaIcEEESt4pairIKS5_S5_ESaIS8_ENSt8__detail10_Select1stESt8equal_toIS5_ESt4hashIS5_ENSA_18_Mod_range_hashingENSA_20_Default_ranged_hashENSA_20_Prime_rehash_policyENSA_17_Hashtable_traitsILb1ELb0ELb1EEEE5clearEv
FN:2355,_ZNSt10_HashtableINSt7__cxx1112basic_stringIcSt11char_traitsIcESaIcEEESt4pairIKS5_S5_ESaIS8_ENSt8__detail10_Select1stESt8equal_toIS5_ESt4hashIS5_ENSA_18_Mod_range_hashingENSA_20_Default_ranged_hashENSA_20_Prime_rehash_policyENSA_17_Hashtable_traitsILb1ELb0ELb1EEEE9_M_rehashEmRKm
FNDA:1,_ZNSt10_HashtableINSt7__cxx1112basic_stringIcSt11char_traitsIcESaIcEEESt4pairIKS5_S5_ESaIS8_ENSt8__detail10_Select1stESt8equal_toIS5_ESt4hashIS5_ENSA_18_Mod_range_hashingENSA_20_Default_ranged_hashENSA_20_Prime_rehash_policyENSA_17_Hashtable_traitsILb1ELb0ELb1EEEE9_M_rehashEmRKm
FN:2378,_ZNSt10_HashtableINSt7__cxx1112basic_stringIcSt11char_traitsIcESaIcEEESt4pairIKS5_S5_ESaIS8_ENSt8__detail10_Select1stESt8equal_toIS5_ESt4hashIS5_ENSA_18_Mod_range_hashingENSA_20_Default_ranged_hashENSA_20_Prime_rehash_policyENSA_17_Hashtable_traitsILb1ELb0ELb1EEEE13_M_rehash_auxEmSt17integral_constantIbLb1EE
FNDA:1,_ZNSt10_HashtableINSt7__cxx1112basic_stringIcSt11char_traitsIcESaIcEEESt4pairIKS5_S5_ESaIS8_ENSt8__detail10_Select1stESt8equal_toIS5_ESt4hashIS5_ENSA_18_Mod_range_hashingENSA_20_Default_ranged_hashENSA_20_Prime_rehash_policyENSA_17_Hashtable_traitsILb1ELb0ELb1EEEE13_M_rehash_auxEmSt17integral_constantIbLb1EE
DA:302,13
DA:303,13
DA:304,13
DA:308,13
DA:421,1
DA:422,1
DA:432,1
DA:434,1
DA:436,0
DA:437,0
DA:440,1
DA:444,1
DA:446,1
DA:449,0
DA:453,1
DA:454,1
DA:462,1
DA:463,1
DA:528,1
DA:633,2
DA:634,2
DA:790,12
DA:791,12
DA:794,16
DA:795,14
DA:807,15
DA:810,13
DA:811,15
DA:812,1
DA:1603,2
DA:1608,2
DA:1609,2
DA:1610,2
DA:1827,15
DA:1833,15
DA:1834,15
DA:1837,6
DA:1840,6
DA:1843,5
DA:1886,13
DA:1890,13
DA:1894,4
DA:1895,4
DA:1902,9
DA:1903,9
DA:1905,9
DA:1908,8
DA:1910,9
DA:1912,13
DA:2008,13
DA:2014,13
DA:2016,13
DA:2019,13
DA:2021,1
DA:2022,1
DA:2025,13
DA:2028,13
DA:2029,13
DA:2030,13
DA:2316,0
DA:2320,0
DA:2321,0
DA:2322,0
DA:2323,0
DA:2324,0
DA:2325,0
DA:2355,1
DA:2361,1
DA:2363,0
DA:2367,0
DA:2368,0
DA:2370,1
DA:2378,1
DA:2382,1
DA:2383,1
DA:2384,1
DA:2385,1
DA:2386,1
DA:2388,0
DA:2390,0
DA:2391,0
DA:2393,0
DA:2394,0
DA:2395,0
DA:2396,0
DA:2397,0
DA:2402,0
DA:2403,0
DA:2409,1
DA:2410,1
DA:2411,1
DA:2412,1
end_of_record
SF:/usr/include/c++/11/bits/move.h
DA:77,26
DA:104,19
end_of_record
SF:/usr/include/c++/11/bits/ios_base.h
DA:165,28
DA:166,28
end_of_record
SF:/usr/include/c++/11/bits/basic_ios.h
DA:117,28
DA:118,28
DA:137,28
DA:138,28
DA:201,28
DA:202,28
end_of_record
SF:/usr/include/c++/11/bits/functional_hash.h
DA:196,15
DA:198,15
end_of_record
SF:/usr/include/c++/11/bits/alloc_traits.h
DA:463,14
DA:464,14
DA:495,0
DA:496,0
DA:511,13
DA:516,13
DA:531,0
DA:535,0
DA:562,0
DA:563,0
end_of_record
SF:/usr/include/c++/11/tuple
DA:124,4
DA:192,13
DA:193,13
DA:233,17
DA:268,4
DA:424,17
DA:434,13
DA:435,13
DA:454,13
DA:456,13
DA:727,13
DA:729,13
DA:756,13
DA:1377,17
DA:1378,21
DA:1393,17
DA:1394,4
DA:1804,13
DA:1809,13
DA:1816,13
DA:1819,13
DA:1820,13
end_of_record
SF:/usr/include/c++/11/bits/stl_iterator_base_funcs.h
DA:98,0
DA:104,0
DA:138,0
DA:141,0
end_of_record
SF:/usr/include/c++/11/bits/predefined_ops.h
DA:262,54
DA:269,1300
DA:270,653
DA:276,54
DA:277,54
end_of_record
